 networks

 Timestamp is 53ddedaa (Sun Aug 03 16:07:06 2014)

 Preferred load address is 00400000

 Start         Length     Name                   Class
 0001:00000000 0024fbdeH .text                   CODE
 0001:0024fbe0 0001891aH .text$x                 CODE
 0002:00000000 0000f094H .rdata                  DATA
 0002:0000f098 00004dd4H .rdata$r                DATA
 0002:00013e70 00022330H .xdata$x                DATA
 0002:000361a0 00000000H .edata                  DATA
 0003:00000000 00000004H .CRT$XCA                DATA
 0003:00000004 00000004H .CRT$XCL                DATA
 0003:00000008 00000004H .CRT$XCU                DATA
 0003:0000000c 00000004H .CRT$XCZ                DATA
 0003:00000010 00000004H .CRT$XIA                DATA
 0003:00000014 00000004H .CRT$XIZ                DATA
 0003:00000020 00078be4H .data                   DATA
 0003:00078c08 00003f48H .bss                    DATA
 0004:00000000 000000f0H .idata$2                DATA
 0004:000000f0 00000014H .idata$3                DATA
 0004:00000104 00000870H .idata$4                DATA
 0004:00000974 00000870H .idata$5                DATA
 0004:000011e4 0000104eH .idata$6                DATA
 0005:00000000 00000358H .rsrc$01                DATA
 0005:00000360 000015c0H .rsrc$02                DATA

  Address         Publics by Value              Rva+Base     Lib:Object

 0001:00000000       ??0CDialog_BTC1T@@QAE@PAVCWnd@@@Z 00401000 f   Dialog_BTC1T.obj
 0001:00000060       ??_ECDialog_BTC1T@@UAEPAXI@Z 00401060 f i Dialog_BTC1T.obj
 0001:00000060       ??_GCDialog_BTC1T@@UAEPAXI@Z 00401060 f i Dialog_BTC1T.obj
 0001:00000080       ??1CDialog_BTC1T@@UAE@XZ   00401080 f i Dialog_BTC1T.obj
 0001:000000d0       ?DoDataExchange@CDialog_BTC1T@@MAEXPAVCDataExchange@@@Z 004010d0 f   Dialog_BTC1T.obj
 0001:000000f0       ?GetMessageMap@CDialog_BTC1T@@MBEPBUAFX_MSGMAP@@XZ 004010f0 f   Dialog_BTC1T.obj
 0001:00000100       ?OnDblclkListBtc1t@CDialog_BTC1T@@IAEXPAUtagNMHDR@@PAJ@Z 00401100 f   Dialog_BTC1T.obj
 0001:000002a0       ?AssertValid@CObject@@UBEXXZ 004012a0 f i Dialog_BTC1T.obj
 0001:000002b0       ?BeginModalState@CWnd@@UAEXXZ 004012b0 f i Dialog_BTC1T.obj
 0001:000002c0       ?EndModalState@CWnd@@UAEXXZ 004012c0 f i Dialog_BTC1T.obj
 0001:000002d0       ??0CDialogLTC30M@@QAE@PAVCWnd@@@Z 004012d0 f   DialogLTC30M.obj
 0001:00000330       ??_GCDialogLTC30M@@UAEPAXI@Z 00401330 f i DialogLTC30M.obj
 0001:00000330       ??_ECDialogLTC30M@@UAEPAXI@Z 00401330 f i DialogLTC30M.obj
 0001:00000350       ??1CDialogLTC30M@@UAE@XZ   00401350 f i DialogLTC30M.obj
 0001:000003a0       ?DoDataExchange@CDialogLTC30M@@MAEXPAVCDataExchange@@@Z 004013a0 f   DialogLTC30M.obj
 0001:000003c0       ?GetMessageMap@CDialogLTC30M@@MBEPBUAFX_MSGMAP@@XZ 004013c0 f   DialogLTC30M.obj
 0001:000003d0       ?OnDblclkListLtc30m@CDialogLTC30M@@IAEXPAUtagNMHDR@@PAJ@Z 004013d0 f   DialogLTC30M.obj
 0001:00000570       ??0CDialogLTC60M@@QAE@PAVCWnd@@@Z 00401570 f   DialogLTC60M.obj
 0001:000005d0       ??_ECDialogLTC60M@@UAEPAXI@Z 004015d0 f i DialogLTC60M.obj
 0001:000005d0       ??_GCDialogLTC60M@@UAEPAXI@Z 004015d0 f i DialogLTC60M.obj
 0001:000005f0       ??1CDialogLTC60M@@UAE@XZ   004015f0 f i DialogLTC60M.obj
 0001:00000640       ?DoDataExchange@CDialogLTC60M@@MAEXPAVCDataExchange@@@Z 00401640 f   DialogLTC60M.obj
 0001:00000660       ?GetMessageMap@CDialogLTC60M@@MBEPBUAFX_MSGMAP@@XZ 00401660 f   DialogLTC60M.obj
 0001:00000670       ?OnDblclkListLtc60m@CDialogLTC60M@@IAEXPAUtagNMHDR@@PAJ@Z 00401670 f   DialogLTC60M.obj
 0001:00000810       ??0CInitFile@@QAE@XZ       00401810 f   InitFile.obj
 0001:00000890       ??_ECInitFile@@UAEPAXI@Z   00401890 f i InitFile.obj
 0001:00000890       ??_GCInitFile@@UAEPAXI@Z   00401890 f i InitFile.obj
 0001:000008b0       ??1CInitFile@@UAE@XZ       004018b0 f   InitFile.obj
 0001:00000920       ?SetFileName@CInitFile@@QAE?AVCString@@V2@0@Z 00401920 f   InitFile.obj
 0001:00000ac0       ?SetInt@CInitFile@@QAEHVCString@@0H@Z 00401ac0 f   InitFile.obj
 0001:00000ba0       ?SetString@CInitFile@@QAEHVCString@@00@Z 00401ba0 f   InitFile.obj
 0001:00000c50       ?GetString@CInitFile@@QAE?AVCString@@V2@00@Z 00401c50 f   InitFile.obj
 0001:00000d20       ?GetInt@CInitFile@@QAEHVCString@@0H@Z 00401d20 f   InitFile.obj
 0001:00000e10       ?ReadIniFile@CInitFile@@QAEHXZ 00401e10 f   InitFile.obj
 0001:00000e20       ?GetFileString@CInitFile@@QAE?AVCString@@V2@00@Z 00401e20 f   InitFile.obj
 0001:00000ed0       ?WriteFileString@CInitFile@@QAEXVCString@@00@Z 00401ed0 f   InitFile.obj
 0001:00000f50       ?GetModulePath@CInitFile@@QAE?AVCString@@XZ 00401f50 f   InitFile.obj
 0001:00000f80       ??0CLog@@QAE@VCString@@KH@Z 00401f80 f   Log.obj
 0001:00001010       ??_GCLog@@UAEPAXI@Z        00402010 f i Log.obj
 0001:00001010       ??_ECLog@@UAEPAXI@Z        00402010 f i Log.obj
 0001:00001030       ?Initialize@CLog@@AAEXXZ   00402030 f   Log.obj
 0001:000011a0       ??1CLog@@UAE@XZ            004021a0 f   Log.obj
 0001:00001210       ?LogMessage@CLog@@QAEXVCString@@@Z 00402210 f   Log.obj
 0001:00001380       ?DisplayWarningMessage@CLog@@AAEXXZ 00402380 f   Log.obj
 0001:000013c0       ?MessageBoxThreadProcFunc@@YAIPAX@Z 004023c0 f   Log.obj
 0001:00001480       ??3CObject@@SGXPAX@Z       00402480 f i Log.obj
 0001:00001490       ??1CException@@UAE@XZ      00402490 f i Log.obj
 0001:00001490       ??1CObject@@UAE@XZ         00402490 f i Log.obj
 0001:000014a0       ??_GCObject@@UAEPAXI@Z     004024a0 f i Log.obj
 0001:000014a0       ??_ECObject@@UAEPAXI@Z     004024a0 f i Log.obj
 0001:000014c0       ??_GCFileException@@UAEPAXI@Z 004024c0 f i Log.obj
 0001:000014c0       ??_ECFileException@@UAEPAXI@Z 004024c0 f i Log.obj
 0001:000014e0       ??1CFileException@@UAE@XZ  004024e0 f i Log.obj
 0001:00001530       ??0CLoginDialog@@QAE@PAVCWnd@@@Z 00402530 f   LoginDialog.obj
 0001:000015c0       ??_ECLoginDialog@@UAEPAXI@Z 004025c0 f i LoginDialog.obj
 0001:000015c0       ??_GCLoginDialog@@UAEPAXI@Z 004025c0 f i LoginDialog.obj
 0001:000015e0       ??1CLoginDialog@@UAE@XZ    004025e0 f i LoginDialog.obj
 0001:00001640       ?DoDataExchange@CLoginDialog@@MAEXPAVCDataExchange@@@Z 00402640 f   LoginDialog.obj
 0001:00001670       ?GetMessageMap@CLoginDialog@@MBEPBUAFX_MSGMAP@@XZ 00402670 f   LoginDialog.obj
 0001:00001680       ?_GetBaseDispatchMap@MyListCtrl1@@KGPBUAFX_DISPMAP@@XZ 00402680 f   LoginDialog.obj
 0001:00001680       ?_GetBaseDispatchMap@CModifyPassowrd@@KGPBUAFX_DISPMAP@@XZ 00402680 f   LoginDialog.obj
 0001:00001680       ?_GetBaseDispatchMap@CLoginDialog@@KGPBUAFX_DISPMAP@@XZ 00402680 f   LoginDialog.obj
 0001:00001690       ?GetDispatchMap@CLoginDialog@@MBEPBUAFX_DISPMAP@@XZ 00402690 f   LoginDialog.obj
 0001:000016a0       ?GetInterfaceMap@CLoginDialog@@MBEPBUAFX_INTERFACEMAP@@XZ 004026a0 f   LoginDialog.obj
 0001:000016b0       ?_sql_callback@@YAHPAXHPAPAD1@Z 004026b0 f   LoginDialog.obj
 0001:000016e0       ?OnButtonLogin@CLoginDialog@@IAEXXZ 004026e0 f   LoginDialog.obj
 0001:00001a30       ?PreTranslateMessage@CLoginDialog@@UAEHPAUtagMSG@@@Z 00402a30 f   LoginDialog.obj
 0001:00001a60       ?DoDataExchange@CWnd@@MAEXPAVCDataExchange@@@Z 00402a60 f i LoginDialog.obj
 0001:00001a60       ?Dump@CObject@@UBEXAAVCDumpContext@@@Z 00402a60 f i LoginDialog.obj
 0001:00001a60       ?Serialize@CObject@@UAEXAAVCArchive@@@Z 00402a60 f i LoginDialog.obj
 0001:00001a70       ??_GCEdit@@UAEPAXI@Z       00402a70 f i LoginDialog.obj
 0001:00001a70       ??_ECEdit@@UAEPAXI@Z       00402a70 f i LoginDialog.obj
 0001:00001a90       ?MD5Init@@YAXPAUMD5_CTX@@@Z 00402a90 f   md5_password.obj
 0001:00001ac0       ?MD5Update@@YAXPAUMD5_CTX@@PAEI@Z 00402ac0 f   md5_password.obj
 0001:00001b70       ?MD5Final@@YAXQAEPAUMD5_CTX@@@Z 00402b70 f   md5_password.obj
 0001:00002620       ?MDString@@YAPADPAD@Z      00403620 f   md5_password.obj
 0001:000026d0       ??0CModifyPassowrd@@QAE@PAVCWnd@@@Z 004036d0 f   ModifyPassowrd.obj
 0001:00002760       ??_ECModifyPassowrd@@UAEPAXI@Z 00403760 f i ModifyPassowrd.obj
 0001:00002760       ??_GCModifyPassowrd@@UAEPAXI@Z 00403760 f i ModifyPassowrd.obj
 0001:00002780       ??1CModifyPassowrd@@UAE@XZ 00403780 f i ModifyPassowrd.obj
 0001:000027e0       ?OnFinalRelease@CModifyPassowrd@@UAEXXZ 004037e0 f   ModifyPassowrd.obj
 0001:000027e0       ?OnFinalRelease@CLoginDialog@@UAEXXZ 004037e0 f   ModifyPassowrd.obj
 0001:000027f0       ?DoDataExchange@CModifyPassowrd@@MAEXPAVCDataExchange@@@Z 004037f0 f   ModifyPassowrd.obj
 0001:00002820       ?_GetBaseMessageMap@CDialogLTC60M@@KGPBUAFX_MSGMAP@@XZ 00403820 f   ModifyPassowrd.obj
 0001:00002820       ?_GetBaseMessageMap@CDialogLTC30M@@KGPBUAFX_MSGMAP@@XZ 00403820 f   ModifyPassowrd.obj
 0001:00002820       ?_GetBaseMessageMap@CDialog_BTC1T@@KGPBUAFX_MSGMAP@@XZ 00403820 f   ModifyPassowrd.obj
 0001:00002820       ?_GetBaseMessageMap@CLoginDialog@@KGPBUAFX_MSGMAP@@XZ 00403820 f   ModifyPassowrd.obj
 0001:00002820       ?_GetBaseMessageMap@CAboutDlg@@KGPBUAFX_MSGMAP@@XZ 00403820 f   ModifyPassowrd.obj
 0001:00002820       ?_GetBaseMessageMap@CModifyPassowrd@@KGPBUAFX_MSGMAP@@XZ 00403820 f   ModifyPassowrd.obj
 0001:00002820       ?_GetBaseMessageMap@UnknowType@@KGPBUAFX_MSGMAP@@XZ 00403820 f   ModifyPassowrd.obj
 0001:00002820       ?_GetBaseMessageMap@CNetworksDlg@@KGPBUAFX_MSGMAP@@XZ 00403820 f   ModifyPassowrd.obj
 0001:00002830       ?GetMessageMap@CModifyPassowrd@@MBEPBUAFX_MSGMAP@@XZ 00403830 f   ModifyPassowrd.obj
 0001:00002840       ?GetDispatchMap@CModifyPassowrd@@MBEPBUAFX_DISPMAP@@XZ 00403840 f   ModifyPassowrd.obj
 0001:00002850       ?_GetBaseInterfaceMap@MyListCtrl1@@KGPBUAFX_INTERFACEMAP@@XZ 00403850 f   ModifyPassowrd.obj
 0001:00002850       ?_GetBaseInterfaceMap@CLoginDialog@@KGPBUAFX_INTERFACEMAP@@XZ 00403850 f   ModifyPassowrd.obj
 0001:00002850       ?_GetBaseInterfaceMap@CModifyPassowrd@@KGPBUAFX_INTERFACEMAP@@XZ 00403850 f   ModifyPassowrd.obj
 0001:00002860       ?GetInterfaceMap@CModifyPassowrd@@MBEPBUAFX_INTERFACEMAP@@XZ 00403860 f   ModifyPassowrd.obj
 0001:00002870       ?OnModifyPassword@CModifyPassowrd@@IAEXXZ 00403870 f   ModifyPassowrd.obj
 0001:00002ab0       ?PreTranslateMessage@CModifyPassowrd@@UAEHPAUtagMSG@@@Z 00403ab0 f   ModifyPassowrd.obj
 0001:00002ae0       ??0MyHeaderCtrl@@QAE@XZ    00403ae0 f   MyHeaderCtrl.obj
 0001:00002b00       ??_EMyHeaderCtrl@@UAEPAXI@Z 00403b00 f i MyHeaderCtrl.obj
 0001:00002b00       ??_GMyHeaderCtrl@@UAEPAXI@Z 00403b00 f i MyHeaderCtrl.obj
 0001:00002b20       ??1MyHeaderCtrl@@UAE@XZ    00403b20 f   MyHeaderCtrl.obj
 0001:00002b30       ?_GetBaseMessageMap@MyHeaderCtrl@@KGPBUAFX_MSGMAP@@XZ 00403b30 f   MyHeaderCtrl.obj
 0001:00002b40       ?GetMessageMap@MyHeaderCtrl@@MBEPBUAFX_MSGMAP@@XZ 00403b40 f   MyHeaderCtrl.obj
 0001:00002b50       ?SetSortArrow@MyHeaderCtrl@@QAEXHH@Z 00403b50 f   MyHeaderCtrl.obj
 0001:00002bc0       ?DrawItem@MyHeaderCtrl@@MAEXPAUtagDRAWITEMSTRUCT@@@Z 00403bc0 f   MyHeaderCtrl.obj
 0001:00002fe0       ?Serialize@MyHeaderCtrl@@UAEXAAVCArchive@@@Z 00403fe0 f   MyHeaderCtrl.obj
 0001:00003160       ??_ECGdiObject@@UAEPAXI@Z  00404160 f i MyHeaderCtrl.obj
 0001:00003160       ??_GCGdiObject@@UAEPAXI@Z  00404160 f i MyHeaderCtrl.obj
 0001:00003180       ??1CGdiObject@@UAE@XZ      00404180 f i MyHeaderCtrl.obj
 0001:000031d0       ??1CPen@@UAE@XZ            004041d0 f i MyHeaderCtrl.obj
 0001:00003220       ??1CBrush@@UAE@XZ          00404220 f i MyHeaderCtrl.obj
 0001:00003270       ??_GCRgn@@UAEPAXI@Z        00404270 f i MyHeaderCtrl.obj
 0001:00003270       ??_ECRgn@@UAEPAXI@Z        00404270 f i MyHeaderCtrl.obj
 0001:00003290       ??1CRgn@@UAE@XZ            00404290 f i MyHeaderCtrl.obj
 0001:000032e0       ??0MyListCtrl1@@QAE@XZ     004042e0 f   MyListCtrl1.obj
 0001:000033a0       ??_EMyListCtrl1@@UAEPAXI@Z 004043a0 f i MyListCtrl1.obj
 0001:000033a0       ??_GMyListCtrl1@@UAEPAXI@Z 004043a0 f i MyListCtrl1.obj
 0001:000033c0       ??1MyListCtrl1@@UAE@XZ     004043c0 f   MyListCtrl1.obj
 0001:00003440       ?_GetBaseMessageMap@MyListCtrl1@@KGPBUAFX_MSGMAP@@XZ 00404440 f   MyListCtrl1.obj
 0001:00003450       ?GetMessageMap@MyListCtrl1@@MBEPBUAFX_MSGMAP@@XZ 00404450 f   MyListCtrl1.obj
 0001:00003460       ?GetDispatchMap@MyListCtrl1@@MBEPBUAFX_DISPMAP@@XZ 00404460 f   MyListCtrl1.obj
 0001:00003470       ?GetInterfaceMap@MyListCtrl1@@MBEPBUAFX_INTERFACEMAP@@XZ 00404470 f   MyListCtrl1.obj
 0001:00003480       ?ListCompare@@YGHJJJ@Z     00404480 f   MyListCtrl1.obj
 0001:000039f0       ?ShowColumn@MyListCtrl1@@QAEHH_N@Z 004049f0 f   MyListCtrl1.obj
 0001:00003b90       ?SetColumnWidthAuto@MyListCtrl1@@QAEHH_N@Z 00404b90 f   MyListCtrl1.obj
 0001:00003c30       ?GetColumnState@MyListCtrl1@@IAEAAUColumnState@1@H@Z 00404c30 f   MyListCtrl1.obj
 0001:00003c40       ?IsColumnVisible@MyListCtrl1@@QAE_NH@Z 00404c40 f   MyListCtrl1.obj
 0001:00003c50       ?GetColumnStateCount@MyListCtrl1@@IAEHXZ 00404c50 f   MyListCtrl1.obj
 0001:00003c60       ?InsertColumnState@MyListCtrl1@@IAEXH_NH@Z 00404c60 f   MyListCtrl1.obj
 0001:00003e60       ?DeleteColumnState@MyListCtrl1@@IAEXH@Z 00404e60 f   MyListCtrl1.obj
 0001:00003ea0       ?OnContextMenu@MyListCtrl1@@MAEXPAVCWnd@@VCPoint@@@Z 00404ea0 f   MyListCtrl1.obj
 0001:00004020       ?OnCommand@MyListCtrl1@@MAEHIJ@Z 00405020 f   MyListCtrl1.obj
 0001:00004060       ?OnKeyDown@MyListCtrl1@@MAEXIII@Z 00405060 f   MyListCtrl1.obj
 0001:000040a0       ?OnHeaderBeginResize@MyListCtrl1@@MAEHIPAUtagNMHDR@@PAJ@Z 004050a0 f   MyListCtrl1.obj
 0001:000040d0       ?OnSetColumnWidth@MyListCtrl1@@MAEJIJ@Z 004050d0 f   MyListCtrl1.obj
 0001:00004110       ?OnHeaderEndDrag@MyListCtrl1@@MAEHIPAUtagNMHDR@@PAJ@Z 00405110 f   MyListCtrl1.obj
 0001:000041c0       ?OnHeaderDividerDblClick@MyListCtrl1@@MAEHIPAUtagNMHDR@@PAJ@Z 004051c0 f   MyListCtrl1.obj
 0001:000041e0       ?OnDeleteColumn@MyListCtrl1@@MAEJIJ@Z 004051e0 f   MyListCtrl1.obj
 0001:00004220       ?OnInsertColumn@MyListCtrl1@@MAEJIJ@Z 00405220 f   MyListCtrl1.obj
 0001:00004290       ?PreSubclassWindow@MyListCtrl1@@UAEXXZ 00405290 f   MyListCtrl1.obj
 0001:000042c0       ?SetHeadings@MyListCtrl1@@QAEHABVCString@@@Z 004052c0 f   MyListCtrl1.obj
 0001:000043c0       ?AddItem@MyListCtrl1@@QAAHPBDZZ 004053c0 f   MyListCtrl1.obj
 0001:00004530       ?FreeItemMemory@MyListCtrl1@@IAEXH@Z 00405530 f   MyListCtrl1.obj
 0001:000045b0       ?DeleteAllItems@MyListCtrl1@@QAEHXZ 004055b0 f   MyListCtrl1.obj
 0001:00004600       ?OnColumnClick@MyListCtrl1@@MAEXPAUtagNMHDR@@PAJ@Z 00405600 f   MyListCtrl1.obj
 0001:00004650       ?Sort@MyListCtrl1@@QAEXHH@Z 00405650 f   MyListCtrl1.obj
 0001:00004690       ?OnDestroy@MyListCtrl1@@IAEXXZ 00405690 f   MyListCtrl1.obj
 0001:000046e0       ?SetArray@MyListCtrl1@@IAEHHPAPADPAK1@Z 004056e0 f   MyListCtrl1.obj
 0001:00004730       ?OnPaint@MyListCtrl1@@IAEXXZ 00405730 f   MyListCtrl1.obj
 0001:00004760       ?OnCustomDraw@MyListCtrl1@@IAEXPAUtagNMHDR@@PAJ@Z 00405760 f   MyListCtrl1.obj
 0001:00004870       ?GetColumns@MyListCtrl1@@QAEHXZ 00405870 f   MyListCtrl1.obj
 0001:00004890       ?GetSubItemRect@MyListCtrl1@@QAEHHHHAAVCRect@@@Z 00405890 f   MyListCtrl1.obj
 0001:00004930       ?DrawTextA@MyListCtrl1@@QAEXHHPAVCDC@@KKAAVCRect@@@Z 00405930 f   MyListCtrl1.obj
 0001:00004a50       ?OnSysColorChange@MyListCtrl1@@IAEXXZ 00405a50 f   MyListCtrl1.obj
 0001:00004a90       ?SetItemColor@MyListCtrl1@@QAEXHHKK@Z 00405a90 f   MyListCtrl1.obj
 0001:00004b10       ?UpdateSubItem@MyListCtrl1@@IAEXHH@Z 00405b10 f   MyListCtrl1.obj
 0001:00004ba0       ??1?$CArray@UColumnState@MyListCtrl1@@AAU12@@@UAE@XZ 00405ba0 f i MyListCtrl1.obj
 0001:00004c00       ?Serialize@?$CArray@UColumnState@MyListCtrl1@@AAU12@@@UAEXAAVCArchive@@@Z 00405c00 f i MyListCtrl1.obj
 0001:00004d90       ??_G?$CArray@UColumnState@MyListCtrl1@@AAU12@@@UAEPAXI@Z 00405d90 f i MyListCtrl1.obj
 0001:00004d90       ??_E?$CArray@UColumnState@MyListCtrl1@@AAU12@@@UAEPAXI@Z 00405d90 f i MyListCtrl1.obj
 0001:00004db0       ?SetSize@?$CArray@UColumnState@MyListCtrl1@@AAU12@@@QAEXHH@Z 00405db0 f i MyListCtrl1.obj
 0001:00004ef0       ?ConstructElements@@YGXPAUColumnState@MyListCtrl1@@H@Z 00405ef0 f i MyListCtrl1.obj
 0001:00004f40       ??_9@$BNM@AE               00405f40 f i MyListCtrl1.obj
 0001:00004f50       ??_9@$BOA@AE               00405f50 f i MyListCtrl1.obj
 0001:00004f60       ??_9@$BME@AE               00405f60 f i MyListCtrl1.obj
 0001:00004f70       ??_9@$BOE@AE               00405f70 f i MyListCtrl1.obj
 0001:00004f80       ??_9@$BMI@AE               00405f80 f i MyListCtrl1.obj
 0001:00004f90       ??_9@$BMM@AE               00405f90 f i MyListCtrl1.obj
 0001:00004fa0       ??_9@$BNA@AE               00405fa0 f i MyListCtrl1.obj
 0001:00004fb0       ??_9@$BNE@AE               00405fb0 f i MyListCtrl1.obj
 0001:00004fc0       ??_9@$BNI@AE               00405fc0 f i MyListCtrl1.obj
 0001:00004fd0       ??_ECMenu@@UAEPAXI@Z       00405fd0 f i MyListCtrl1.obj
 0001:00004fd0       ??_GCMenu@@UAEPAXI@Z       00405fd0 f i MyListCtrl1.obj
 0001:00004ff0       ??1CMenu@@UAE@XZ           00405ff0 f i MyListCtrl1.obj
 0001:00005040       ?OnRButtonDown@CWnd@@IAEXIVCPoint@@@Z 00406040 f i MyListCtrl1.obj
 0001:00005050       ??_GCListCtrl@@UAEPAXI@Z   00406050 f i MyListCtrl1.obj
 0001:00005050       ??_ECListCtrl@@UAEPAXI@Z   00406050 f i MyListCtrl1.obj
 0001:00005070       ?_GetBaseMessageMap@CNetworksApp@@KGPBUAFX_MSGMAP@@XZ 00406070 f   networks.obj
 0001:00005080       ?GetMessageMap@CNetworksApp@@MBEPBUAFX_MSGMAP@@XZ 00406080 f   networks.obj
 0001:00005090       ??0CNetworksApp@@QAE@XZ    00406090 f   networks.obj
 0001:00005170       ??_ECNetworksApp@@UAEPAXI@Z 00406170 f i networks.obj
 0001:00005170       ??_GCNetworksApp@@UAEPAXI@Z 00406170 f i networks.obj
 0001:00005190       ??1CNetworksApp@@UAE@XZ    00406190 f i networks.obj
 0001:00005230       ?InitInstance@CNetworksApp@@UAEHXZ 00406230 f   networks.obj
 0001:000053a0       ??0CTime@@QAE@ABV0@@Z      004063a0 f i networks.obj
 0001:000053b0       ??0CAboutDlg@@QAE@XZ       004063b0 f   networksDlg.obj
 0001:000053d0       ??_GCAboutDlg@@UAEPAXI@Z   004063d0 f i networksDlg.obj
 0001:000053d0       ??_ECAboutDlg@@UAEPAXI@Z   004063d0 f i networksDlg.obj
 0001:000053f0       ??1CAboutDlg@@UAE@XZ       004063f0 f i networksDlg.obj
 0001:00005400       ?DoDataExchange@CAboutDlg@@MAEXPAVCDataExchange@@@Z 00406400 f   networksDlg.obj
 0001:00005410       ?GetMessageMap@CAboutDlg@@MBEPBUAFX_MSGMAP@@XZ 00406410 f   networksDlg.obj
 0001:00005420       ??0CNetworksDlg@@QAE@PAVCWnd@@@Z 00406420 f   networksDlg.obj
 0001:00005f20       ??_GCNetworksDlg@@UAEPAXI@Z 00406f20 f i networksDlg.obj
 0001:00005f20       ??_ECNetworksDlg@@UAEPAXI@Z 00406f20 f i networksDlg.obj
 0001:00005f40       ??1UnknowType@@UAE@XZ      00406f40 f i networksDlg.obj
 0001:00005f90       ??1CNetworksDlg@@UAE@XZ    00406f90 f i networksDlg.obj
 0001:00006340       ?DoDataExchange@CNetworksDlg@@MAEXPAVCDataExchange@@@Z 00407340 f   networksDlg.obj
 0001:00006560       ?GetMessageMap@CNetworksDlg@@MBEPBUAFX_MSGMAP@@XZ 00407560 f   networksDlg.obj
 0001:00006570       ?OnInitDialog@CNetworksDlg@@MAEHXZ 00407570 f   networksDlg.obj
 0001:00007220       ?OnSysCommand@CNetworksDlg@@IAEXIJ@Z 00408220 f   networksDlg.obj
 0001:000072a0       ?OnPaint@CNetworksDlg@@IAEXXZ 004082a0 f   networksDlg.obj
 0001:00007360       ?OnQueryDragIcon@CNetworksDlg@@IAEPAUHICON__@@XZ 00408360 f   networksDlg.obj
 0001:00007370       ?PreTranslateMessage@CNetworksDlg@@UAEHPAUtagMSG@@@Z 00408370 f   networksDlg.obj
 0001:000073b0       ?NbtstatThread@CNetworksDlg@@SAIPAX@Z 004083b0 f   networksDlg.obj
 0001:00007980       ?sshSrv@CNetworksDlg@@QAEXVCString@@0H@Z 00408980 f   networksDlg.obj
 0001:00007c30       ?GetStatusThread@CNetworksDlg@@SAIPAX@Z 00408c30 f   networksDlg.obj
 0001:0000b580       ?AfxGetApp@@YGPAVCWinApp@@XZ 0040c580 f i networksDlg.obj
 0001:0000b590       ?OnReceive@CNetworksDlg@@QAEXXZ 0040c590 f   networksDlg.obj
 0001:0000b620       ?OnButtonRefresh@CNetworksDlg@@IAEXXZ 0040c620 f   networksDlg.obj
 0001:0000b880       ?ModifyOnerecordThread@CNetworksDlg@@SAIPAX@Z 0040c880 f   networksDlg.obj
 0001:0000d620       ?SingleRebootThread@CNetworksDlg@@SAIPAX@Z 0040e620 f   networksDlg.obj
 0001:0000d780       ?MultiRebootThread@CNetworksDlg@@SAIPAX@Z 0040e780 f   networksDlg.obj
 0001:0000d970       ?OnRefresh@CNetworksDlg@@IAEXXZ 0040e970 f   networksDlg.obj
 0001:0000dbb0       ?OnSingleUpdate@CNetworksDlg@@IAEXXZ 0040ebb0 f   networksDlg.obj
 0001:0000dbd0       ?OnSingleReboot@CNetworksDlg@@IAEXXZ 0040ebd0 f   networksDlg.obj
 0001:0000dbf0       ?OnMutipleReboot@CNetworksDlg@@IAEXXZ 0040ebf0 f   networksDlg.obj
 0001:0000dc90       ?OnClose@CNetworksDlg@@IAEXXZ 0040ec90 f   networksDlg.obj
 0001:0000dcc0       ?OnMenuitemEng@CNetworksDlg@@IAEXXZ 0040ecc0 f   networksDlg.obj
 0001:0000dfc0       ?OnMenuitemCN@CNetworksDlg@@IAEXXZ 0040efc0 f   networksDlg.obj
 0001:0000e2c0       ?WriteINI@CNetworksDlg@@QAEXXZ 0040f2c0 f   networksDlg.obj
 0001:0000e810       ?OnButtonStop@CNetworksDlg@@IAEXXZ 0040f810 f   networksDlg.obj
 0001:0000e970       ?OnButtonSuspend@CNetworksDlg@@IAEXXZ 0040f970 f   networksDlg.obj
 0001:0000ea30       ?OnMenuitemModifyPassword@CNetworksDlg@@IAEXXZ 0040fa30 f   networksDlg.obj
 0001:0000eaa0       ?OnDblclkListIpStatus@CNetworksDlg@@IAEXPAUtagNMHDR@@PAJ@Z 0040faa0 f   networksDlg.obj
 0001:0000ec50       ?OnSelchangeComboCoinType@CNetworksDlg@@IAEXXZ 0040fc50 f   networksDlg.obj
 0001:0000f210       ?MachineType@CNetworksDlg@@QAEHVCString@@PAV2@@Z 00410210 f   networksDlg.obj
 0001:0000f530       ?MultiLkMachine_GetStatus@CNetworksDlg@@QAEXVCString@@H0@Z 00410530 f   networksDlg.obj
 0001:00014940       ??_ECStatic@@UAEPAXI@Z     00415940 f i networksDlg.obj
 0001:00014940       ??_GCStatic@@UAEPAXI@Z     00415940 f i networksDlg.obj
 0001:00014960       ??_ECButton@@UAEPAXI@Z     00415960 f i networksDlg.obj
 0001:00014960       ??_GCButton@@UAEPAXI@Z     00415960 f i networksDlg.obj
 0001:00014980       ??_ECListBox@@UAEPAXI@Z    00415980 f i networksDlg.obj
 0001:00014980       ??_GCListBox@@UAEPAXI@Z    00415980 f i networksDlg.obj
 0001:000149a0       ??_GCComboBox@@UAEPAXI@Z   004159a0 f i networksDlg.obj
 0001:000149a0       ??_ECComboBox@@UAEPAXI@Z   004159a0 f i networksDlg.obj
 0001:000149c0       ?OnSelchangeTab1@CNetworksDlg@@IAEXPAUtagNMHDR@@PAJ@Z 004159c0 f   networksDlg.obj
 0001:00014ab0       ?OnButton3@CNetworksDlg@@IAEXXZ 00415ab0 f   networksDlg.obj
 0001:00014ac0       ?countMachine@CNetworksDlg@@QAEXXZ 00415ac0 f   networksDlg.obj
 0001:00014e20       ??1?$CMap@KAAKKAAK@@UAE@XZ 00415e20 f i networksDlg.obj
 0001:00014eb0       ?Serialize@?$CMap@KAAKKAAK@@UAEXAAVCArchive@@@Z 00415eb0 f i networksDlg.obj
 0001:000150b0       ??_E?$CMap@KAAKKAAK@@UAEPAXI@Z 004160b0 f i networksDlg.obj
 0001:000150b0       ??_G?$CMap@KAAKKAAK@@UAEPAXI@Z 004160b0 f i networksDlg.obj
 0001:000150d0       ??_ECSpinButtonCtrl@@UAEPAXI@Z 004160d0 f i networksDlg.obj
 0001:000150d0       ??_GCSpinButtonCtrl@@UAEPAXI@Z 004160d0 f i networksDlg.obj
 0001:000150f0       ??_GCTabCtrl@@UAEPAXI@Z    004160f0 f i networksDlg.obj
 0001:000150f0       ??_ECTabCtrl@@UAEPAXI@Z    004160f0 f i networksDlg.obj
 0001:00015110       ??_ECIPAddressCtrl@@UAEPAXI@Z 00416110 f i networksDlg.obj
 0001:00015110       ??_GCIPAddressCtrl@@UAEPAXI@Z 00416110 f i networksDlg.obj
 0001:00015130       ??0CUDP@@QAE@XZ            00416130 f   UDP.obj
 0001:00015150       ??_ECUDP@@UAEPAXI@Z        00416150 f i UDP.obj
 0001:00015150       ??_GCUDP@@UAEPAXI@Z        00416150 f i UDP.obj
 0001:00015170       ??1CUDP@@UAE@XZ            00416170 f   UDP.obj
 0001:00015180       ?OnReceive@CUDP@@UAEXH@Z   00416180 f   UDP.obj
 0001:000151a0       ??0UnknowType@@QAE@PAVCWnd@@@Z 004161a0 f   UnknowType.obj
 0001:00015200       ??_EUnknowType@@UAEPAXI@Z  00416200 f i UnknowType.obj
 0001:00015200       ??_GUnknowType@@UAEPAXI@Z  00416200 f i UnknowType.obj
 0001:00015220       ?DoDataExchange@UnknowType@@MAEXPAVCDataExchange@@@Z 00416220 f   UnknowType.obj
 0001:00015240       ?GetMessageMap@UnknowType@@MBEPBUAFX_MSGMAP@@XZ 00416240 f   UnknowType.obj
 0001:00015250       ?OnDblclkListUnknowtype@UnknowType@@IAEXPAUtagNMHDR@@PAJ@Z 00416250 f   UnknowType.obj
 0001:000153f0       ?get_Utf8@CkString@@QBE_NXZ 004163f0 f   ChilkatDbgDll:CkString.obj
 0001:00015408       ?put_Utf8@CkString@@QAEX_N@Z 00416408 f   ChilkatDbgDll:CkString.obj
 0001:00015425       ??0CkString@@QAE@XZ        00416425 f   ChilkatDbgDll:CkString.obj
 0001:0001549e       ??1CkString@@UAE@XZ        0041649e f   ChilkatDbgDll:CkString.obj
 0001:00015589       ??0CkString@@QAE@ABV0@@Z   00416589 f   ChilkatDbgDll:CkString.obj
 0001:0001563a       ??4CkString@@QAEAAV0@PBD@Z 0041663a f   ChilkatDbgDll:CkString.obj
 0001:00015693       ??BCkString@@QAEPBDXZ      00416693 f   ChilkatDbgDll:CkString.obj
 0001:000156b7       ??BCkString@@QAEPBGXZ      004166b7 f   ChilkatDbgDll:CkString.obj
 0001:000156db       ??4CkString@@QAEAAV0@H@Z   004166db f   ChilkatDbgDll:CkString.obj
 0001:00015728       ??4CkString@@QAEAAV0@_N@Z  00416728 f   ChilkatDbgDll:CkString.obj
 0001:00015792       ??4CkString@@QAEAAV0@D@Z   00416792 f   ChilkatDbgDll:CkString.obj
 0001:000157f0       ??4CkString@@QAEAAV0@ABV0@@Z 004167f0 f   ChilkatDbgDll:CkString.obj
 0001:00015853       ?setStringU@CkString@@QAEXPBG@Z 00416853 f   ChilkatDbgDll:CkString.obj
 0001:00015895       ?appendU@CkString@@QAEXPBG@Z 00416895 f   ChilkatDbgDll:CkString.obj
 0001:000158df       ?appendNU@CkString@@QAEXPBGH@Z 004168df f   ChilkatDbgDll:CkString.obj
 0001:00015935       ?getUtf16@CkString@@QBEPBGXZ 00416935 f   ChilkatDbgDll:CkString.obj
 0001:00015987       ?getUnicode@CkString@@QBEPBGXZ 00416987 f   ChilkatDbgDll:CkString.obj
 0001:000159d9       ?getAnsi@CkString@@QBEPBDXZ 004169d9 f   ChilkatDbgDll:CkString.obj
 0001:00015a2b       ?getUtf8@CkString@@QBEPBDXZ 00416a2b f   ChilkatDbgDll:CkString.obj
 0001:00015a7d       ?getEncW@CkString@@QAEPBDPBG@Z 00416a7d f   ChilkatDbgDll:CkString.obj
 0001:00015b2a       ?getEnc@CkString@@QAEPBDPBD@Z 00416b2a f   ChilkatDbgDll:CkString.obj
 0001:00015c1c       ?beginsWithW@CkString@@QBE_NPBG@Z 00416c1c f   ChilkatDbgDll:CkString.obj
 0001:00015ced       ?beginsWith@CkString@@QBE_NPBD@Z 00416ced f   ChilkatDbgDll:CkString.obj
 0001:00015d57       ?loadFileW@CkString@@QAE_NPBG0@Z 00416d57 f   ChilkatDbgDll:CkString.obj
 0001:00015eb1       ?loadFile@CkString@@QAE_NPBD0@Z 00416eb1 f   ChilkatDbgDll:CkString.obj
 0001:0001613c       ?endsWithW@CkString@@QBE_NPBG@Z 0041713c f   ChilkatDbgDll:CkString.obj
 0001:00016205       ?endsWith@CkString@@QBE_NPBD@Z 00417205 f   ChilkatDbgDll:CkString.obj
 0001:000162f9       ?endsWithStr@CkString@@QBE_NAAV1@@Z 004172f9 f   ChilkatDbgDll:CkString.obj
 0001:00016344       ?beginsWithStr@CkString@@QBE_NAAV1@@Z 00417344 f   ChilkatDbgDll:CkString.obj
 0001:00016391       ?indexOfW@CkString@@QBEHPBG@Z 00417391 f   ChilkatDbgDll:CkString.obj
 0001:0001645b       ?indexOf@CkString@@QBEHPBD@Z 0041745b f   ChilkatDbgDll:CkString.obj
 0001:00016539       ?indexOfStr@CkString@@QBEHAAV1@@Z 00417539 f   ChilkatDbgDll:CkString.obj
 0001:00016585       ?replaceAll@CkString@@QAEHAAV1@0@Z 00417585 f   ChilkatDbgDll:CkString.obj
 0001:000165d9       ?replaceFirst@CkString@@QAE_NAAV1@0@Z 004175d9 f   ChilkatDbgDll:CkString.obj
 0001:0001662d       ?createNew@CkString@@SAPAV1@XZ 0041762d f   ChilkatDbgDll:CkString.obj
 0001:000166e8       ?substring@CkString@@QBEPAV1@HH@Z 004176e8 f   ChilkatDbgDll:CkString.obj
 0001:000167a5       ?getDelimitedW@CkString@@QAEPAV1@PBG00@Z 004177a5 f   ChilkatDbgDll:CkString.obj
 0001:00016a98       ?getDelimited@CkString@@QAEPAV1@PBD00@Z 00417a98 f   ChilkatDbgDll:CkString.obj
 0001:00016dde       ?matchesStr@CkString@@QBE_NAAV1@@Z 00417dde f   ChilkatDbgDll:CkString.obj
 0001:00016e2b       ?matches@CkString@@QBE_NPBD@Z 00417e2b f   ChilkatDbgDll:CkString.obj
 0001:00016e8f       ?matchesW@CkString@@QBE_NPBG@Z 00417e8f f   ChilkatDbgDll:CkString.obj
 0001:00016f5a       ?matchesNoCaseW@CkString@@QBE_NPBG@Z 00417f5a f   ChilkatDbgDll:CkString.obj
 0001:00017025       ?matchesNoCase@CkString@@QBE_NPBD@Z 00418025 f   ChilkatDbgDll:CkString.obj
 0001:00017089       ?getChar@CkString@@QBEPAV1@H@Z 00418089 f   ChilkatDbgDll:CkString.obj
 0001:000170b5       ?removeAll@CkString@@QAEHAAV1@@Z 004180b5 f   ChilkatDbgDll:CkString.obj
 0001:0001713b       ?removeFirst@CkString@@QAE_NAAV1@@Z 0041813b f   ChilkatDbgDll:CkString.obj
 0001:000171c1       ?chopAtStr@CkString@@QAEXAAV1@@Z 004181c1 f   ChilkatDbgDll:CkString.obj
 0001:00017228       ?obfuscate@CkString@@QAEXXZ 00418228 f   ChilkatDbgDll:CkString.obj
 0001:00017266       ?unobfuscate@CkString@@QAEXXZ 00418266 f   ChilkatDbgDll:CkString.obj
 0001:000172a4       ?urlDecodeW@CkString@@QAEXPBG@Z 004182a4 f   ChilkatDbgDll:CkString.obj
 0001:0001735f       ?urlEncodeW@CkString@@QAEXPBG@Z 0041835f f   ChilkatDbgDll:CkString.obj
 0001:0001741a       ?base64DecodeW@CkString@@QAEXPBG@Z 0041841a f   ChilkatDbgDll:CkString.obj
 0001:000174d5       ?base64EncodeW@CkString@@QAEXPBG@Z 004184d5 f   ChilkatDbgDll:CkString.obj
 0001:00017590       ?qpDecodeW@CkString@@QAEXPBG@Z 00418590 f   ChilkatDbgDll:CkString.obj
 0001:0001764b       ?qpEncodeW@CkString@@QAEXPBG@Z 0041864b f   ChilkatDbgDll:CkString.obj
 0001:00017706       ?hexDecodeW@CkString@@QAEXPBG@Z 00418706 f   ChilkatDbgDll:CkString.obj
 0001:000177c1       ?hexEncodeW@CkString@@QAEXPBG@Z 004187c1 f   ChilkatDbgDll:CkString.obj
 0001:0001787c       ?urlDecode@CkString@@QAEXPBD@Z 0041887c f   ChilkatDbgDll:CkString.obj
 0001:000178c0       ?urlEncode@CkString@@QAEXPBD@Z 004188c0 f   ChilkatDbgDll:CkString.obj
 0001:00017904       ?base64Decode@CkString@@QAEXPBD@Z 00418904 f   ChilkatDbgDll:CkString.obj
 0001:00017948       ?base64Encode@CkString@@QAEXPBD@Z 00418948 f   ChilkatDbgDll:CkString.obj
 0001:0001798c       ?qpDecode@CkString@@QAEXPBD@Z 0041898c f   ChilkatDbgDll:CkString.obj
 0001:000179d0       ?qpEncode@CkString@@QAEXPBD@Z 004189d0 f   ChilkatDbgDll:CkString.obj
 0001:00017a14       ?hexDecode@CkString@@QAEXPBD@Z 00418a14 f   ChilkatDbgDll:CkString.obj
 0001:00017a58       ?hexEncode@CkString@@QAEXPBD@Z 00418a58 f   ChilkatDbgDll:CkString.obj
 0001:00017a9c       ?entityDecode@CkString@@QAEXXZ 00418a9c f   ChilkatDbgDll:CkString.obj
 0001:00017ada       ?entityEncode@CkString@@QAEXXZ 00418ada f   ChilkatDbgDll:CkString.obj
 0001:00017b18       ?appendStr@CkString@@QAEXABV1@@Z 00418b18 f   ChilkatDbgDll:CkString.obj
 0001:00017b74       ?equalsStr@CkString@@QBE_NAAV1@@Z 00418b74 f   ChilkatDbgDll:CkString.obj
 0001:00017bd0       ?equalsIgnoreCaseStr@CkString@@QBE_NAAV1@@Z 00418bd0 f   ChilkatDbgDll:CkString.obj
 0001:00017c2c       ?equals@CkString@@QBE_NPBD@Z 00418c2c f   ChilkatDbgDll:CkString.obj
 0001:00017c8c       ?equalsIgnoreCase@CkString@@QBE_NPBD@Z 00418c8c f   ChilkatDbgDll:CkString.obj
 0001:00017cec       ?equalsW@CkString@@QBE_NPBG@Z 00418cec f   ChilkatDbgDll:CkString.obj
 0001:00017dc4       ?equalsIgnoreCaseW@CkString@@QBE_NPBG@Z 00418dc4 f   ChilkatDbgDll:CkString.obj
 0001:00017e9c       ?charAt@CkString@@QBEDH@Z  00418e9c f   ChilkatDbgDll:CkString.obj
 0001:00017ee2       ?charAtU@CkString@@QBEGH@Z 00418ee2 f   ChilkatDbgDll:CkString.obj
 0001:00017f29       ?intValue@CkString@@QBEHXZ 00418f29 f   ChilkatDbgDll:CkString.obj
 0001:00017f69       ?doubleValue@CkString@@QBENXZ 00418f69 f   ChilkatDbgDll:CkString.obj
 0001:00017fad       ?clear@CkString@@QAEXXZ    00418fad f   ChilkatDbgDll:CkString.obj
 0001:00017feb       ?prependW@CkString@@QAEXPBG@Z 00418feb f   ChilkatDbgDll:CkString.obj
 0001:000180af       ?prepend@CkString@@QAEXPBD@Z 004190af f   ChilkatDbgDll:CkString.obj
 0001:0001810d       ?isInternalPtr@CkString@@QAE_NPBD@Z 0041910d f   ChilkatDbgDll:CkString.obj
 0001:00018197       ?appendInt@CkString@@QAEXH@Z 00419197 f   ChilkatDbgDll:CkString.obj
 0001:000181db       ?append@CkString@@QAEXPBD@Z 004191db f   ChilkatDbgDll:CkString.obj
 0001:000182aa       ?appendUtf8@CkString@@QAEXPBD@Z 004192aa f   ChilkatDbgDll:CkString.obj
 0001:000182ee       ?appendAnsi@CkString@@QAEXPBD@Z 004192ee f   ChilkatDbgDll:CkString.obj
 0001:000183a0       ?countCharOccurances@CkString@@QAEHD@Z 004193a0 f   ChilkatDbgDll:CkString.obj
 0001:00018400       ?appendCurrentDateRfc822@CkString@@QAEXXZ 00419400 f   ChilkatDbgDll:CkString.obj
 0001:000184bd       ?appendDateRfc822@CkString@@QAEXAAU_SYSTEMTIME@@@Z 004194bd f   ChilkatDbgDll:CkString.obj
 0001:0001859a       ?get_NumArabic@CkString@@QAEHXZ 0041959a f   ChilkatDbgDll:CkString.obj
 0001:0001865f       ?get_NumAscii@CkString@@QAEHXZ 0041965f f   ChilkatDbgDll:CkString.obj
 0001:00018724       ?get_NumCentralEuro@CkString@@QAEHXZ 00419724 f   ChilkatDbgDll:CkString.obj
 0001:000187e9       ?get_NumChinese@CkString@@QAEHXZ 004197e9 f   ChilkatDbgDll:CkString.obj
 0001:000188ae       ?get_NumCyrillic@CkString@@QAEHXZ 004198ae f   ChilkatDbgDll:CkString.obj
 0001:00018973       ?get_NumGreek@CkString@@QAEHXZ 00419973 f   ChilkatDbgDll:CkString.obj
 0001:00018a38       ?get_NumHebrew@CkString@@QAEHXZ 00419a38 f   ChilkatDbgDll:CkString.obj
 0001:00018afd       ?get_NumJapanese@CkString@@QAEHXZ 00419afd f   ChilkatDbgDll:CkString.obj
 0001:00018bc2       ?get_NumKorean@CkString@@QAEHXZ 00419bc2 f   ChilkatDbgDll:CkString.obj
 0001:00018c87       ?get_NumLatin@CkString@@QAEHXZ 00419c87 f   ChilkatDbgDll:CkString.obj
 0001:00018d4c       ?get_NumThai@CkString@@QAEHXZ 00419d4c f   ChilkatDbgDll:CkString.obj
 0001:00018e11       ?appendDateRfc822Gmt@CkString@@QAEXAAU_SYSTEMTIME@@@Z 00419e11 f   ChilkatDbgDll:CkString.obj
 0001:00018eee       ?appendEnc@CkString@@QAEXPBD0@Z 00419eee f   ChilkatDbgDll:CkString.obj
 0001:0001907e       ?appendRandom@CkString@@QAEXHPBD@Z 0041a07e f   ChilkatDbgDll:CkString.obj
 0001:00019192       ?isEmpty@CkString@@QAE_NXZ 0041a192 f   ChilkatDbgDll:CkString.obj
 0001:000191d2       ?appendChar@CkString@@QAEXD@Z 0041a1d2 f   ChilkatDbgDll:CkString.obj
 0001:00019227       ?appendCharU@CkString@@QAEXG@Z 0041a227 f   ChilkatDbgDll:CkString.obj
 0001:00019282       ?minimizeMemory@CkString@@QAEXXZ 0041a282 f   ChilkatDbgDll:CkString.obj
 0001:000192c0       ?appendN@CkString@@QAEXPBDK@Z 0041a2c0 f   ChilkatDbgDll:CkString.obj
 0001:000193a3       ?appendHexData@CkString@@QAEXPBEK@Z 0041a3a3 f   ChilkatDbgDll:CkString.obj
 0001:000193eb       ?appendHexData@CkString@@QAEXPBDK@Z 0041a3eb f   ChilkatDbgDll:CkString.obj
 0001:00019433       ?clone@CkString@@QBEPAV1@XZ 0041a433 f   ChilkatDbgDll:CkString.obj
 0001:0001947e       ?setStr@CkString@@QAEXAAV1@@Z 0041a47e f   ChilkatDbgDll:CkString.obj
 0001:000194ad       ?setString@CkString@@QAEXPBD@Z 0041a4ad f   ChilkatDbgDll:CkString.obj
 0001:0001950b       ?setStringAnsi@CkString@@QAEXPBD@Z 0041a50b f   ChilkatDbgDll:CkString.obj
 0001:0001954f       ?setStringUtf8@CkString@@QAEXPBD@Z 0041a54f f   ChilkatDbgDll:CkString.obj
 0001:00019593       ?compareStr@CkString@@QBEHABV1@@Z 0041a593 f   ChilkatDbgDll:CkString.obj
 0001:000195ef       ?getString@CkString@@QBEPBDXZ 0041a5ef f   ChilkatDbgDll:CkString.obj
 0001:00019645       ?getSizeAnsi@CkString@@QBEHXZ 0041a645 f   ChilkatDbgDll:CkString.obj
 0001:00019685       ?getSizeUtf8@CkString@@QBEHXZ 0041a685 f   ChilkatDbgDll:CkString.obj
 0001:000196c5       ?getSizeUnicode@CkString@@QBEHXZ 0041a6c5 f   ChilkatDbgDll:CkString.obj
 0001:00019705       ?getNumChars@CkString@@QBEHXZ 0041a705 f   ChilkatDbgDll:CkString.obj
 0001:00019745       ?trim@CkString@@QAEXXZ     0041a745 f   ChilkatDbgDll:CkString.obj
 0001:00019783       ?trimInsideSpaces@CkString@@QAEXXZ 0041a783 f   ChilkatDbgDll:CkString.obj
 0001:000197c1       ?trim2@CkString@@QAEXXZ    0041a7c1 f   ChilkatDbgDll:CkString.obj
 0001:000197ff       ?toCRLF@CkString@@QAEXXZ   0041a7ff f   ChilkatDbgDll:CkString.obj
 0001:0001983d       ?toLF@CkString@@QAEXXZ     0041a83d f   ChilkatDbgDll:CkString.obj
 0001:0001987b       ?replaceAllOccurancesW@CkString@@QAEHPBG0@Z 0041a87b f   ChilkatDbgDll:CkString.obj
 0001:000199a3       ?replaceAllOccurancesBetween@CkString@@QAEHPBD000@Z 0041a9a3 f   ChilkatDbgDll:CkString.obj
 0001:00019aeb       ?replaceAllOccurancesBetweenW@CkString@@QAEHPBG000@Z 0041aaeb f   ChilkatDbgDll:CkString.obj
 0001:00019cc7       ?replaceAllOccurances@CkString@@QAEHPBD0@Z 0041acc7 f   ChilkatDbgDll:CkString.obj
 0001:00019de7       ?replaceFirstOccuranceW@CkString@@QAE_NPBG0@Z 0041ade7 f   ChilkatDbgDll:CkString.obj
 0001:00019f0c       ?replaceFirstOccurance@CkString@@QAE_NPBD0@Z 0041af0c f   ChilkatDbgDll:CkString.obj
 0001:0001a02c       ?eliminateChar@CkString@@QAEXDH@Z 0041b02c f   ChilkatDbgDll:CkString.obj
 0001:0001a0f9       ?lastChar@CkString@@QAEDXZ 0041b0f9 f   ChilkatDbgDll:CkString.obj
 0001:0001a14b       ?shorten@CkString@@QAEXH@Z 0041b14b f   ChilkatDbgDll:CkString.obj
 0001:0001a18f       ?toLowerCase@CkString@@QAEXXZ 0041b18f f   ChilkatDbgDll:CkString.obj
 0001:0001a1cd       ?toUpperCase@CkString@@QAEXXZ 0041b1cd f   ChilkatDbgDll:CkString.obj
 0001:0001a20b       ?encodeXMLSpecial@CkString@@QAEXXZ 0041b20b f   ChilkatDbgDll:CkString.obj
 0001:0001a249       ?decodeXMLSpecial@CkString@@QAEXXZ 0041b249 f   ChilkatDbgDll:CkString.obj
 0001:0001a287       ?containsSubstring@CkString@@QBE_NPBD@Z 0041b287 f   ChilkatDbgDll:CkString.obj
 0001:0001a364       ?containsSubstringNoCase@CkString@@QBE_NPBD@Z 0041b364 f   ChilkatDbgDll:CkString.obj
 0001:0001a3c4       ?containsSubstringNoCaseW@CkString@@QBE_NPBG@Z 0041b3c4 f   ChilkatDbgDll:CkString.obj
 0001:0001a4a1       ?containsSubstringW@CkString@@QBE_NPBG@Z 0041b4a1 f   ChilkatDbgDll:CkString.obj
 0001:0001a57e       ?appendLastWindowsError@CkString@@QAEXXZ 0041b57e f   ChilkatDbgDll:CkString.obj
 0001:0001a5bc       ?splitAtWS@CkString@@QBEPAVCkStringArray@@XZ 0041b5bc f   ChilkatDbgDll:CkString.obj
 0001:0001a5eb       ?removeChunk@CkString@@QAEXHH@Z 0041b5eb f   ChilkatDbgDll:CkString.obj
 0001:0001a633       ?removeCharOccurances@CkString@@QAEXD@Z 0041b633 f   ChilkatDbgDll:CkString.obj
 0001:0001a677       ?removeCharOccurancesU@CkString@@QAEXG@Z 0041b677 f   ChilkatDbgDll:CkString.obj
 0001:0001a6bc       ?replaceChar@CkString@@QAEXDD@Z 0041b6bc f   ChilkatDbgDll:CkString.obj
 0001:0001a704       ?replaceCharU@CkString@@QAEXGG@Z 0041b704 f   ChilkatDbgDll:CkString.obj
 0001:0001a74e       ?chopAtFirstChar@CkString@@QAEXD@Z 0041b74e f   ChilkatDbgDll:CkString.obj
 0001:0001a792       ?saveToFileW@CkString@@QAE_NPBG0@Z 0041b792 f   ChilkatDbgDll:CkString.obj
 0001:0001a8ec       ?saveToFile@CkString@@QAE_NPBD0@Z 0041b8ec f   ChilkatDbgDll:CkString.obj
 0001:0001aad2       ?split@CkString@@QBEPAVCkStringArray@@D_N00@Z 0041bad2 f   ChilkatDbgDll:CkString.obj
 0001:0001ad36       ?split2W@CkString@@QBEPAVCkStringArray@@PBG_N11@Z 0041bd36 f   ChilkatDbgDll:CkString.obj
 0001:0001adef       ?split2@CkString@@QBEPAVCkStringArray@@PBD_N11@Z 0041bdef f   ChilkatDbgDll:CkString.obj
 0001:0001b053       ?tokenizeW@CkString@@QBEPAVCkStringArray@@PBG@Z 0041c053 f   ChilkatDbgDll:CkString.obj
 0001:0001b100       ?tokenize@CkString@@QBEPAVCkStringArray@@PBD@Z 0041c100 f   ChilkatDbgDll:CkString.obj
 0001:0001b350       ??_ECkString@@UAEPAXI@Z    0041c350 f i ChilkatDbgDll:CkString.obj
 0001:0001b350       ??_GCkString@@UAEPAXI@Z    0041c350 f i ChilkatDbgDll:CkString.obj
 0001:0001b390       ??0CkSsh@@AAE@ABV0@@Z      0041c390 f   ChilkatDbgDll:CkSsh.obj
 0001:0001b3c2       ??4CkSsh@@AAEAAV0@ABV0@@Z  0041c3c2 f   ChilkatDbgDll:CkSsh.obj
 0001:0001b3d9       ??1CkSsh@@UAE@XZ           0041c3d9 f   ChilkatDbgDll:CkSsh.obj
 0001:0001b494       ?createNew@CkSsh@@SAPAV1@XZ 0041c494 f   ChilkatDbgDll:CkSsh.obj
 0001:0001b54f       ?inject@CkSsh@@QAEXPAX@Z   0041c54f f   ChilkatDbgDll:CkSsh.obj
 0001:0001b5f4       ?dispose@CkSsh@@QAEXXZ     0041c5f4 f   ChilkatDbgDll:CkSsh.obj
 0001:0001b638       ??0CkSsh@@QAE@XZ           0041c638 f   ChilkatDbgDll:CkSsh.obj
 0001:0001b6cf       ?get_EventCallbackObject@CkSsh@@QBEPAVCkBaseProgress@@XZ 0041c6cf f   ChilkatDbgDll:CkSsh.obj
 0001:0001b6e7       ?put_EventCallbackObject@CkSsh@@QAEXPAVCkBaseProgress@@@Z 0041c6e7 f   ChilkatDbgDll:CkSsh.obj
 0001:0001b704       ?get_ChannelOpenFailCode@CkSsh@@QAEHXZ 0041c704 f   ChilkatDbgDll:CkSsh.obj
 0001:0001b73a       ?get_ChannelOpenFailReason@CkSsh@@QAEXAAVCkString@@@Z 0041c73a f   ChilkatDbgDll:CkSsh.obj
 0001:0001b788       ?channelOpenFailReason@CkSsh@@QAEPBDXZ 0041c788 f   ChilkatDbgDll:CkSsh.obj
 0001:0001b7fe       ?get_ClientIdentifier@CkSsh@@QAEXAAVCkString@@@Z 0041c7fe f   ChilkatDbgDll:CkSsh.obj
 0001:0001b84c       ?clientIdentifier@CkSsh@@QAEPBDXZ 0041c84c f   ChilkatDbgDll:CkSsh.obj
 0001:0001b8c2       ?put_ClientIdentifier@CkSsh@@QAEXPBD@Z 0041c8c2 f   ChilkatDbgDll:CkSsh.obj
 0001:0001b977       ?get_ClientIpAddress@CkSsh@@QAEXAAVCkString@@@Z 0041c977 f   ChilkatDbgDll:CkSsh.obj
 0001:0001b9c5       ?clientIpAddress@CkSsh@@QAEPBDXZ 0041c9c5 f   ChilkatDbgDll:CkSsh.obj
 0001:0001ba3b       ?put_ClientIpAddress@CkSsh@@QAEXPBD@Z 0041ca3b f   ChilkatDbgDll:CkSsh.obj
 0001:0001baf0       ?get_ConnectTimeoutMs@CkSsh@@QAEHXZ 0041caf0 f   ChilkatDbgDll:CkSsh.obj
 0001:0001bb26       ?put_ConnectTimeoutMs@CkSsh@@QAEXH@Z 0041cb26 f   ChilkatDbgDll:CkSsh.obj
 0001:0001bb62       ?get_DisconnectCode@CkSsh@@QAEHXZ 0041cb62 f   ChilkatDbgDll:CkSsh.obj
 0001:0001bb98       ?get_DisconnectReason@CkSsh@@QAEXAAVCkString@@@Z 0041cb98 f   ChilkatDbgDll:CkSsh.obj
 0001:0001bbe6       ?disconnectReason@CkSsh@@QAEPBDXZ 0041cbe6 f   ChilkatDbgDll:CkSsh.obj
 0001:0001bc5c       ?get_ForceCipher@CkSsh@@QAEXAAVCkString@@@Z 0041cc5c f   ChilkatDbgDll:CkSsh.obj
 0001:0001bcaa       ?forceCipher@CkSsh@@QAEPBDXZ 0041ccaa f   ChilkatDbgDll:CkSsh.obj
 0001:0001bd20       ?put_ForceCipher@CkSsh@@QAEXPBD@Z 0041cd20 f   ChilkatDbgDll:CkSsh.obj
 0001:0001bdd5       ?get_HeartbeatMs@CkSsh@@QAEHXZ 0041cdd5 f   ChilkatDbgDll:CkSsh.obj
 0001:0001be0b       ?put_HeartbeatMs@CkSsh@@QAEXH@Z 0041ce0b f   ChilkatDbgDll:CkSsh.obj
 0001:0001be47       ?get_HostKeyAlg@CkSsh@@QAEXAAVCkString@@@Z 0041ce47 f   ChilkatDbgDll:CkSsh.obj
 0001:0001be95       ?hostKeyAlg@CkSsh@@QAEPBDXZ 0041ce95 f   ChilkatDbgDll:CkSsh.obj
 0001:0001bf0b       ?put_HostKeyAlg@CkSsh@@QAEXPBD@Z 0041cf0b f   ChilkatDbgDll:CkSsh.obj
 0001:0001bfc0       ?get_HostKeyFingerprint@CkSsh@@QAEXAAVCkString@@@Z 0041cfc0 f   ChilkatDbgDll:CkSsh.obj
 0001:0001c00e       ?hostKeyFingerprint@CkSsh@@QAEPBDXZ 0041d00e f   ChilkatDbgDll:CkSsh.obj
 0001:0001c084       ?get_HttpProxyAuthMethod@CkSsh@@QAEXAAVCkString@@@Z 0041d084 f   ChilkatDbgDll:CkSsh.obj
 0001:0001c0d8       ?httpProxyAuthMethod@CkSsh@@QAEPBDXZ 0041d0d8 f   ChilkatDbgDll:CkSsh.obj
 0001:0001c14e       ?put_HttpProxyAuthMethod@CkSsh@@QAEXPBD@Z 0041d14e f   ChilkatDbgDll:CkSsh.obj
 0001:0001c209       ?get_HttpProxyDomain@CkSsh@@QAEXAAVCkString@@@Z 0041d209 f   ChilkatDbgDll:CkSsh.obj
 0001:0001c25d       ?httpProxyDomain@CkSsh@@QAEPBDXZ 0041d25d f   ChilkatDbgDll:CkSsh.obj
 0001:0001c2d3       ?put_HttpProxyDomain@CkSsh@@QAEXPBD@Z 0041d2d3 f   ChilkatDbgDll:CkSsh.obj
 0001:0001c38e       ?get_HttpProxyHostname@CkSsh@@QAEXAAVCkString@@@Z 0041d38e f   ChilkatDbgDll:CkSsh.obj
 0001:0001c3e2       ?httpProxyHostname@CkSsh@@QAEPBDXZ 0041d3e2 f   ChilkatDbgDll:CkSsh.obj
 0001:0001c458       ?put_HttpProxyHostname@CkSsh@@QAEXPBD@Z 0041d458 f   ChilkatDbgDll:CkSsh.obj
 0001:0001c513       ?get_HttpProxyPassword@CkSsh@@QAEXAAVCkString@@@Z 0041d513 f   ChilkatDbgDll:CkSsh.obj
 0001:0001c567       ?httpProxyPassword@CkSsh@@QAEPBDXZ 0041d567 f   ChilkatDbgDll:CkSsh.obj
 0001:0001c5dd       ?put_HttpProxyPassword@CkSsh@@QAEXPBD@Z 0041d5dd f   ChilkatDbgDll:CkSsh.obj
 0001:0001c698       ?get_HttpProxyPort@CkSsh@@QAEHXZ 0041d698 f   ChilkatDbgDll:CkSsh.obj
 0001:0001c6d4       ?put_HttpProxyPort@CkSsh@@QAEXH@Z 0041d6d4 f   ChilkatDbgDll:CkSsh.obj
 0001:0001c716       ?get_HttpProxyUsername@CkSsh@@QAEXAAVCkString@@@Z 0041d716 f   ChilkatDbgDll:CkSsh.obj
 0001:0001c76a       ?httpProxyUsername@CkSsh@@QAEPBDXZ 0041d76a f   ChilkatDbgDll:CkSsh.obj
 0001:0001c7e0       ?put_HttpProxyUsername@CkSsh@@QAEXPBD@Z 0041d7e0 f   ChilkatDbgDll:CkSsh.obj
 0001:0001c89b       ?get_IdleTimeoutMs@CkSsh@@QAEHXZ 0041d89b f   ChilkatDbgDll:CkSsh.obj
 0001:0001c8d1       ?put_IdleTimeoutMs@CkSsh@@QAEXH@Z 0041d8d1 f   ChilkatDbgDll:CkSsh.obj
 0001:0001c90d       ?get_IsConnected@CkSsh@@QAE_NXZ 0041d90d f   ChilkatDbgDll:CkSsh.obj
 0001:0001c943       ?get_KeepSessionLog@CkSsh@@QAE_NXZ 0041d943 f   ChilkatDbgDll:CkSsh.obj
 0001:0001c979       ?put_KeepSessionLog@CkSsh@@QAEX_N@Z 0041d979 f   ChilkatDbgDll:CkSsh.obj
 0001:0001c9b5       ?get_MaxPacketSize@CkSsh@@QAEHXZ 0041d9b5 f   ChilkatDbgDll:CkSsh.obj
 0001:0001c9eb       ?put_MaxPacketSize@CkSsh@@QAEXH@Z 0041d9eb f   ChilkatDbgDll:CkSsh.obj
 0001:0001ca27       ?get_NumOpenChannels@CkSsh@@QAEHXZ 0041da27 f   ChilkatDbgDll:CkSsh.obj
 0001:0001ca5d       ?get_PasswordChangeRequested@CkSsh@@QAE_NXZ 0041da5d f   ChilkatDbgDll:CkSsh.obj
 0001:0001ca93       ?get_ReadTimeoutMs@CkSsh@@QAEHXZ 0041da93 f   ChilkatDbgDll:CkSsh.obj
 0001:0001cac9       ?put_ReadTimeoutMs@CkSsh@@QAEXH@Z 0041dac9 f   ChilkatDbgDll:CkSsh.obj
 0001:0001cb05       ?get_SessionLog@CkSsh@@QAEXAAVCkString@@@Z 0041db05 f   ChilkatDbgDll:CkSsh.obj
 0001:0001cb53       ?sessionLog@CkSsh@@QAEPBDXZ 0041db53 f   ChilkatDbgDll:CkSsh.obj
 0001:0001cbc9       ?get_SoRcvBuf@CkSsh@@QAEHXZ 0041dbc9 f   ChilkatDbgDll:CkSsh.obj
 0001:0001cbff       ?put_SoRcvBuf@CkSsh@@QAEXH@Z 0041dbff f   ChilkatDbgDll:CkSsh.obj
 0001:0001cc3b       ?get_SoSndBuf@CkSsh@@QAEHXZ 0041dc3b f   ChilkatDbgDll:CkSsh.obj
 0001:0001cc71       ?put_SoSndBuf@CkSsh@@QAEXH@Z 0041dc71 f   ChilkatDbgDll:CkSsh.obj
 0001:0001ccad       ?get_SocksHostname@CkSsh@@QAEXAAVCkString@@@Z 0041dcad f   ChilkatDbgDll:CkSsh.obj
 0001:0001ccfe       ?socksHostname@CkSsh@@QAEPBDXZ 0041dcfe f   ChilkatDbgDll:CkSsh.obj
 0001:0001cd74       ?put_SocksHostname@CkSsh@@QAEXPBD@Z 0041dd74 f   ChilkatDbgDll:CkSsh.obj
 0001:0001ce2c       ?get_SocksPassword@CkSsh@@QAEXAAVCkString@@@Z 0041de2c f   ChilkatDbgDll:CkSsh.obj
 0001:0001ce7d       ?socksPassword@CkSsh@@QAEPBDXZ 0041de7d f   ChilkatDbgDll:CkSsh.obj
 0001:0001cef3       ?put_SocksPassword@CkSsh@@QAEXPBD@Z 0041def3 f   ChilkatDbgDll:CkSsh.obj
 0001:0001cfab       ?get_SocksPort@CkSsh@@QAEHXZ 0041dfab f   ChilkatDbgDll:CkSsh.obj
 0001:0001cfe4       ?put_SocksPort@CkSsh@@QAEXH@Z 0041dfe4 f   ChilkatDbgDll:CkSsh.obj
 0001:0001d023       ?get_SocksUsername@CkSsh@@QAEXAAVCkString@@@Z 0041e023 f   ChilkatDbgDll:CkSsh.obj
 0001:0001d074       ?socksUsername@CkSsh@@QAEPBDXZ 0041e074 f   ChilkatDbgDll:CkSsh.obj
 0001:0001d0ea       ?put_SocksUsername@CkSsh@@QAEXPBD@Z 0041e0ea f   ChilkatDbgDll:CkSsh.obj
 0001:0001d1a2       ?get_SocksVersion@CkSsh@@QAEHXZ 0041e1a2 f   ChilkatDbgDll:CkSsh.obj
 0001:0001d1db       ?put_SocksVersion@CkSsh@@QAEXH@Z 0041e1db f   ChilkatDbgDll:CkSsh.obj
 0001:0001d21a       ?get_StderrToStdout@CkSsh@@QAE_NXZ 0041e21a f   ChilkatDbgDll:CkSsh.obj
 0001:0001d250       ?put_StderrToStdout@CkSsh@@QAEX_N@Z 0041e250 f   ChilkatDbgDll:CkSsh.obj
 0001:0001d28c       ?get_TcpNoDelay@CkSsh@@QAE_NXZ 0041e28c f   ChilkatDbgDll:CkSsh.obj
 0001:0001d2c2       ?put_TcpNoDelay@CkSsh@@QAEX_N@Z 0041e2c2 f   ChilkatDbgDll:CkSsh.obj
 0001:0001d2fe       ?get_PreferIpv6@CkSsh@@QAE_NXZ 0041e2fe f   ChilkatDbgDll:CkSsh.obj
 0001:0001d337       ?put_PreferIpv6@CkSsh@@QAEX_N@Z 0041e337 f   ChilkatDbgDll:CkSsh.obj
 0001:0001d376       ?AuthenticatePk@CkSsh@@QAE_NPBDAAVCkSshKey@@@Z 0041e376 f   ChilkatDbgDll:CkSsh.obj
 0001:0001d47b       ?AuthenticatePw@CkSsh@@QAE_NPBD0@Z 0041e47b f   ChilkatDbgDll:CkSsh.obj
 0001:0001d5af       ?AuthenticatePwPk@CkSsh@@QAE_NPBD0AAVCkSshKey@@@Z 0041e5af f   ChilkatDbgDll:CkSsh.obj
 0001:0001d6f2       ?ChannelIsOpen@CkSsh@@QAE_NH@Z 0041e6f2 f   ChilkatDbgDll:CkSsh.obj
 0001:0001d72e       ?ChannelPoll@CkSsh@@QAEHHH@Z 0041e72e f   ChilkatDbgDll:CkSsh.obj
 0001:0001d7ce       ?ChannelRead@CkSsh@@QAEHH@Z 0041e7ce f   ChilkatDbgDll:CkSsh.obj
 0001:0001d86a       ?ChannelReadAndPoll@CkSsh@@QAEHHH@Z 0041e86a f   ChilkatDbgDll:CkSsh.obj
 0001:0001d90a       ?ChannelReadAndPoll2@CkSsh@@QAEHHHH@Z 0041e90a f   ChilkatDbgDll:CkSsh.obj
 0001:0001d9ae       ?ChannelReceiveToClose@CkSsh@@QAE_NH@Z 0041e9ae f   ChilkatDbgDll:CkSsh.obj
 0001:0001da4a       ?ChannelReceiveUntilMatch@CkSsh@@QAE_NHPBD0_N@Z 0041ea4a f   ChilkatDbgDll:CkSsh.obj
 0001:0001db86       ?ChannelReceiveUntilMatchN@CkSsh@@QAE_NHAAVCkStringArray@@PBD_N@Z 0041eb86 f   ChilkatDbgDll:CkSsh.obj
 0001:0001dc93       ?ChannelReceivedClose@CkSsh@@QAE_NH@Z 0041ec93 f   ChilkatDbgDll:CkSsh.obj
 0001:0001dccf       ?ChannelReceivedEof@CkSsh@@QAE_NH@Z 0041eccf f   ChilkatDbgDll:CkSsh.obj
 0001:0001dd0b       ?ChannelReceivedExitStatus@CkSsh@@QAE_NH@Z 0041ed0b f   ChilkatDbgDll:CkSsh.obj
 0001:0001dd47       ?ChannelSendClose@CkSsh@@QAE_NH@Z 0041ed47 f   ChilkatDbgDll:CkSsh.obj
 0001:0001dde3       ?ChannelSendData@CkSsh@@QAE_NHABVCkByteData@@@Z 0041ede3 f   ChilkatDbgDll:CkSsh.obj
 0001:0001de91       ?ChannelSendEof@CkSsh@@QAE_NH@Z 0041ee91 f   ChilkatDbgDll:CkSsh.obj
 0001:0001df2d       ?ChannelSendString@CkSsh@@QAE_NHPBD0@Z 0041ef2d f   ChilkatDbgDll:CkSsh.obj
 0001:0001e065       ?ClearTtyModes@CkSsh@@QAEXXZ 0041f065 f   ChilkatDbgDll:CkSsh.obj
 0001:0001e09b       ?Connect@CkSsh@@QAE_NPBDH@Z 0041f09b f   ChilkatDbgDll:CkSsh.obj
 0001:0001e195       ?Disconnect@CkSsh@@QAEXXZ  0041f195 f   ChilkatDbgDll:CkSsh.obj
 0001:0001e1cb       ?GetChannelExitStatus@CkSsh@@QAEHH@Z 0041f1cb f   ChilkatDbgDll:CkSsh.obj
 0001:0001e207       ?GetChannelNumber@CkSsh@@QAEHH@Z 0041f207 f   ChilkatDbgDll:CkSsh.obj
 0001:0001e243       ?GetChannelType@CkSsh@@QAE_NHAAVCkString@@@Z 0041f243 f   ChilkatDbgDll:CkSsh.obj
 0001:0001e295       ?getChannelType@CkSsh@@QAEPBDH@Z 0041f295 f   ChilkatDbgDll:CkSsh.obj
 0001:0001e32c       ?channelType@CkSsh@@QAEPBDH@Z 0041f32c f   ChilkatDbgDll:CkSsh.obj
 0001:0001e3c3       ?GetReceivedData@CkSsh@@QAE_NHAAVCkByteData@@@Z 0041f3c3 f   ChilkatDbgDll:CkSsh.obj
 0001:0001e415       ?GetReceivedDataN@CkSsh@@QAE_NHHAAVCkByteData@@@Z 0041f415 f   ChilkatDbgDll:CkSsh.obj
 0001:0001e46b       ?GetReceivedNumBytes@CkSsh@@QAEHH@Z 0041f46b f   ChilkatDbgDll:CkSsh.obj
 0001:0001e4a7       ?GetReceivedStderr@CkSsh@@QAE_NHAAVCkByteData@@@Z 0041f4a7 f   ChilkatDbgDll:CkSsh.obj
 0001:0001e4f9       ?GetReceivedText@CkSsh@@QAE_NHPBDAAVCkString@@@Z 0041f4f9 f   ChilkatDbgDll:CkSsh.obj
 0001:0001e5d3       ?getReceivedText@CkSsh@@QAEPBDHPBD@Z 0041f5d3 f   ChilkatDbgDll:CkSsh.obj
 0001:0001e66d       ?receivedText@CkSsh@@QAEPBDHPBD@Z 0041f66d f   ChilkatDbgDll:CkSsh.obj
 0001:0001e707       ?GetReceivedTextS@CkSsh@@QAE_NHPBD0AAVCkString@@@Z 0041f707 f   ChilkatDbgDll:CkSsh.obj
 0001:0001e81f       ?getReceivedTextS@CkSsh@@QAEPBDHPBD0@Z 0041f81f f   ChilkatDbgDll:CkSsh.obj
 0001:0001e8be       ?receivedTextS@CkSsh@@QAEPBDHPBD0@Z 0041f8be f   ChilkatDbgDll:CkSsh.obj
 0001:0001e95d       ?OpenCustomChannel@CkSsh@@QAEHPBD@Z 0041f95d f   ChilkatDbgDll:CkSsh.obj
 0001:0001ea53       ?OpenDirectTcpIpChannel@CkSsh@@QAEHPBDH@Z 0041fa53 f   ChilkatDbgDll:CkSsh.obj
 0001:0001eb4d       ?OpenSessionChannel@CkSsh@@QAEHXZ 0041fb4d f   ChilkatDbgDll:CkSsh.obj
 0001:0001ebe3       ?PeekReceivedText@CkSsh@@QAE_NHPBDAAVCkString@@@Z 0041fbe3 f   ChilkatDbgDll:CkSsh.obj
 0001:0001ecbd       ?peekReceivedText@CkSsh@@QAEPBDHPBD@Z 0041fcbd f   ChilkatDbgDll:CkSsh.obj
 0001:0001ed57       ?ReKey@CkSsh@@QAE_NXZ      0041fd57 f   ChilkatDbgDll:CkSsh.obj
 0001:0001eded       ?SendIgnore@CkSsh@@QAE_NXZ 0041fded f   ChilkatDbgDll:CkSsh.obj
 0001:0001ee83       ?SendReqExec@CkSsh@@QAE_NHPBD@Z 0041fe83 f   ChilkatDbgDll:CkSsh.obj
 0001:0001ef7d       ?SendReqPty@CkSsh@@QAE_NHPBDHHHH@Z 0041ff7d f   ChilkatDbgDll:CkSsh.obj
 0001:0001f087       ?SendReqSetEnv@CkSsh@@QAE_NHPBD0@Z 00420087 f   ChilkatDbgDll:CkSsh.obj
 0001:0001f1bf       ?SendReqShell@CkSsh@@QAE_NH@Z 004201bf f   ChilkatDbgDll:CkSsh.obj
 0001:0001f25b       ?SendReqSignal@CkSsh@@QAE_NHPBD@Z 0042025b f   ChilkatDbgDll:CkSsh.obj
 0001:0001f355       ?SendReqSubsystem@CkSsh@@QAE_NHPBD@Z 00420355 f   ChilkatDbgDll:CkSsh.obj
 0001:0001f44f       ?SendReqWindowChange@CkSsh@@QAE_NHHHHH@Z 0042044f f   ChilkatDbgDll:CkSsh.obj
 0001:0001f4fb       ?SendReqX11Forwarding@CkSsh@@QAE_NH_NPBD1H@Z 004204fb f   ChilkatDbgDll:CkSsh.obj
 0001:0001f63b       ?SendReqXonXoff@CkSsh@@QAE_NH_N@Z 0042063b f   ChilkatDbgDll:CkSsh.obj
 0001:0001f6db       ?SetTtyMode@CkSsh@@QAE_NPBDH@Z 004206db f   ChilkatDbgDll:CkSsh.obj
 0001:0001f7a0       ?UnlockComponent@CkSsh@@QAE_NPBD@Z 004207a0 f   ChilkatDbgDll:CkSsh.obj
 0001:0001f870       ??_GCkSsh@@UAEPAXI@Z       00420870 f i ChilkatDbgDll:CkSsh.obj
 0001:0001f870       ??_ECkSsh@@UAEPAXI@Z       00420870 f i ChilkatDbgDll:CkSsh.obj
 0001:0001f8b0       ?getImplX@CkString@@QBEPAXXZ 004208b0 f i ChilkatDbgDll:CkSsh.obj
 0001:0001f8d0       ??0CkBaseCb@@QAE@PAVCkBaseProgress@@@Z 004208d0 f i ChilkatDbgDll:CkSsh.obj
 0001:0001f910       ??1CkBaseCb@@UAE@XZ        00420910 f i ChilkatDbgDll:CkSsh.obj
 0001:0001f940       ??_GCkBaseCb@@UAEPAXI@Z    00420940 f i ChilkatDbgDll:CkSsh.obj
 0001:0001f940       ??_ECkBaseCb@@UAEPAXI@Z    00420940 f i ChilkatDbgDll:CkSsh.obj
 0001:0001f980       ?rtnMbString@CkMultiByteBase@@IAEPBDPAVCkString@@@Z 00420980 f   ChilkatDbgDll:CkMultiByteBase.obj
 0001:0001f9d8       ?get_Utf8@CkMultiByteBase@@QBE_NXZ 004209d8 f   ChilkatDbgDll:CkMultiByteBase.obj
 0001:0001f9f0       ?put_Utf8@CkMultiByteBase@@QAEX_N@Z 004209f0 f   ChilkatDbgDll:CkMultiByteBase.obj
 0001:0001fa0d       ?get_VerboseLogging@CkMultiByteBase@@QAE_NXZ 00420a0d f   ChilkatDbgDll:CkMultiByteBase.obj
 0001:0001fa6a       ?put_VerboseLogging@CkMultiByteBase@@QAEX_N@Z 00420a6a f   ChilkatDbgDll:CkMultiByteBase.obj
 0001:0001faba       ?nextIdx@CkMultiByteBase@@IAEIXZ 00420aba f   ChilkatDbgDll:CkMultiByteBase.obj
 0001:0001fbc1       ??0CkMultiByteBase@@AAE@ABV0@@Z 00420bc1 f   ChilkatDbgDll:CkMultiByteBase.obj
 0001:0001fbf3       ??4CkMultiByteBase@@AAEAAV0@ABV0@@Z 00420bf3 f   ChilkatDbgDll:CkMultiByteBase.obj
 0001:0001fc0a       ??0CkMultiByteBase@@QAE@XZ 00420c0a f   ChilkatDbgDll:CkMultiByteBase.obj
 0001:0001fcb7       ??1CkMultiByteBase@@UAE@XZ 00420cb7 f   ChilkatDbgDll:CkMultiByteBase.obj
 0001:0001fda2       ?LastErrorXml@CkMultiByteBase@@QAEXAAVCkString@@@Z 00420da2 f   ChilkatDbgDll:CkMultiByteBase.obj
 0001:0001fe13       ?LastErrorHtml@CkMultiByteBase@@QAEXAAVCkString@@@Z 00420e13 f   ChilkatDbgDll:CkMultiByteBase.obj
 0001:0001fe84       ?LastErrorText@CkMultiByteBase@@QAEXAAVCkString@@@Z 00420e84 f   ChilkatDbgDll:CkMultiByteBase.obj
 0001:0001fef5       ?lastErrorText@CkMultiByteBase@@QAEPBDXZ 00420ef5 f   ChilkatDbgDll:CkMultiByteBase.obj
 0001:0001ff6b       ?lastErrorXml@CkMultiByteBase@@QAEPBDXZ 00420f6b f   ChilkatDbgDll:CkMultiByteBase.obj
 0001:0001ffe1       ?lastErrorHtml@CkMultiByteBase@@QAEPBDXZ 00420fe1 f   ChilkatDbgDll:CkMultiByteBase.obj
 0001:00020057       ?SaveLastError@CkMultiByteBase@@QAE_NPBD@Z 00421057 f   ChilkatDbgDll:CkMultiByteBase.obj
 0001:00020153       ?getImpl@CkMultiByteBase@@QBEPAXXZ 00421153 f   ChilkatDbgDll:CkMultiByteBase.obj
 0001:0002016b       ?get_DebugLogFilePath@CkMultiByteBase@@QAEXAAVCkString@@@Z 0042116b f   ChilkatDbgDll:CkMultiByteBase.obj
 0001:000201d7       ?debugLogFilePath@CkMultiByteBase@@QAEPBDXZ 004211d7 f   ChilkatDbgDll:CkMultiByteBase.obj
 0001:0002024d       ?put_DebugLogFilePath@CkMultiByteBase@@QAEXPBD@Z 0042124d f   ChilkatDbgDll:CkMultiByteBase.obj
 0001:0002031c       ?get_Version@CkMultiByteBase@@QAEXAAVCkString@@@Z 0042131c f   ChilkatDbgDll:CkMultiByteBase.obj
 0001:0002037a       ?version@CkMultiByteBase@@QAEPBDXZ 0042137a f   ChilkatDbgDll:CkMultiByteBase.obj
 0001:000203f0       ?setLastErrorProgrammingLanguage@CkMultiByteBase@@QAEXH@Z 004213f0 f   ChilkatDbgDll:CkMultiByteBase.obj
 0001:0002040c       ?clearResultStrings@CkMultiByteBase@@QAEXXZ 0042140c f   ChilkatDbgDll:CkMultiByteBase.obj
 0001:000204c0       ??_ECkMultiByteBase@@UAEPAXI@Z 004214c0 f i ChilkatDbgDll:CkMultiByteBase.obj
 0001:000204c0       ??_GCkMultiByteBase@@UAEPAXI@Z 004214c0 f i ChilkatDbgDll:CkMultiByteBase.obj
 0001:00020500       ??0CkObject@@QAE@XZ        00421500 f   ChilkatDbgDll:CkObject.obj
 0001:00020528       ??1CkObject@@UAE@XZ        00421528 f   ChilkatDbgDll:CkObject.obj
 0001:0002057e       ?objcUtf8@CkObject@@QAEPBDPBD@Z 0042157e f   ChilkatDbgDll:CkObject.obj
 0001:00020595       ?objcUtf8_free@CkObject@@QAEXXZ 00421595 f   ChilkatDbgDll:CkObject.obj
 0001:000205f0       ??_ECkObject@@UAEPAXI@Z    004215f0 f i ChilkatDbgDll:CkObject.obj
 0001:000205f0       ??_GCkObject@@UAEPAXI@Z    004215f0 f i ChilkatDbgDll:CkObject.obj
 0001:00020630       ??0ObjCache@@QAE@XZ        00421630 f   ChilkatDbgDll:ObjCache.obj
 0001:0002064e       ??1ObjCache@@UAE@XZ        0042164e f   ChilkatDbgDll:ObjCache.obj
 0001:00020669       ?allocBuffer@ObjCache@@CAPAEH@Z 00421669 f   ChilkatDbgDll:ObjCache.obj
 0001:000206f6       ?newSbuf@ObjCache@@SAPAEXZ 004216f6 f   ChilkatDbgDll:ObjCache.obj
 0001:00020815       ?newDbuf@ObjCache@@SAPAEXZ 00421815 f   ChilkatDbgDll:ObjCache.obj
 0001:00020934       ?newXString@ObjCache@@SAPAVXString@@XZ 00421934 f   ChilkatDbgDll:ObjCache.obj
 0001:00020a3b       ?newQueuedObject@ObjCache@@SAPAVQueuedObject@@PAX@Z 00421a3b f   ChilkatDbgDll:ObjCache.obj
 0001:00020b6c       ?newLogEntry2@ObjCache@@SAPAVLogEntry2@@XZ 00421b6c f   ChilkatDbgDll:ObjCache.obj
 0001:00020c73       ?newStringBuffer@ObjCache@@SAPAVStringBuffer@@XZ 00421c73 f   ChilkatDbgDll:ObjCache.obj
 0001:00020d7a       ?newStringBuffer@ObjCache@@SAPAVStringBuffer@@PBD@Z 00421d7a f   ChilkatDbgDll:ObjCache.obj
 0001:00020ea1       ?newTreeNode@ObjCache@@SAPAVTreeNode@@XZ 00421ea1 f   ChilkatDbgDll:ObjCache.obj
 0001:00020fa8       ?newExtPtrArray@ObjCache@@SAPAVExtPtrArray@@XZ 00421fa8 f   ChilkatDbgDll:ObjCache.obj
 0001:000210af       ?recycleSb@ObjCache@@SAXPAVStringBuffer@@@Z 004220af f   ChilkatDbgDll:ObjCache.obj
 0001:00021295       ?recycleXs@ObjCache@@SAXPAVXString@@@Z 00422295 f   ChilkatDbgDll:ObjCache.obj
 0001:000214b5       ?recycleQo@ObjCache@@SAXPAVQueuedObject@@@Z 004224b5 f   ChilkatDbgDll:ObjCache.obj
 0001:00021682       ?recycleLogEnt@ObjCache@@SAXPAVLogEntry2@@@Z 00422682 f   ChilkatDbgDll:ObjCache.obj
 0001:0002184f       ?recycleSbuf@ObjCache@@SAXPAE@Z 0042284f f   ChilkatDbgDll:ObjCache.obj
 0001:00021998       ?recycleDbuf@ObjCache@@SAXPAE@Z 00422998 f   ChilkatDbgDll:ObjCache.obj
 0001:00021ae1       ?checkInitialize@ObjCache@@SA_NXZ 00422ae1 f   ChilkatDbgDll:ObjCache.obj
 0001:00021bc3       ?cleanupMemory@ObjCache@@SAXXZ 00422bc3 f   ChilkatDbgDll:ObjCache.obj
 0001:00021fac       ?recycleExt@ObjCache@@SAXPAVExtPtrArray@@@Z 00422fac f   ChilkatDbgDll:ObjCache.obj
 0001:00022176       ?recycleTn@ObjCache@@SAXPAVTreeNode@@@Z 00423176 f   ChilkatDbgDll:ObjCache.obj
 0001:00022340       ??_EObjCache@@UAEPAXI@Z    00423340 f i ChilkatDbgDll:ObjCache.obj
 0001:00022340       ??_GObjCache@@UAEPAXI@Z    00423340 f i ChilkatDbgDll:ObjCache.obj
 0001:00022380       ?createNewObject@XString@@SAPAV1@XZ 00423380 f   ChilkatDbgDll:XString.obj
 0001:0002243e       ??0XString@@AAE@ABV0@@Z    0042343e f   ChilkatDbgDll:XString.obj
 0001:000224c9       ??4XString@@AAEAAV0@ABV0@@Z 004234c9 f   ChilkatDbgDll:XString.obj
 0001:000224e0       ??0XString@@QAE@XZ         004234e0 f   ChilkatDbgDll:XString.obj
 0001:0002258f       ??1XString@@UAE@XZ         0042358f f   ChilkatDbgDll:XString.obj
 0001:0002264c       ?minimizeMemory@XString@@QAEXXZ 0042364c f   ChilkatDbgDll:XString.obj
 0001:0002271a       ?getNumChars@XString@@QAEHXZ 0042371a f   ChilkatDbgDll:XString.obj
 0001:000227d6       ?intValue@XString@@QAEHXZ  004237d6 f   ChilkatDbgDll:XString.obj
 0001:00022814       ?doubleValue@XString@@QAENXZ 00423814 f   ChilkatDbgDll:XString.obj
 0001:00022852       ?prependUtf8@XString@@QAEXPBD@Z 00423852 f   ChilkatDbgDll:XString.obj
 0001:00022917       ?prependAnsi@XString@@QAEXPBD@Z 00423917 f   ChilkatDbgDll:XString.obj
 0001:000229f3       ?appendInt@XString@@QAEXH@Z 004239f3 f   ChilkatDbgDll:XString.obj
 0001:00022a45       ?appendInt64@XString@@QAEX_J@Z 00423a45 f   ChilkatDbgDll:XString.obj
 0001:00022a9b       ?loadFileUtf8@XString@@QAE_NPBD0PAVLogBase@@@Z 00423a9b f   ChilkatDbgDll:XString.obj
 0001:00022b7b       ?charsetToCodePage@XString@@QAEHAAV1@@Z 00423b7b f   ChilkatDbgDll:XString.obj
 0001:00022c35       ?readFile@XString@@QAE_NAAV1@0PAVLogBase@@@Z 00423c35 f   ChilkatDbgDll:XString.obj
 0001:00022e06       ?writeToFile@XString@@QAE_NAAV1@0PAVLogBase@@@Z 00423e06 f   ChilkatDbgDll:XString.obj
 0001:00023009       ?setFromDb@XString@@QAEXPBDAAVDataBuffer@@@Z 00424009 f   ChilkatDbgDll:XString.obj
 0001:00023186       ?urlDecode@XString@@QAEXPBD@Z 00424186 f   ChilkatDbgDll:XString.obj
 0001:0002323e       ?base64Decode@XString@@QAEXPBD@Z 0042423e f   ChilkatDbgDll:XString.obj
 0001:00023333       ?qpDecode@XString@@QAEXPBD@Z 00424333 f   ChilkatDbgDll:XString.obj
 0001:00023428       ?hexDecode@XString@@QAEXPBD@Z 00424428 f   ChilkatDbgDll:XString.obj
 0001:000234d8       ?extractToDb@XString@@QAEXPBDAAVDataBuffer@@@Z 004244d8 f   ChilkatDbgDll:XString.obj
 0001:000235c2       ?urlEncode@XString@@QAEXPBD@Z 004245c2 f   ChilkatDbgDll:XString.obj
 0001:0002367c       ?base64Encode@XString@@QAEXPBD@Z 0042467c f   ChilkatDbgDll:XString.obj
 0001:0002375c       ?qpEncode@XString@@QAEXPBD@Z 0042475c f   ChilkatDbgDll:XString.obj
 0001:0002383c       ?hexEncode@XString@@QAEXPBD@Z 0042483c f   ChilkatDbgDll:XString.obj
 0001:000238f2       ?obfus@XString@@QAEXXZ     004248f2 f   ChilkatDbgDll:XString.obj
 0001:000239f1       ?unobfus@XString@@QAEXXZ   004249f1 f   ChilkatDbgDll:XString.obj
 0001:00023ae1       ?autoLinkUrls@XString@@QAEXXZ 00424ae1 f   ChilkatDbgDll:XString.obj
 0001:00023b93       ?entityDecode@XString@@QAEXXZ 00424b93 f   ChilkatDbgDll:XString.obj
 0001:00023c62       ?entityEncode_A@XString@@QAEXXZ 00424c62 f   ChilkatDbgDll:XString.obj
 0001:00023c9f       ?secureClear@XString@@QAEXXZ 00424c9f f   ChilkatDbgDll:XString.obj
 0001:00023cfb       ?strongClear@XString@@QAEXXZ 00424cfb f   ChilkatDbgDll:XString.obj
 0001:00023d57       ?cleanup@XString@@QAEXXZ   00424d57 f   ChilkatDbgDll:XString.obj
 0001:00023db3       ?clear@XString@@QAEXXZ     00424db3 f   ChilkatDbgDll:XString.obj
 0001:00023e0f       ?weakClear@XString@@QAEXXZ 00424e0f f   ChilkatDbgDll:XString.obj
 0001:00023e6b       ?setFromDual@XString@@QAEXPBD_N@Z 00424e6b f   ChilkatDbgDll:XString.obj
 0001:00023eaf       ?saveToFile@XString@@QAE_NPBD0@Z 00424eaf f   ChilkatDbgDll:XString.obj
 0001:0002401e       ?setFromAnsi@XString@@QAEXPBD@Z 0042501e f   ChilkatDbgDll:XString.obj
 0001:0002409e       ?takeFromUtf8Sb@XString@@QAEXAAVStringBuffer@@@Z 0042509e f   ChilkatDbgDll:XString.obj
 0001:0002416e       ?takeFromUtf8Db@XString@@QAEXAAVDataBuffer@@@Z 0042516e f   ChilkatDbgDll:XString.obj
 0001:00024276       ?takeFromAnsiDb@XString@@QAEXAAVDataBuffer@@@Z 00425276 f   ChilkatDbgDll:XString.obj
 0001:000242d1       ?setFromAnsiN@XString@@QAEXPBDH@Z 004252d1 f   ChilkatDbgDll:XString.obj
 0001:00024360       ?setFromUtf8@XString@@QAEXPBD@Z 00425360 f   ChilkatDbgDll:XString.obj
 0001:0002445f       ?setFromSbUtf8@XString@@QAEXABVStringBuffer@@@Z 0042545f f   ChilkatDbgDll:XString.obj
 0001:00024546       ?setFromUtf8N@XString@@QAEXPBDH@Z 00425546 f   ChilkatDbgDll:XString.obj
 0001:000246a2       ?copyFromX@XString@@QAEXABV1@@Z 004256a2 f   ChilkatDbgDll:XString.obj
 0001:00024734       ?setFromWideStr@XString@@QAEXPBG@Z 00425734 f   ChilkatDbgDll:XString.obj
 0001:00024772       ?setFromUtf32_xe@XString@@QAEXPBE@Z 00425772 f   ChilkatDbgDll:XString.obj
 0001:000247ac       ?setFromUtf16_xe@XString@@QAEXPBE@Z 004257ac f   ChilkatDbgDll:XString.obj
 0001:000247e6       ?setFromUtf16N_xe@XString@@QAEXPBEH@Z 004257e6 f   ChilkatDbgDll:XString.obj
 0001:0002482a       ?getSubstring@XString@@QAEXHHAAV1@@Z 0042582a f   ChilkatDbgDll:XString.obj
 0001:000248e1       ?delSubstring@XString@@QAEXHH@Z 004258e1 f   ChilkatDbgDll:XString.obj
 0001:000249a6       ?getWideStr@XString@@QAEPBGXZ 004259a6 f   ChilkatDbgDll:XString.obj
 0001:000249da       ?getUtf16i_xe@XString@@QAEPBGXZ 004259da f   ChilkatDbgDll:XString.obj
 0001:000249fe       ?getUtf16_xe@XString@@QAEX_NAAVDataBuffer@@@Z 004259fe f   ChilkatDbgDll:XString.obj
 0001:00024a5f       ?getUtf16_le@XString@@QAEX_NAAVDataBuffer@@@Z 00425a5f f   ChilkatDbgDll:XString.obj
 0001:00024ad6       ?getUtf16_be@XString@@QAEX_NAAVDataBuffer@@@Z 00425ad6 f   ChilkatDbgDll:XString.obj
 0001:00024b4d       ?getUtf16_xe@XString@@QAEPBEXZ 00425b4d f   ChilkatDbgDll:XString.obj
 0001:00024f01       ?getUtf32_xe@XString@@QAEPBEXZ 00425f01 f   ChilkatDbgDll:XString.obj
 0001:000252b5       ?getConverted2@XString@@QAE_NPBDAAVDataBuffer@@@Z 004262b5 f   ChilkatDbgDll:XString.obj
 0001:00025361       ?getConverted@XString@@QAE_NAAV_ckCharset@@AAVDataBuffer@@@Z 00426361 f   ChilkatDbgDll:XString.obj
 0001:00025782       ?getConvertedWithPreamble@XString@@QAE_NAAV_ckCharset@@AAVDataBuffer@@@Z 00426782 f   ChilkatDbgDll:XString.obj
 0001:00025a8f       ?validAnsi@XString@@QAE_NXZ 00426a8f f   ChilkatDbgDll:XString.obj
 0001:00025ac9       ?getAnsi@XString@@QAEPBDXZ 00426ac9 f   ChilkatDbgDll:XString.obj
 0001:00025e48       ?endsWithUtf8@XString@@QAE_NPBD@Z 00426e48 f   ChilkatDbgDll:XString.obj
 0001:00025f04       ?matchesUtf8@XString@@QAE_NPBD_N@Z 00426f04 f   ChilkatDbgDll:XString.obj
 0001:00025fc8       ?matchesAnsi@XString@@QAE_NPBD_N@Z 00426fc8 f   ChilkatDbgDll:XString.obj
 0001:0002600d       ?beginsWithUtf8@XString@@QAE_NPBD_N@Z 0042700d f   ChilkatDbgDll:XString.obj
 0001:00026109       ?beginsWithAnsi@XString@@QAE_NPBD_N@Z 00427109 f   ChilkatDbgDll:XString.obj
 0001:0002617a       ?isValidObject@XString@@QAE_NXZ 0042717a f   ChilkatDbgDll:XString.obj
 0001:000261cb       ?appendFromEncoding@XString@@QAEXPBD0@Z 004271cb f   ChilkatDbgDll:XString.obj
 0001:000263a8       ?preProcessPath@XString@@QAEXXZ 004273a8 f   ChilkatDbgDll:XString.obj
 0001:000263ce       ?ansiToUtf8DbN@XString@@SAXPBDIAAVDataBuffer@@@Z 004273ce f   ChilkatDbgDll:XString.obj
 0001:000264b8       ?ansiToUtf8Db@XString@@SAXPBDAAVDataBuffer@@@Z 004274b8 f   ChilkatDbgDll:XString.obj
 0001:000264fd       ?appendUsAscii@XString@@QAEXPBD@Z 004274fd f   ChilkatDbgDll:XString.obj
 0001:000265b6       ?appendAnsi@XString@@QAEXPBD@Z 004275b6 f   ChilkatDbgDll:XString.obj
 0001:00026688       ?appendAnsiN@XString@@QAEXPBDI@Z 00427688 f   ChilkatDbgDll:XString.obj
 0001:0002676b       ?appendWideStr@XString@@QAEXPBG@Z 0042776b f   ChilkatDbgDll:XString.obj
 0001:000267a9       ?appendWideStrN@XString@@QAEXPBGI@Z 004277a9 f   ChilkatDbgDll:XString.obj
 0001:000267ef       ?appendUtf16_le@XString@@QAEXPBE@Z 004277ef f   ChilkatDbgDll:XString.obj
 0001:000268ee       ?appendUtf16N_le@XString@@QAEXPBEI@Z 004278ee f   ChilkatDbgDll:XString.obj
 0001:000269ae       ?appendUtf16_xe@XString@@QAEXPBE@Z 004279ae f   ChilkatDbgDll:XString.obj
 0001:00026a90       ?appendUtf32_xe@XString@@QAEXPBE@Z 00427a90 f   ChilkatDbgDll:XString.obj
 0001:00026bc5       ?appendUtf16N_xe@XString@@QAEXPBEI@Z 00427bc5 f   ChilkatDbgDll:XString.obj
 0001:00026cff       ?appendUtf32N_xe@XString@@QAEXPBEI@Z 00427cff f   ChilkatDbgDll:XString.obj
 0001:00026e77       ?findLastCharUtf8@XString@@QAEPBDD@Z 00427e77 f   ChilkatDbgDll:XString.obj
 0001:00026ebb       ?appendSbUtf8@XString@@QAEXABVStringBuffer@@@Z 00427ebb f   ChilkatDbgDll:XString.obj
 0001:00026f7d       ?appendUtf8@XString@@QAEXPBD@Z 00427f7d f   ChilkatDbgDll:XString.obj
 0001:00027042       ?appendUtf8N@XString@@QAEXPBDI@Z 00428042 f   ChilkatDbgDll:XString.obj
 0001:0002715b       ?getUtf8Buffer@XString@@QAEABVStringBuffer@@XZ 0042815b f   ChilkatDbgDll:XString.obj
 0001:00027187       ?getAnsiBuffer@XString@@QAEABVStringBuffer@@XZ 00428187 f   ChilkatDbgDll:XString.obj
 0001:000271b1       ?getUtf16Buffer_xe@XString@@QAEABVDataBuffer@@XZ 004281b1 f   ChilkatDbgDll:XString.obj
 0001:000271db       ?getUtf8Sb@XString@@QAEABVStringBuffer@@XZ 004281db f   ChilkatDbgDll:XString.obj
 0001:00027207       ?getUtf8Sb_rw@XString@@QAEAAVStringBuffer@@XZ 00428207 f   ChilkatDbgDll:XString.obj
 0001:00027257       ?getUtf8@XString@@QAEPBDXZ 00428257 f   ChilkatDbgDll:XString.obj
 0001:000276a7       ?appendMemoryAddress@XString@@QAEXPAX@Z 004286a7 f   ChilkatDbgDll:XString.obj
 0001:000276d3       ?toMemoryAddress@XString@@QAEPAXXZ 004286d3 f   ChilkatDbgDll:XString.obj
 0001:00027801       ?canonicalizeHexString@XString@@QAEXXZ 00428801 f   ChilkatDbgDll:XString.obj
 0001:00027842       ?isHexidecimal@XString@@QAE_NXZ 00428842 f   ChilkatDbgDll:XString.obj
 0001:0002788d       ?appendX@XString@@QAEXABV1@@Z 0042888d f   ChilkatDbgDll:XString.obj
 0001:0002797b       ?equalsX@XString@@QAE_NAAV1@@Z 0042897b f   ChilkatDbgDll:XString.obj
 0001:00027a4c       ?equalsIgnoreCaseX@XString@@QAE_NAAV1@@Z 00428a4c f   ChilkatDbgDll:XString.obj
 0001:00027b4b       ?equalsUtf8@XString@@QAE_NPBD@Z 00428b4b f   ChilkatDbgDll:XString.obj
 0001:00027c1a       ?equalsIgnoreCaseUsAscii@XString@@QAE_NPBD@Z 00428c1a f   ChilkatDbgDll:XString.obj
 0001:00027cda       ?equalsIgnoreCaseUtf16_xe@XString@@QAE_NPBE@Z 00428cda f   ChilkatDbgDll:XString.obj
 0001:00027fa3       ?equalsIgnoreCaseUtf8@XString@@QAE_NPBD@Z 00428fa3 f   ChilkatDbgDll:XString.obj
 0001:00028184       ?equalsAnsi@XString@@QAE_NPBD@Z 00429184 f   ChilkatDbgDll:XString.obj
 0001:000281d5       ?equalsIgnoreCaseAnsi@XString@@QAE_NPBD@Z 004291d5 f   ChilkatDbgDll:XString.obj
 0001:00028226       ?is7bit@XString@@QAE_NXZ   00429226 f   ChilkatDbgDll:XString.obj
 0001:00028281       ?ansiCharAt@XString@@QAEDH@Z 00429281 f   ChilkatDbgDll:XString.obj
 0001:000282cc       ?wideCharAt@XString@@QAEGH@Z 004292cc f   ChilkatDbgDll:XString.obj
 0001:0002830a       ?utf16CharAt@XString@@QAEGH@Z 0042930a f   ChilkatDbgDll:XString.obj
 0001:000283c8       ?utf32CharAt@XString@@QAEIH@Z 004293c8 f   ChilkatDbgDll:XString.obj
 0001:0002849b       ?appendHexData@XString@@QAEXPBEH@Z 0042949b f   ChilkatDbgDll:XString.obj
 0001:00028557       ?cloneX@XString@@QAEPAV1@XZ 00429557 f   ChilkatDbgDll:XString.obj
 0001:0002859d       ?appendHexDataNoWS@XString@@QAEXPBEH@Z 0042959d f   ChilkatDbgDll:XString.obj
 0001:00028659       ?compareX@XString@@QAEHAAV1@@Z 00429659 f   ChilkatDbgDll:XString.obj
 0001:00028713       ?isEmpty@XString@@QAE_NXZ  00429713 f   ChilkatDbgDll:XString.obj
 0001:000287b8       ?getSizeAnsi@XString@@QAEIXZ 004297b8 f   ChilkatDbgDll:XString.obj
 0001:000287f3       ?getSizeAny@XString@@QAEIXZ 004297f3 f   ChilkatDbgDll:XString.obj
 0001:0002888a       ?getSizeUtf8@XString@@QAEIXZ 0042988a f   ChilkatDbgDll:XString.obj
 0001:000288c8       ?getSizeUtf16@XString@@QAEIXZ 004298c8 f   ChilkatDbgDll:XString.obj
 0001:0002892d       ?getSizeWideChar@XString@@QAEIXZ 0042992d f   ChilkatDbgDll:XString.obj
 0001:0002898a       ?trim@XString@@QAEXXZ      0042998a f   ChilkatDbgDll:XString.obj
 0001:00028a33       ?trim2@XString@@QAEXXZ     00429a33 f   ChilkatDbgDll:XString.obj
 0001:00028adc       ?trimInsideSpaces@XString@@QAEXXZ 00429adc f   ChilkatDbgDll:XString.obj
 0001:00028b85       ?toCRLF@XString@@QAEXXZ    00429b85 f   ChilkatDbgDll:XString.obj
 0001:00028c2e       ?toLF@XString@@QAEXXZ      00429c2e f   ChilkatDbgDll:XString.obj
 0001:00028cd7       ?replaceAllOccurancesUtf8@XString@@QAEHPBD0@Z 00429cd7 f   ChilkatDbgDll:XString.obj
 0001:00028d42       ?replaceAllOccurancesBetweenUtf8@XString@@QAEHPBD000@Z 00429d42 f   ChilkatDbgDll:XString.obj
 0001:00028db5       ?replaceFirstOccuranceUtf8@XString@@QAE_NPBD0@Z 00429db5 f   ChilkatDbgDll:XString.obj
 0001:00028e27       ?replaceLastOccuranceUtf8@XString@@QAE_NPBD0@Z 00429e27 f   ChilkatDbgDll:XString.obj
 0001:00028e99       ?tailEqualsUtf8@XString@@QAE_NPBD@Z 00429e99 f   ChilkatDbgDll:XString.obj
 0001:00028edb       ?lastWideChar@XString@@QAEGXZ 00429edb f   ChilkatDbgDll:XString.obj
 0001:00028f3c       ?shortenNumUtf8Bytes@XString@@QAEXH@Z 00429f3c f   ChilkatDbgDll:XString.obj
 0001:00028f8e       ?shortenNumChars@XString@@QAEXH@Z 00429f8e f   ChilkatDbgDll:XString.obj
 0001:0002902a       ?toLowerCase@XString@@QAEXXZ 0042a02a f   ChilkatDbgDll:XString.obj
 0001:000290c3       ?toUpperCase@XString@@QAEXXZ 0042a0c3 f   ChilkatDbgDll:XString.obj
 0001:0002915c       ?encodeXMLSpecial@XString@@QAEXXZ 0042a15c f   ChilkatDbgDll:XString.obj
 0001:000291cb       ?decodeXMLSpecial@XString@@QAEXXZ 0042a1cb f   ChilkatDbgDll:XString.obj
 0001:0002923a       ?containsSubstringUtf8@XString@@QAE_NPBD@Z 0042a23a f   ChilkatDbgDll:XString.obj
 0001:000292f6       ?indexOfUtf8@XString@@QAEHPBD@Z 0042a2f6 f   ChilkatDbgDll:XString.obj
 0001:0002941f       ?containsSubstringNoCaseAnsi@XString@@QAE_NPBD@Z 0042a41f f   ChilkatDbgDll:XString.obj
 0001:00029460       ?containsSubstringNoCaseUtf8@XString@@QAE_NPBD@Z 0042a460 f   ChilkatDbgDll:XString.obj
 0001:0002950d       ?appendLastWindowsError@XString@@QAEXXZ 0042a50d f   ChilkatDbgDll:XString.obj
 0001:00029556       ?removeChunk@XString@@QAEXHH@Z 0042a556 f   ChilkatDbgDll:XString.obj
 0001:000295a1       ?removeWideCharOccurances@XString@@QAEXG@Z 0042a5a1 f   ChilkatDbgDll:XString.obj
 0001:000296b3       ?removeCharOccurances@XString@@QAEXD@Z 0042a6b3 f   ChilkatDbgDll:XString.obj
 0001:0002981a       ?replaceWideChar@XString@@QAEXGG@Z 0042a81a f   ChilkatDbgDll:XString.obj
 0001:00029993       ?replaceChar@XString@@QAEXDD@Z 0042a993 f   ChilkatDbgDll:XString.obj
 0001:00029b63       ?chopAtFirstWideChar@XString@@QAEXG@Z 0042ab63 f   ChilkatDbgDll:XString.obj
 0001:00029c75       ?chopAtFirstChar@XString@@QAEXD@Z 0042ac75 f   ChilkatDbgDll:XString.obj
 0001:00029de5       ?chopAtSubstrUtf8@XString@@QAEXPBD_N@Z 0042ade5 f   ChilkatDbgDll:XString.obj
 0001:00029e44       ?getUtf16Ready@XString@@QBE_NXZ 0042ae44 f   ChilkatDbgDll:XString.obj
 0001:00029e5c       ?getUtf8Ready@XString@@QBE_NXZ 0042ae5c f   ChilkatDbgDll:XString.obj
 0001:00029e74       ?getAnsiReady@XString@@QBE_NXZ 0042ae74 f   ChilkatDbgDll:XString.obj
 0001:00029e8c       ?getDelimited@XString@@QAE_NPBD00AAV1@@Z 0042ae8c f   ChilkatDbgDll:XString.obj
 0001:00029fee       ?getSystemTime@XString@@QAEXAAVChilkatSysTime@@@Z 0042afee f   ChilkatDbgDll:XString.obj
 0001:0002a0b3       ?loadSystemTime@XString@@QAEXAAVChilkatSysTime@@@Z 0042b0b3 f   ChilkatDbgDll:XString.obj
 0001:0002a180       ??_EXString@@UAEPAXI@Z     0042b180 f i ChilkatDbgDll:XString.obj
 0001:0002a180       ??_GXString@@UAEPAXI@Z     0042b180 f i ChilkatDbgDll:XString.obj
 0001:0002a1c0       ??0LogBase@@QAE@ABV0@@Z    0042b1c0 f i ChilkatDbgDll:XString.obj
 0001:0002a240       ??_ELogBase@@UAEPAXI@Z     0042b240 f i ChilkatDbgDll:XString.obj
 0001:0002a240       ??_GLogBase@@UAEPAXI@Z     0042b240 f i ChilkatDbgDll:XString.obj
 0001:0002a280       ?getString@StringBuffer@@QBEPBDXZ 0042b280 f   ChilkatDbgDll:StringBuffer.obj
 0001:0002a298       ?getSize@StringBuffer@@QBEIXZ 0042b298 f   ChilkatDbgDll:StringBuffer.obj
 0001:0002a2b0       ?pCharAt@StringBuffer@@QBEPBDI@Z 0042b2b0 f   ChilkatDbgDll:StringBuffer.obj
 0001:0002a2cd       ?isValidObject@StringBuffer@@QBE_NXZ 0042b2cd f   ChilkatDbgDll:StringBuffer.obj
 0001:0002a2f2       ?allocBuffer@StringBuffer@@AAEPAEI@Z 0042b2f2 f   ChilkatDbgDll:StringBuffer.obj
 0001:0002a380       ?releaseBuffer@StringBuffer@@AAEXXZ 0042b380 f   ChilkatDbgDll:StringBuffer.obj
 0001:0002a3e3       ?appendSmallDataAsSpacedHexString@StringBuffer@@QAEXPBEI@Z 0042b3e3 f   ChilkatDbgDll:StringBuffer.obj
 0001:0002a486       ?trimBefore@StringBuffer@@QAEXD_N@Z 0042b486 f   ChilkatDbgDll:StringBuffer.obj
 0001:0002a562       ?trimAfter@StringBuffer@@QAEXD_N@Z 0042b562 f   ChilkatDbgDll:StringBuffer.obj
 0001:0002a5ee       ?getDelimited@StringBuffer@@QAEXPBD0_NAAV1@@Z 0042b5ee f   ChilkatDbgDll:StringBuffer.obj
 0001:0002a721       ?chopAtSubstr@StringBuffer@@QAE_NPBD_N@Z 0042b721 f   ChilkatDbgDll:StringBuffer.obj
 0001:0002a7f0       ?trim@StringBuffer@@QAEIXZ 0042b7f0 f   ChilkatDbgDll:StringBuffer.obj
 0001:0002a96b       ?trimTrailingCRLFs@StringBuffer@@QAEIXZ 0042b96b f   ChilkatDbgDll:StringBuffer.obj
 0001:0002aa3d       ?trim2@StringBuffer@@QAEIXZ 0042ba3d f   ChilkatDbgDll:StringBuffer.obj
 0001:0002abe2       ?trim3@StringBuffer@@QAEIXZ 0042bbe2 f   ChilkatDbgDll:StringBuffer.obj
 0001:0002adb4       ?trimRight2@StringBuffer@@QAEIXZ 0042bdb4 f   ChilkatDbgDll:StringBuffer.obj
 0001:0002ae8c       ?replaceNullsWithSpaces@StringBuffer@@QAEXXZ 0042be8c f   ChilkatDbgDll:StringBuffer.obj
 0001:0002af07       ?eliminateChar@StringBuffer@@QAEXDI@Z 0042bf07 f   ChilkatDbgDll:StringBuffer.obj
 0001:0002afcd       ?chopAt@StringBuffer@@QAEXI@Z 0042bfcd f   ChilkatDbgDll:StringBuffer.obj
 0001:0002b028       ?chopAtFirstChar@StringBuffer@@QAE_ND@Z 0042c028 f   ChilkatDbgDll:StringBuffer.obj
 0001:0002b0c6       ?chopAtLastChar@StringBuffer@@QAEXD@Z 0042c0c6 f   ChilkatDbgDll:StringBuffer.obj
 0001:0002b15a       ?replaceCharAnsi@StringBuffer@@QAEIDD@Z 0042c15a f   ChilkatDbgDll:StringBuffer.obj
 0001:0002b1fc       ?replaceCharUtf8@StringBuffer@@QAEXDD@Z 0042c1fc f   ChilkatDbgDll:StringBuffer.obj
 0001:0002b360       ?replaceChar5@StringBuffer@@QAEXPBDD@Z 0042c360 f   ChilkatDbgDll:StringBuffer.obj
 0001:0002b462       ?replaceChar10@StringBuffer@@QAEXPBDD@Z 0042c462 f   ChilkatDbgDll:StringBuffer.obj
 0001:0002b5fa       ?replaceChar20@StringBuffer@@QAEXPBDD@Z 0042c5fa f   ChilkatDbgDll:StringBuffer.obj
 0001:0002b8be       ?secureClear@StringBuffer@@QAEXXZ 0042c8be f   ChilkatDbgDll:StringBuffer.obj
 0001:0002b994       ?strongClear@StringBuffer@@QAEXXZ 0042c994 f   ChilkatDbgDll:StringBuffer.obj
 0001:0002ba49       ?cleanup@StringBuffer@@QAEXXZ 0042ca49 f   ChilkatDbgDll:StringBuffer.obj
 0001:0002bae1       ?clear@StringBuffer@@QAEXXZ 0042cae1 f   ChilkatDbgDll:StringBuffer.obj
 0001:0002bb96       ?weakClear@StringBuffer@@QAEXXZ 0042cb96 f   ChilkatDbgDll:StringBuffer.obj
 0001:0002bbf9       ?appendCharN@StringBuffer@@QAE_NDI@Z 0042cbf9 f   ChilkatDbgDll:StringBuffer.obj
 0001:0002bcde       ?appendUChar@StringBuffer@@QAE_NE@Z 0042ccde f   ChilkatDbgDll:StringBuffer.obj
 0001:0002bd91       ?append2@StringBuffer@@QAE_NPBD0@Z 0042cd91 f   ChilkatDbgDll:StringBuffer.obj
 0001:0002bdd4       ?append3@StringBuffer@@QAE_NPBD00@Z 0042cdd4 f   ChilkatDbgDll:StringBuffer.obj
 0001:0002be30       ?appendChar@StringBuffer@@QAE_ND@Z 0042ce30 f   ChilkatDbgDll:StringBuffer.obj
 0001:0002bee3       ?appendChar2@StringBuffer@@QAE_NDD@Z 0042cee3 f   ChilkatDbgDll:StringBuffer.obj
 0001:0002bfb7       ?appendChar3@StringBuffer@@QAE_NDDD@Z 0042cfb7 f   ChilkatDbgDll:StringBuffer.obj
 0001:0002c0ac       ?prepend@StringBuffer@@QAE_NPBD@Z 0042d0ac f   ChilkatDbgDll:StringBuffer.obj
 0001:0002c203       ?hexStringToBinary2@StringBuffer@@SAXPBDIAAVDataBuffer@@@Z 0042d203 f   ChilkatDbgDll:StringBuffer.obj
 0001:0002c592       ?hexStringToBinary@StringBuffer@@QBEXAAVDataBuffer@@@Z 0042d592 f   ChilkatDbgDll:StringBuffer.obj
 0001:0002c5e4       ?captureDecimal@StringBuffer@@QAEIPBD@Z 0042d5e4 f   ChilkatDbgDll:StringBuffer.obj
 0001:0002c6b3       ?captureHex@StringBuffer@@QAEIPBD@Z 0042d6b3 f   ChilkatDbgDll:StringBuffer.obj
 0001:0002c7a7       ?canonicalizeHexString@StringBuffer@@QAEXXZ 0042d7a7 f   ChilkatDbgDll:StringBuffer.obj
 0001:0002c7e3       ?isHexidecimal@StringBuffer@@QBE_NXZ 0042d7e3 f   ChilkatDbgDll:StringBuffer.obj
 0001:0002c89a       ?captureWS@StringBuffer@@QAEIPBD@Z 0042d89a f   ChilkatDbgDll:StringBuffer.obj
 0001:0002c97c       ?captureIdentifier@StringBuffer@@QAEIPBD@Z 0042d97c f   ChilkatDbgDll:StringBuffer.obj
 0001:0002ca80       ?captureAlpha@StringBuffer@@QAEIPBD@Z 0042da80 f   ChilkatDbgDll:StringBuffer.obj
 0001:0002cb62       ??4StringBuffer@@QAEAAV0@PBD@Z 0042db62 f   ChilkatDbgDll:StringBuffer.obj
 0001:0002cb8f       ?captureAlphaNum@StringBuffer@@QAEIPBD@Z 0042db8f f   ChilkatDbgDll:StringBuffer.obj
 0001:0002cc83       ?appendHexData@StringBuffer@@QAE_NPBEI@Z 0042dc83 f   ChilkatDbgDll:StringBuffer.obj
 0001:0002cf59       ?appendHexDataNoWS@StringBuffer@@QAE_NPBEI@Z 0042df59 f   ChilkatDbgDll:StringBuffer.obj
 0001:0002d137       ?hexValue@StringBuffer@@SAHPBD@Z 0042e137 f   ChilkatDbgDll:StringBuffer.obj
 0001:0002d17b       ?intValue@StringBuffer@@QAEHXZ 0042e17b f   ChilkatDbgDll:StringBuffer.obj
 0001:0002d281       ?uintValue@StringBuffer@@QAEIXZ 0042e281 f   ChilkatDbgDll:StringBuffer.obj
 0001:0002d358       ?doubleValue@StringBuffer@@QAENXZ 0042e358 f   ChilkatDbgDll:StringBuffer.obj
 0001:0002d3e4       ?getNamedValue@StringBuffer@@QAE_NPBDAAV1@@Z 0042e3e4 f   ChilkatDbgDll:StringBuffer.obj
 0001:0002d54a       ?append@StringBuffer@@QAE_NABVDataBuffer@@@Z 0042e54a f   ChilkatDbgDll:StringBuffer.obj
 0001:0002d59c       ?int64_to_str@StringBuffer@@SAX_JPAD@Z 0042e59c f   ChilkatDbgDll:StringBuffer.obj
 0001:0002d5c6       ?int_to_str@StringBuffer@@SAHHPAD@Z 0042e5c6 f   ChilkatDbgDll:StringBuffer.obj
 0001:0002d703       ?uint32_to_str@StringBuffer@@SAHIPAD@Z 0042e703 f   ChilkatDbgDll:StringBuffer.obj
 0001:0002d789       ?obfus@StringBuffer@@QAEXXZ 0042e789 f   ChilkatDbgDll:StringBuffer.obj
 0001:0002d862       ?unobfus@StringBuffer@@QAEXXZ 0042e862 f   ChilkatDbgDll:StringBuffer.obj
 0001:0002d929       ?append@StringBuffer@@QAE_NH@Z 0042e929 f   ChilkatDbgDll:StringBuffer.obj
 0001:0002da02       ?append@StringBuffer@@QAE_NI@Z 0042ea02 f   ChilkatDbgDll:StringBuffer.obj
 0001:0002dab2       ?simpleXml@StringBuffer@@QAE_NPBD0HQAPBD1@Z 0042eab2 f   ChilkatDbgDll:StringBuffer.obj
 0001:0002dc8d       ?appendInt64@StringBuffer@@QAE_N_J@Z 0042ec8d f   ChilkatDbgDll:StringBuffer.obj
 0001:0002dd5a       ?separate@StringBuffer@@QAE_NDAAV1@0@Z 0042ed5a f   ChilkatDbgDll:StringBuffer.obj
 0001:0002dded       ?splitAttrValue@StringBuffer@@QBEXAAV1@0_N@Z 0042eded f   ChilkatDbgDll:StringBuffer.obj
 0001:0002e0e7       ?autoLinkUrls2@StringBuffer@@AAEXAAV1@@Z 0042f0e7 f   ChilkatDbgDll:StringBuffer.obj
 0001:0002e425       ?autoLinkUrls@StringBuffer@@QAEXXZ 0042f425 f   ChilkatDbgDll:StringBuffer.obj
 0001:0002e668       ?expectNumBytes@StringBuffer@@QAE_NI@Z 0042f668 f   ChilkatDbgDll:StringBuffer.obj
 0001:0002e81c       ?containsChar@StringBuffer@@QBE_ND@Z 0042f81c f   ChilkatDbgDll:StringBuffer.obj
 0001:0002e87e       ?envReplace@StringBuffer@@QAEXXZ 0042f87e f   ChilkatDbgDll:StringBuffer.obj
 0001:0002ea90       ?appendObfus@StringBuffer@@QAE_NPBD@Z 0042fa90 f   ChilkatDbgDll:StringBuffer.obj
 0001:0002eb93       ?append_s@StringBuffer@@QAE_NPBD0@Z 0042fb93 f   ChilkatDbgDll:StringBuffer.obj
 0001:0002ec79       ?append_d@StringBuffer@@QAE_NPBDH@Z 0042fc79 f   ChilkatDbgDll:StringBuffer.obj
 0001:0002ed80       ?appendMinSize@StringBuffer@@QAE_NPBD@Z 0042fd80 f   ChilkatDbgDll:StringBuffer.obj
 0001:0002ee94       ?append@StringBuffer@@QAE_NPBD@Z 0042fe94 f   ChilkatDbgDll:StringBuffer.obj
 0001:0002ef87       ?endsWith@StringBuffer@@QBE_NPBD@Z 0042ff87 f   ChilkatDbgDll:StringBuffer.obj
 0001:0002f003       ?endsWithIgnoreCase@StringBuffer@@QBE_NPBD@Z 00430003 f   ChilkatDbgDll:StringBuffer.obj
 0001:0002f08b       ?beginsWith@StringBuffer@@QBE_NPBD@Z 0043008b f   ChilkatDbgDll:StringBuffer.obj
 0001:0002f11e       ?beginsWithN@StringBuffer@@QBE_NPBDI@Z 0043011e f   ChilkatDbgDll:StringBuffer.obj
 0001:0002f1a5       ?beginsWithIgnoreCase@StringBuffer@@QBE_NPBD@Z 004301a5 f   ChilkatDbgDll:StringBuffer.obj
 0001:0002f227       ?beginsWithIgnoreCaseN@StringBuffer@@QBE_NPBDI@Z 00430227 f   ChilkatDbgDll:StringBuffer.obj
 0001:0002f29b       ?compare@StringBuffer@@QBEHPBD@Z 0043029b f   ChilkatDbgDll:StringBuffer.obj
 0001:0002f2e6       ?compareNoCase@StringBuffer@@QBEHPBD@Z 004302e6 f   ChilkatDbgDll:StringBuffer.obj
 0001:0002f331       ?appendNullTerminatedUnicodeAsUtf8@StringBuffer@@QAE_NPBG@Z 00430331 f   ChilkatDbgDll:StringBuffer.obj
 0001:0002f4ce       ?appendN@StringBuffer@@QAE_NPBDI@Z 004304ce f   ChilkatDbgDll:StringBuffer.obj
 0001:0002f5f3       ?minimizeMemoryUsage@StringBuffer@@QAEXXZ 004305f3 f   ChilkatDbgDll:StringBuffer.obj
 0001:0002f7e6       ?createNewSB@StringBuffer@@SAPAV1@XZ 004307e6 f   ChilkatDbgDll:StringBuffer.obj
 0001:0002f8ab       ?createNewSB@StringBuffer@@SAPAV1@PBD@Z 004308ab f   ChilkatDbgDll:StringBuffer.obj
 0001:0002f9fb       ?createNewSB@StringBuffer@@SAPAV1@ABV1@@Z 004309fb f   ChilkatDbgDll:StringBuffer.obj
 0001:0002fb33       ?createNewSB@StringBuffer@@SAPAV1@I@Z 00430b33 f   ChilkatDbgDll:StringBuffer.obj
 0001:0002fc07       ?getExtendSize@StringBuffer@@QBEIXZ 00430c07 f   ChilkatDbgDll:StringBuffer.obj
 0001:0002fc1f       ?setExtendSize@StringBuffer@@QAEXI@Z 00430c1f f   ChilkatDbgDll:StringBuffer.obj
 0001:0002fc3c       ?findSubstr@StringBuffer@@QAEPBDPBD@Z 00430c3c f   ChilkatDbgDll:StringBuffer.obj
 0001:0002fc83       ??0StringBuffer@@QAE@XZ    00430c83 f   ChilkatDbgDll:StringBuffer.obj
 0001:0002fcf7       ??0StringBuffer@@QAE@PBD@Z 00430cf7 f   ChilkatDbgDll:StringBuffer.obj
 0001:0002fdac       ??0StringBuffer@@AAE@ABV0@@Z 00430dac f   ChilkatDbgDll:StringBuffer.obj
 0001:0002fe5b       ??4StringBuffer@@AAEAAV0@ABV0@@Z 00430e5b f   ChilkatDbgDll:StringBuffer.obj
 0001:0002fe90       ??1StringBuffer@@UAE@XZ    00430e90 f   ChilkatDbgDll:StringBuffer.obj
 0001:0002ff58       ?takeSb@StringBuffer@@QAEXAAV1@@Z 00430f58 f   ChilkatDbgDll:StringBuffer.obj
 0001:00030059       ?extractString@StringBuffer@@QAEPADPAI@Z 00431059 f   ChilkatDbgDll:StringBuffer.obj
 0001:00030134       ?extractString2@StringBuffer@@QAEPADAAI0@Z 00431134 f   ChilkatDbgDll:StringBuffer.obj
 0001:00030224       ?copyToBuffer@StringBuffer@@QAEHPADI@Z 00431224 f   ChilkatDbgDll:StringBuffer.obj
 0001:000302c5       ?copyString@StringBuffer@@QBEPADPAI@Z 004312c5 f   ChilkatDbgDll:StringBuffer.obj
 0001:000303a1       ?tokenizeCPP@StringBuffer@@QBEXAAVExtPtrArray@@@Z 004313a1 f   ChilkatDbgDll:StringBuffer.obj
 0001:000303d0       ?tokenize@StringBuffer@@QBEXAAVExtPtrArray@@PBD@Z 004313d0 f   ChilkatDbgDll:StringBuffer.obj
 0001:000308cc       ?tokenCount@StringBuffer@@QBEHPBD@Z 004318cc f   ChilkatDbgDll:StringBuffer.obj
 0001:00030abc       ?countColumns@StringBuffer@@QAEHD_N0@Z 00431abc f   ChilkatDbgDll:StringBuffer.obj
 0001:00030c12       ?setNthDelimited@StringBuffer@@QAEXID_N0ABV1@@Z 00431c12 f   ChilkatDbgDll:StringBuffer.obj
 0001:00030fef       ?getNthDelimited@StringBuffer@@QBEXID_N0AAV1@@Z 00431fef f   ChilkatDbgDll:StringBuffer.obj
 0001:0003124f       ?removeNthDelimited@StringBuffer@@QAE_NID_N0@Z 0043224f f   ChilkatDbgDll:StringBuffer.obj
 0001:00031435       ?split@StringBuffer@@QBE_NAAVExtPtrArray@@D_N1@Z 00432435 f   ChilkatDbgDll:StringBuffer.obj
 0001:000317dd       ?split2@StringBuffer@@QBE_NAAVExtPtrArray@@PBD_N2@Z 004327dd f   ChilkatDbgDll:StringBuffer.obj
 0001:00031bbb       ?splitIntoLines@StringBuffer@@QAE_NAAVExtPtrArray@@I@Z 00432bbb f   ChilkatDbgDll:StringBuffer.obj
 0001:00031ccf       ?splitUsingBoundary@StringBuffer@@QBE_NAAV1@AAVExtPtrArray@@H@Z 00432ccf f   ChilkatDbgDll:StringBuffer.obj
 0001:00031f3a       ?replaceLastOccurance@StringBuffer@@QAE_NPBD0@Z 00432f3a f   ChilkatDbgDll:StringBuffer.obj
 0001:00032134       ?replaceFirstOccurance@StringBuffer@@QAE_NPBD0@Z 00433134 f   ChilkatDbgDll:StringBuffer.obj
 0001:0003230a       ?replaceFirstWordOccurance@StringBuffer@@QAE_NPBD0_N@Z 0043330a f   ChilkatDbgDll:StringBuffer.obj
 0001:000324c1       ?replacePreDefinedXmlEntities@StringBuffer@@QAEII@Z 004334c1 f   ChilkatDbgDll:StringBuffer.obj
 0001:00032798       ?replaceAllWithUchar@StringBuffer@@QAEIPBDI@Z 00433798 f   ChilkatDbgDll:StringBuffer.obj
 0001:0003294b       ?replaceAllWithUcharUtf8@StringBuffer@@QAEIPBDI@Z 0043394b f   ChilkatDbgDll:StringBuffer.obj
 0001:00032a22       ?isLatin1AlphaNumeric@StringBuffer@@SA_ND@Z 00433a22 f   ChilkatDbgDll:StringBuffer.obj
 0001:00032ab8       ?isCidChar@StringBuffer@@SA_ND@Z 00433ab8 f   ChilkatDbgDll:StringBuffer.obj
 0001:00032bf8       ?findWordOnlyLatin1@StringBuffer@@SAPBDPBD0_N1@Z 00433bf8 f   ChilkatDbgDll:StringBuffer.obj
 0001:00032da6       ?copyUntil@StringBuffer@@QAE_NPBDIAAIAAV1@@Z 00433da6 f   ChilkatDbgDll:StringBuffer.obj
 0001:00032e6c       ?getBetween@StringBuffer@@QAE_NPBD0AAV1@@Z 00433e6c f   ChilkatDbgDll:StringBuffer.obj
 0001:00032f5c       ?replaceAllOccurancesBetween@StringBuffer@@QAEIPBD000@Z 00433f5c f   ChilkatDbgDll:StringBuffer.obj
 0001:0003327f       ?replaceAllOccurances@StringBuffer@@QAEIPBD0@Z 0043427f f   ChilkatDbgDll:StringBuffer.obj
 0001:00033454       ?replaceAllOccurancesNoCase@StringBuffer@@QAEIPBD0@Z 00434454 f   ChilkatDbgDll:StringBuffer.obj
 0001:00033613       ?removeDelimited@StringBuffer@@QAE_NPBD0_N@Z 00434613 f   ChilkatDbgDll:StringBuffer.obj
 0001:000338c5       ?replaceAllWordOccurances@StringBuffer@@QAEIPBD0_N@Z 004348c5 f   ChilkatDbgDll:StringBuffer.obj
 0001:00033a90       ?replaceAllWordOccurancesNoCase@StringBuffer@@QAEIPBD0@Z 00434a90 f   ChilkatDbgDll:StringBuffer.obj
 0001:00033c57       ?replaceCharInOccurances@StringBuffer@@QAEIPBDDD@Z 00434c57 f   ChilkatDbgDll:StringBuffer.obj
 0001:00033da6       ?cvAnsiToUtf8@StringBuffer@@QAEXAAVLogBase@@@Z 00434da6 f   ChilkatDbgDll:StringBuffer.obj
 0001:00033edc       ?cvUtf8ToAnsi@StringBuffer@@QAEXXZ 00434edc f   ChilkatDbgDll:StringBuffer.obj
 0001:00034002       ?cvAnsiToUnicode@StringBuffer@@QBEXAAVDataBuffer@@@Z 00435002 f   ChilkatDbgDll:StringBuffer.obj
 0001:00034103       ?cvUtf8ToUnicode@StringBuffer@@QBEXAAVDataBuffer@@@Z 00435103 f   ChilkatDbgDll:StringBuffer.obj
 0001:00034203       ?convertEncoding@StringBuffer@@QAEXHH@Z 00435203 f   ChilkatDbgDll:StringBuffer.obj
 0001:00034391       ?convertToAnsi@StringBuffer@@QAEXH@Z 00435391 f   ChilkatDbgDll:StringBuffer.obj
 0001:000344b8       ?convertFromAnsi@StringBuffer@@QAEXH@Z 004354b8 f   ChilkatDbgDll:StringBuffer.obj
 0001:000345df       ?convertToOem@StringBuffer@@QAEXH@Z 004355df f   ChilkatDbgDll:StringBuffer.obj
 0001:00034706       ?convertFromOem@StringBuffer@@QAEXH@Z 00435706 f   ChilkatDbgDll:StringBuffer.obj
 0001:0003482d       ?createFromFileUtf8@StringBuffer@@SAPAV1@PBDPAVLogBase@@@Z 0043582d f   ChilkatDbgDll:StringBuffer.obj
 0001:000348cc       ?createFromFile@StringBuffer@@SAPAV1@AAVXString@@PAVLogBase@@@Z 004358cc f   ChilkatDbgDll:StringBuffer.obj
 0001:00034bca       ?is7bit@StringBuffer@@QBE_NI@Z 00435bca f   ChilkatDbgDll:StringBuffer.obj
 0001:00034c73       ?countImprobableAnsiChars@StringBuffer@@QBEXAAI0@Z 00435c73 f   ChilkatDbgDll:StringBuffer.obj
 0001:00034ee7       ?saveToFileUtf8@StringBuffer@@QAE_NPBDPAVLogBase@@@Z 00435ee7 f   ChilkatDbgDll:StringBuffer.obj
 0001:00034f23       ?loadFromFileAnsi@StringBuffer@@QAE_NPBDPAVLogBase@@@Z 00435f23 f   ChilkatDbgDll:StringBuffer.obj
 0001:00034fcf       ?loadFromFile@StringBuffer@@QAE_NAAVXString@@PAVLogBase@@@Z 00435fcf f   ChilkatDbgDll:StringBuffer.obj
 0001:000355b9       ?replaceHTMLSpecial@StringBuffer@@QAEXXZ 004365b9 f   ChilkatDbgDll:StringBuffer.obj
 0001:00035637       ?toCRLF@StringBuffer@@QAEIXZ 00436637 f   ChilkatDbgDll:StringBuffer.obj
 0001:0003569a       ?toLF@StringBuffer@@QAEIXZ 0043669a f   ChilkatDbgDll:StringBuffer.obj
 0001:000356c5       ?toLowerFirstChar@StringBuffer@@QAEXXZ 004366c5 f   ChilkatDbgDll:StringBuffer.obj
 0001:0003578b       ?toLowerCase@StringBuffer@@QAEXXZ 0043678b f   ChilkatDbgDll:StringBuffer.obj
 0001:0003589a       ?toUpperCase@StringBuffer@@QAEXXZ 0043689a f   ChilkatDbgDll:StringBuffer.obj
 0001:00035998       ?indent@StringBuffer@@QAEXDI@Z 00436998 f   ChilkatDbgDll:StringBuffer.obj
 0001:00035a76       ?encodeAllXmlSpecial@StringBuffer@@QAEXXZ 00436a76 f   ChilkatDbgDll:StringBuffer.obj
 0001:00036b49       ?encodeXMLSpecial@StringBuffer@@QAEIXZ 00437b49 f   ChilkatDbgDll:StringBuffer.obj
 0001:0003875c       ?decodeXMLSpecial@StringBuffer@@QAEIXZ 0043975c f   ChilkatDbgDll:StringBuffer.obj
 0001:0003880b       ?decodeAllXmlSpecialUtf8@StringBuffer@@QAEXXZ 0043980b f   ChilkatDbgDll:StringBuffer.obj
 0001:00039c45       ?decodeAllXmlSpecialIso@StringBuffer@@QAEXXZ 0043ac45 f   ChilkatDbgDll:StringBuffer.obj
 0001:0003af8b       ?scramble@StringBuffer@@QAEXXZ 0043bf8b f   ChilkatDbgDll:StringBuffer.obj
 0001:0003b246       ?unscramble@StringBuffer@@QAEXXZ 0043c246 f   ChilkatDbgDll:StringBuffer.obj
 0001:0003b54f       ?appendMinSize@StringBuffer@@QAE_NABV1@@Z 0043c54f f   ChilkatDbgDll:StringBuffer.obj
 0001:0003b5cf       ?append@StringBuffer@@QAE_NABV1@@Z 0043c5cf f   ChilkatDbgDll:StringBuffer.obj
 0001:0003b61d       ?takeFromDb@StringBuffer@@QAEXAAVDataBuffer@@@Z 0043c61d f   ChilkatDbgDll:StringBuffer.obj
 0001:0003b693       ?setString@StringBuffer@@QAE_NPBD@Z 0043c693 f   ChilkatDbgDll:StringBuffer.obj
 0001:0003b90e       ?setString@StringBuffer@@QAE_NABV1@@Z 0043c90e f   ChilkatDbgDll:StringBuffer.obj
 0001:0003b995       ?findLastChar@StringBuffer@@QAEPBDD@Z 0043c995 f   ChilkatDbgDll:StringBuffer.obj
 0001:0003b9fc       ?lastChar@StringBuffer@@QBEDXZ 0043c9fc f   ChilkatDbgDll:StringBuffer.obj
 0001:0003ba4f       ?unescape@StringBuffer@@QAEXXZ 0043ca4f f   ChilkatDbgDll:StringBuffer.obj
 0001:0003bb61       ?toAlphaNumUsAscii@StringBuffer@@QAEXXZ 0043cb61 f   ChilkatDbgDll:StringBuffer.obj
 0001:0003bcd1       ?removeCharOccurances@StringBuffer@@QAEID@Z 0043ccd1 f   ChilkatDbgDll:StringBuffer.obj
 0001:0003bdc7       ?removeFws@StringBuffer@@QAEXXZ 0043cdc7 f   ChilkatDbgDll:StringBuffer.obj
 0001:0003bec6       ?removeInvalidXmlTagChars@StringBuffer@@QAEXXZ 0043cec6 f   ChilkatDbgDll:StringBuffer.obj
 0001:0003c0e6       ?removeInvalidFilenameChars@StringBuffer@@QAEXXZ 0043d0e6 f   ChilkatDbgDll:StringBuffer.obj
 0001:0003c1e2       ?shorten@StringBuffer@@QAEXI@Z 0043d1e2 f   ChilkatDbgDll:StringBuffer.obj
 0001:0003c254       ?trimInsideSpaces@StringBuffer@@QAEIXZ 0043d254 f   ChilkatDbgDll:StringBuffer.obj
 0001:0003c3d0       ?charAt@StringBuffer@@QBEDI@Z 0043d3d0 f   ChilkatDbgDll:StringBuffer.obj
 0001:0003c3ff       ?containsSubstring@StringBuffer@@QBE_NPBD@Z 0043d3ff f   ChilkatDbgDll:StringBuffer.obj
 0001:0003c46a       ?indexOf@StringBuffer@@QBE_JPBD@Z 0043d46a f   ChilkatDbgDll:StringBuffer.obj
 0001:0003c4f3       ?matches@StringBuffer@@QAE_NPBD_N@Z 0043d4f3 f   ChilkatDbgDll:StringBuffer.obj
 0001:0003c54c       ?containsSubstringNoCase@StringBuffer@@QBE_NPBD@Z 0043d54c f   ChilkatDbgDll:StringBuffer.obj
 0001:0003c5ab       ?indexOfNoCase@StringBuffer@@QBE_JPBD@Z 0043d5ab f   ChilkatDbgDll:StringBuffer.obj
 0001:0003c628       ?removeChunk@StringBuffer@@QAEXII@Z 0043d628 f   ChilkatDbgDll:StringBuffer.obj
 0001:0003c6e8       ?iso2022Replace@StringBuffer@@QAEXAAVExtPtrArray@@@Z 0043d6e8 f   ChilkatDbgDll:StringBuffer.obj
 0001:0003c974       ?iso2022Restore@StringBuffer@@QAEXAAVExtPtrArray@@@Z 0043d974 f   ChilkatDbgDll:StringBuffer.obj
 0001:0003ca0f       ?appendLastWindowsError@StringBuffer@@QAEXXZ 0043da0f f   ChilkatDbgDll:StringBuffer.obj
 0001:0003ca6e       ?appendLastWindowsError@StringBuffer@@QAEXI@Z 0043da6e f   ChilkatDbgDll:StringBuffer.obj
 0001:0003cb36       ?appendXmlOpenTag@StringBuffer@@QAEXPBDPBVExtPtrArray@@@Z 0043db36 f   ChilkatDbgDll:StringBuffer.obj
 0001:0003cc39       ?appendXmlCloseTag@StringBuffer@@QAEXPBD@Z 0043dc39 f   ChilkatDbgDll:StringBuffer.obj
 0001:0003cca5       ?appendXml@StringBuffer@@QAEXPBDABVExtPtrArray@@0@Z 0043dca5 f   ChilkatDbgDll:StringBuffer.obj
 0001:0003cebe       ?appendXml@StringBuffer@@QAEXPBD@Z 0043debe f   ChilkatDbgDll:StringBuffer.obj
 0001:0003d028       ?appendXmlNoCdata@StringBuffer@@QAEXPBD@Z 0043e028 f   ChilkatDbgDll:StringBuffer.obj
 0001:0003d540       ?appendXmlNoCdataN@StringBuffer@@QAEXPBDI@Z 0043e540 f   ChilkatDbgDll:StringBuffer.obj
 0001:0003da6b       ?stripDirectory@StringBuffer@@QAEXXZ 0043ea6b f   ChilkatDbgDll:StringBuffer.obj
 0001:0003db5e       ?equalsFileContents@StringBuffer@@QBE_NPBD@Z 0043eb5e f   ChilkatDbgDll:StringBuffer.obj
 0001:0003dca8       ?equals@StringBuffer@@QBE_NPBD@Z 0043eca8 f   ChilkatDbgDll:StringBuffer.obj
 0001:0003dd37       ?equals@StringBuffer@@QBE_NABV1@@Z 0043ed37 f   ChilkatDbgDll:StringBuffer.obj
 0001:0003ddc9       ?equalsIgnoreCase@StringBuffer@@QBE_NPBD@Z 0043edc9 f   ChilkatDbgDll:StringBuffer.obj
 0001:0003de3c       ?equalsIgnoreCase2@StringBuffer@@QBE_NPBDI@Z 0043ee3c f   ChilkatDbgDll:StringBuffer.obj
 0001:0003decb       ?equalsIgnoreCase@StringBuffer@@QBE_NABV1@@Z 0043eecb f   ChilkatDbgDll:StringBuffer.obj
 0001:0003df3c       ?pluralize@StringBuffer@@QAEXXZ 0043ef3c f   ChilkatDbgDll:StringBuffer.obj
 0001:0003e0fb       ?toProperCase@StringBuffer@@QAEXXZ 0043f0fb f   ChilkatDbgDll:StringBuffer.obj
 0001:0003e253       ?isDecimalNumber@StringBuffer@@QAE_NXZ 0043f253 f   ChilkatDbgDll:StringBuffer.obj
 0001:0003e2b7       ?isAllCaps@StringBuffer@@QAE_NXZ 0043f2b7 f   ChilkatDbgDll:StringBuffer.obj
 0001:0003e31b       ?countCharOccurances@StringBuffer@@QBEID@Z 0043f31b f   ChilkatDbgDll:StringBuffer.obj
 0001:0003e385       ?unpluralize@StringBuffer@@QAEXXZ 0043f385 f   ChilkatDbgDll:StringBuffer.obj
 0001:0003e890       ?unpluralizeFrozen1@StringBuffer@@QAEXXZ 0043f890 f   ChilkatDbgDll:StringBuffer.obj
 0001:0003eda0       ??_GStringBuffer@@UAEPAXI@Z 0043fda0 f i ChilkatDbgDll:StringBuffer.obj
 0001:0003eda0       ??_EStringBuffer@@UAEPAXI@Z 0043fda0 f i ChilkatDbgDll:StringBuffer.obj
 0001:0003ede0       ?secureClear@DataBuffer@@QAEXXZ 0043fde0 f   ChilkatDbgDll:DataBuffer.obj
 0001:0003ee30       ?clear@DataBuffer@@QAEXXZ  0043fe30 f   ChilkatDbgDll:DataBuffer.obj
 0001:0003ee73       ?getSize@DataBuffer@@QBEIXZ 0043fe73 f   ChilkatDbgDll:DataBuffer.obj
 0001:0003ee8b       ?getBufSize@DataBuffer@@QBEIXZ 0043fe8b f   ChilkatDbgDll:DataBuffer.obj
 0001:0003eea3       ?getData2@DataBuffer@@QBEPBEXZ 0043fea3 f   ChilkatDbgDll:DataBuffer.obj
 0001:0003eebb       ?getDataAt2@DataBuffer@@QBEPBEH@Z 0043febb f   ChilkatDbgDll:DataBuffer.obj
 0001:0003eefe       ?byteAt@DataBuffer@@QBEEH@Z 0043fefe f   ChilkatDbgDll:DataBuffer.obj
 0001:0003ef44       ?lastByte@DataBuffer@@QBEEXZ 0043ff44 f   ChilkatDbgDll:DataBuffer.obj
 0001:0003ef80       ?firstByte@DataBuffer@@QBEEXZ 0043ff80 f   ChilkatDbgDll:DataBuffer.obj
 0001:0003efb4       ?append@DataBuffer@@QAE_NABVStringBuffer@@@Z 0043ffb4 f   ChilkatDbgDll:DataBuffer.obj
 0001:0003effc       ?append@DataBuffer@@QAE_NABV1@@Z 0043fffc f   ChilkatDbgDll:DataBuffer.obj
 0001:0003f044       ?exclusiveOr@DataBuffer@@QAE_NABV1@0@Z 00440044 f   ChilkatDbgDll:DataBuffer.obj
 0001:0003f11d       ?getEncodedRange@DataBuffer@@QAEXPBDIIAAVStringBuffer@@@Z 0044011d f   ChilkatDbgDll:DataBuffer.obj
 0001:0003f199       ?appendRange@DataBuffer@@QAEXABV1@II@Z 00440199 f   ChilkatDbgDll:DataBuffer.obj
 0001:0003f20d       ?appendRange2@DataBuffer@@QAE_NABV1@II@Z 0044020d f   ChilkatDbgDll:DataBuffer.obj
 0001:0003f281       ?appendStr@DataBuffer@@QAE_NPBD@Z 00440281 f   ChilkatDbgDll:DataBuffer.obj
 0001:0003f2d1       ?appendEncoded@DataBuffer@@QAE_NPBD0@Z 004402d1 f   ChilkatDbgDll:DataBuffer.obj
 0001:0003f5e4       ?encodeDB@DataBuffer@@QAEXPBDAAVStringBuffer@@@Z 004405e4 f   ChilkatDbgDll:DataBuffer.obj
 0001:0003f624       ?encodeDB2@DataBuffer@@SAXPBDPBEIAAVStringBuffer@@@Z 00440624 f   ChilkatDbgDll:DataBuffer.obj
 0001:0003f9b5       ?shorten@DataBuffer@@QAEXI@Z 004409b5 f   ChilkatDbgDll:DataBuffer.obj
 0001:0003f9fd       ?takeBinaryData@DataBuffer@@QAEXAAV1@@Z 004409fd f   ChilkatDbgDll:DataBuffer.obj
 0001:0003fa27       ?setData@DataBuffer@@QAEXPAEI@Z 00440a27 f   ChilkatDbgDll:DataBuffer.obj
 0001:0003fa55       ?setData@DataBuffer@@QAEXPADI@Z 00440a55 f   ChilkatDbgDll:DataBuffer.obj
 0001:0003fa83       ?takeDataPtr@DataBuffer@@QAEXPAV1@@Z 00440a83 f   ChilkatDbgDll:DataBuffer.obj
 0001:0003fabd       ?borrowData@DataBuffer@@QAEXPAXI@Z 00440abd f   ChilkatDbgDll:DataBuffer.obj
 0001:0003faeb       ?borrowData@DataBuffer@@QAEXPADI@Z 00440aeb f   ChilkatDbgDll:DataBuffer.obj
 0001:0003fb19       ?dropData@DataBuffer@@QAEXXZ 00440b19 f   ChilkatDbgDll:DataBuffer.obj
 0001:0003fb49       ?isReallyUtf8@DataBuffer@@QAE_NH@Z 00440b49 f   ChilkatDbgDll:DataBuffer.obj
 0001:0003fcf4       ?setDataSize_CAUTION@DataBuffer@@QAEXI@Z 00440cf4 f   ChilkatDbgDll:DataBuffer.obj
 0001:0003fd2b       ?dumpObject@DataBuffer@@QAEXPBD@Z 00440d2b f   ChilkatDbgDll:DataBuffer.obj
 0001:0003fd3f       ??0DataBuffer@@AAE@ABV0@@Z 00440d3f f   ChilkatDbgDll:DataBuffer.obj
 0001:0003fe8e       ?removeData@DataBuffer@@QAEPAEXZ 00440e8e f   ChilkatDbgDll:DataBuffer.obj
 0001:0003ff09       ?createNewObject@DataBuffer@@SAPAV1@XZ 00440f09 f   ChilkatDbgDll:DataBuffer.obj
 0001:0003ffc4       ??0DataBuffer@@QAE@XZ      00440fc4 f   ChilkatDbgDll:DataBuffer.obj
 0001:00040027       ??0DataBuffer@@QAE@PAEH@Z  00441027 f   ChilkatDbgDll:DataBuffer.obj
 0001:00040089       ?getDataSafe4@DataBuffer@@QAEPBEXZ 00441089 f   ChilkatDbgDll:DataBuffer.obj
 0001:00040178       ??0DataBuffer@@QAE@PADH@Z  00441178 f   ChilkatDbgDll:DataBuffer.obj
 0001:000401da       ?replaceChar@DataBuffer@@QAEXDD@Z 004411da f   ChilkatDbgDll:DataBuffer.obj
 0001:0004026a       ?containsChar@DataBuffer@@QBE_ND@Z 0044126a f   ChilkatDbgDll:DataBuffer.obj
 0001:000402e9       ?removeCharOccurancesW@DataBuffer@@QAEXG@Z 004412e9 f   ChilkatDbgDll:DataBuffer.obj
 0001:000403b4       ?reverseBytes@DataBuffer@@QAEXXZ 004413b4 f   ChilkatDbgDll:DataBuffer.obj
 0001:0004044f       ?chopAtFirstCharW@DataBuffer@@QAE_NG@Z 0044144f f   ChilkatDbgDll:DataBuffer.obj
 0001:0004051b       ?replaceCharW@DataBuffer@@QAEXGG@Z 0044151b f   ChilkatDbgDll:DataBuffer.obj
 0001:000405c4       ?toUppercaseW@DataBuffer@@QAEXXZ 004415c4 f   ChilkatDbgDll:DataBuffer.obj
 0001:00040645       ?toLowercaseW@DataBuffer@@QAEXXZ 00441645 f   ChilkatDbgDll:DataBuffer.obj
 0001:000406c6       ?saveToFileUtf8@DataBuffer@@QBE_NPBDPAVLogBase@@@Z 004416c6 f   ChilkatDbgDll:DataBuffer.obj
 0001:0004071c       ?loadFileUtf8@DataBuffer@@QAE_NPBDPAVLogBase@@@Z 0044171c f   ChilkatDbgDll:DataBuffer.obj
 0001:00040842       ?loadFileWithHeaderUtf8@DataBuffer@@QAE_NPBDAAV1@IPAVLogBase@@@Z 00441842 f   ChilkatDbgDll:DataBuffer.obj
 0001:00041007       ?loadHeaderUtf8@DataBuffer@@QAE_NPBDIPAVLogBase@@@Z 00442007 f   ChilkatDbgDll:DataBuffer.obj
 0001:0004161b       ?loadFileX@DataBuffer@@QAE_NAAVXString@@AAVLogBase@@@Z 0044261b f   ChilkatDbgDll:DataBuffer.obj
 0001:00041a9a       ?clearWithDeallocate@DataBuffer@@QAEXXZ 00442a9a f   ChilkatDbgDll:DataBuffer.obj
 0001:00041b3e       ??1DataBuffer@@UAE@XZ      00442b3e f   ChilkatDbgDll:DataBuffer.obj
 0001:00041c21       ?ensureBuffer@DataBuffer@@QAE_NI@Z 00442c21 f   ChilkatDbgDll:DataBuffer.obj
 0001:00041c8d       ?minimizeMemoryUsage@DataBuffer@@QAE_NXZ 00442c8d f   ChilkatDbgDll:DataBuffer.obj
 0001:00041cd0       ?reallocate@DataBuffer@@AAE_NI@Z 00442cd0 f   ChilkatDbgDll:DataBuffer.obj
 0001:00041e0c       ?takeData@DataBuffer@@QAEXPAXI@Z 00442e0c f   ChilkatDbgDll:DataBuffer.obj
 0001:00041e3a       ?takeString@DataBuffer@@QAEXAAVStringBuffer@@@Z 00442e3a f   ChilkatDbgDll:DataBuffer.obj
 0001:00041eb3       ?equals@DataBuffer@@QBE_NABV1@@Z 00442eb3 f   ChilkatDbgDll:DataBuffer.obj
 0001:00041f28       ?equals2@DataBuffer@@QBE_NPBEI@Z 00442f28 f   ChilkatDbgDll:DataBuffer.obj
 0001:00041f97       ?borrowData@DataBuffer@@QAEXPAEI@Z 00442f97 f   ChilkatDbgDll:DataBuffer.obj
 0001:00042042       ?takeData@DataBuffer@@QAEXPAEI@Z 00443042 f   ChilkatDbgDll:DataBuffer.obj
 0001:000420ed       ?takeData2@DataBuffer@@QAEXPAEII@Z 004430ed f   ChilkatDbgDll:DataBuffer.obj
 0001:00042198       ?takeData@DataBuffer@@QAEXAAV1@@Z 00443198 f   ChilkatDbgDll:DataBuffer.obj
 0001:00042259       ?consumeUtf8CombiningMarks@DataBuffer@@QAEXXZ 00443259 f   ChilkatDbgDll:DataBuffer.obj
 0001:00042d5b       ?appendNullTerminatedUtf16_xe@DataBuffer@@QAEXPBE@Z 00443d5b f   ChilkatDbgDll:DataBuffer.obj
 0001:00042e0a       ?appendNullTerminatedUtf32_xe@DataBuffer@@QAEXPBE@Z 00443e0a f   ChilkatDbgDll:DataBuffer.obj
 0001:00042ed2       ?appendChar@DataBuffer@@QAE_NE@Z 00443ed2 f   ChilkatDbgDll:DataBuffer.obj
 0001:00042f7c       ?appendCharN@DataBuffer@@QAE_NEI@Z 00443f7c f   ChilkatDbgDll:DataBuffer.obj
 0001:0004305a       ?prepend@DataBuffer@@QAEXPBEI@Z 0044405a f   ChilkatDbgDll:DataBuffer.obj
 0001:00043128       ?appendUcs2AsUtf8@DataBuffer@@QAEHG@Z 00444128 f   ChilkatDbgDll:DataBuffer.obj
 0001:00043292       ?expandBuffer@DataBuffer@@AAE_NI@Z 00444292 f   ChilkatDbgDll:DataBuffer.obj
 0001:000433fc       ?appendReverse@DataBuffer@@QAE_NPBXI_N@Z 004443fc f   ChilkatDbgDll:DataBuffer.obj
 0001:00043523       ?appendUint16_le@DataBuffer@@QAE_NG@Z 00444523 f   ChilkatDbgDll:DataBuffer.obj
 0001:0004359d       ?appendUint16_be@DataBuffer@@QAE_NG@Z 0044459d f   ChilkatDbgDll:DataBuffer.obj
 0001:00043617       ?appendUint32_le@DataBuffer@@QAE_NI@Z 00444617 f   ChilkatDbgDll:DataBuffer.obj
 0001:000436a3       ?appendUint32_be@DataBuffer@@QAE_NI@Z 004446a3 f   ChilkatDbgDll:DataBuffer.obj
 0001:0004372f       ?appendInt64_le@DataBuffer@@QAE_N_J@Z 0044472f f   ChilkatDbgDll:DataBuffer.obj
 0001:000437e2       ?appendDouble_le@DataBuffer@@QAE_NN@Z 004447e2 f   ChilkatDbgDll:DataBuffer.obj
 0001:00043895       ?appendUtf16_le@DataBuffer@@QAE_NPBEI@Z 00444895 f   ChilkatDbgDll:DataBuffer.obj
 0001:00043962       ?appendInt64_be@DataBuffer@@QAE_N_J@Z 00444962 f   ChilkatDbgDll:DataBuffer.obj
 0001:00043a15       ?getLittleEndian40@DataBuffer@@QAE_N_NIIPAE@Z 00444a15 f   ChilkatDbgDll:DataBuffer.obj
 0001:00043af8       ?append@DataBuffer@@QAE_NPBXI@Z 00444af8 f   ChilkatDbgDll:DataBuffer.obj
 0001:00043bc1       ?byteSwap4321@DataBuffer@@QAEXXZ 00444bc1 f   ChilkatDbgDll:DataBuffer.obj
 0001:00043cee       ?byteSwap21@DataBuffer@@QAEXXZ 00444cee f   ChilkatDbgDll:DataBuffer.obj
 0001:00043d6f       ?appendLowOverhead@DataBuffer@@QAE_NPBEI@Z 00444d6f f   ChilkatDbgDll:DataBuffer.obj
 0001:00043e21       ?removeChunk@DataBuffer@@QAEXHH@Z 00444e21 f   ChilkatDbgDll:DataBuffer.obj
 0001:00043ed5       ?replaceAllOccurances@DataBuffer@@QAEHPBEI0I@Z 00444ed5 f   ChilkatDbgDll:DataBuffer.obj
 0001:000440e7       ?dropNullBytes@DataBuffer@@QAEXXZ 004450e7 f   ChilkatDbgDll:DataBuffer.obj
 0001:00044195       ?findBytes2@DataBuffer@@SAPBEPBEI0I@Z 00445195 f   ChilkatDbgDll:DataBuffer.obj
 0001:00044235       ?containsSubstring@DataBuffer@@QBE_NPBDI@Z 00445235 f   ChilkatDbgDll:DataBuffer.obj
 0001:00044272       ?containsSubstring2@DataBuffer@@QBE_NPBDIIAAI@Z 00445272 f   ChilkatDbgDll:DataBuffer.obj
 0001:000443a5       ?findBytes@DataBuffer@@QAEPAEPBEH@Z 004453a5 f   ChilkatDbgDll:DataBuffer.obj
 0001:00044466       ?findBytesIdx@DataBuffer@@QAEIPBEHAA_N@Z 00445466 f   ChilkatDbgDll:DataBuffer.obj
 0001:0004453e       ?beginsWith@DataBuffer@@QAE_NPBEH@Z 0044553e f   ChilkatDbgDll:DataBuffer.obj
 0001:000445d0       ?addNullBytes@DataBuffer@@QAEXXZ 004455d0 f   ChilkatDbgDll:DataBuffer.obj
 0001:00044743       ?altBytesNull@DataBuffer@@QAE_NXZ 00445743 f   ChilkatDbgDll:DataBuffer.obj
 0001:000447d4       ?padForEncryption@DataBuffer@@QAEXHH@Z 004457d4 f   ChilkatDbgDll:DataBuffer.obj
 0001:00044bd8       ?copyAndPadForEncryption@DataBuffer@@QAEXABV1@HH@Z 00445bd8 f   ChilkatDbgDll:DataBuffer.obj
 0001:00044fe6       ?unpadAfterDecryption@DataBuffer@@QAE_NHHAAVLogBase@@@Z 00445fe6 f   ChilkatDbgDll:DataBuffer.obj
 0001:0004509f       ?copyData@DataBuffer@@QAEXPBEI@Z 0044609f f   ChilkatDbgDll:DataBuffer.obj
 0001:000451ca       ?is7bit@DataBuffer@@QBE_NI@Z 004461ca f   ChilkatDbgDll:DataBuffer.obj
 0001:00045276       ?removeHead@DataBuffer@@QAEXI@Z 00446276 f   ChilkatDbgDll:DataBuffer.obj
 0001:00045337       ?copy@DataBuffer@@QAEXABV1@@Z 00446337 f   ChilkatDbgDll:DataBuffer.obj
 0001:00045471       ?toHexString@DataBuffer@@QBEXAAVStringBuffer@@@Z 00446471 f   ChilkatDbgDll:DataBuffer.obj
 0001:000454d2       ?toHexString2@DataBuffer@@SAXPBEIAAVStringBuffer@@@Z 004464d2 f   ChilkatDbgDll:DataBuffer.obj
 0001:00045686       ?toXString@DataBuffer@@QAEXPBDAAVXString@@@Z 00446686 f   ChilkatDbgDll:DataBuffer.obj
 0001:000457e0       ?cvUnicodeToUtf8@DataBuffer@@QBEXAAVStringBuffer@@@Z 004467e0 f   ChilkatDbgDll:DataBuffer.obj
 0001:000458f2       ?cvUnicodeToUtf8_db@DataBuffer@@QBEXAAV1@@Z 004468f2 f   ChilkatDbgDll:DataBuffer.obj
 0001:000459da       ?getXmlCharset2@DataBuffer@@SA_NPBDAAVStringBuffer@@@Z 004469da f   ChilkatDbgDll:DataBuffer.obj
 0001:00045b43       ?getXmlCharset@DataBuffer@@QAE_NAAVStringBuffer@@@Z 00446b43 f   ChilkatDbgDll:DataBuffer.obj
 0001:00045bb3       ??0ckSecureData@@QAE@XZ    00446bb3 f   ChilkatDbgDll:DataBuffer.obj
 0001:00045c1b       ??1ckSecureData@@UAE@XZ    00446c1b f   ChilkatDbgDll:DataBuffer.obj
 0001:00045c8f       ??0ckSecureString@@QAE@XZ  00446c8f f   ChilkatDbgDll:DataBuffer.obj
 0001:00045cf7       ??1ckSecureString@@UAE@XZ  00446cf7 f   ChilkatDbgDll:DataBuffer.obj
 0001:00045d5c       ?setSecString@ckSecureString@@QAE_NAAVDataBuffer@@PBDAAVLogBase@@@Z 00446d5c f   ChilkatDbgDll:DataBuffer.obj
 0001:00045db4       ?isEmpty@ckSecureString@@QAE_NXZ 00446db4 f   ChilkatDbgDll:DataBuffer.obj
 0001:00045ddb       ?isEmpty@ckSecureData@@QAE_NXZ 00446ddb f   ChilkatDbgDll:DataBuffer.obj
 0001:00045e07       ?getSecString@ckSecureString@@QAE_NAAVDataBuffer@@AAVStringBuffer@@AAVLogBase@@@Z 00446e07 f   ChilkatDbgDll:DataBuffer.obj
 0001:00045ecb       ?getSecStringX@ckSecureString@@QAE_NAAVDataBuffer@@AAVXString@@AAVLogBase@@@Z 00446ecb f   ChilkatDbgDll:DataBuffer.obj
 0001:00045fa0       ?setSecData@ckSecureData@@QAE_NAAVDataBuffer@@0@Z 00446fa0 f   ChilkatDbgDll:DataBuffer.obj
 0001:00046039       ?setSecData2@ckSecureData@@QAE_NAAVDataBuffer@@PBEIAAVLogBase@@@Z 00447039 f   ChilkatDbgDll:DataBuffer.obj
 0001:000460d5       ?getSecData@ckSecureData@@QAE_NAAVDataBuffer@@0AAVLogBase@@@Z 004470d5 f   ChilkatDbgDll:DataBuffer.obj
 0001:0004616e       ?secureClear@ckSecureString@@QAEXXZ 0044716e f   ChilkatDbgDll:DataBuffer.obj
 0001:00046195       ?secureClear@ckSecureData@@QAEXXZ 00447195 f   ChilkatDbgDll:DataBuffer.obj
 0001:000461bc       ?setFromSecureData@ckSecureData@@QAEXAAVDataBuffer@@0AAV1@@Z 004471bc f   ChilkatDbgDll:DataBuffer.obj
 0001:00046290       ??_EDataBuffer@@UAEPAXI@Z  00447290 f i ChilkatDbgDll:DataBuffer.obj
 0001:00046290       ??_GDataBuffer@@UAEPAXI@Z  00447290 f i ChilkatDbgDll:DataBuffer.obj
 0001:000462d0       ??_GckSecureData@@UAEPAXI@Z 004472d0 f i ChilkatDbgDll:DataBuffer.obj
 0001:000462d0       ??_EckSecureData@@UAEPAXI@Z 004472d0 f i ChilkatDbgDll:DataBuffer.obj
 0001:00046310       ??_EckSecureString@@UAEPAXI@Z 00447310 f i ChilkatDbgDll:DataBuffer.obj
 0001:00046310       ??_GckSecureString@@UAEPAXI@Z 00447310 f i ChilkatDbgDll:DataBuffer.obj
 0001:00046350       ?GetSjisFrom2022_LastBlock@Japanese@@AAEPBEXZ 00447350 f   ChilkatDbgDll:EncodingConvert.obj
 0001:000463f5       ?setDefBytes@EncodingConvert@@QAEXPBEH@Z 004473f5 f   ChilkatDbgDll:EncodingConvert.obj
 0001:00046440       ?cleanupMemory@EncodingConvert@@QAEXXZ 00447440 f   ChilkatDbgDll:EncodingConvert.obj
 0001:0004a9e5       ??0EncodingConvert@@QAE@XZ 0044b9e5 f   ChilkatDbgDll:EncodingConvert.obj
 0001:0004aa3c       ??1EncodingConvert@@UAE@XZ 0044ba3c f   ChilkatDbgDll:EncodingConvert.obj
 0001:0004aa57       ?convertToUnicodeByLookup@EncodingConvert@@AAE_NAAVUnicodeLookup@@PBEIAAVDataBuffer@@AAVLogBase@@@Z 0044ba57 f   ChilkatDbgDll:EncodingConvert.obj
 0001:0004ad11       ?convertToUnicodeHC@EncodingConvert@@AAE_NHPBEIAAVDataBuffer@@AAVLogBase@@@Z 0044bd11 f   ChilkatDbgDll:EncodingConvert.obj
 0001:0004cb60       ?appendHexData@EncodingConvert@@AAEXPBEHAAVDataBuffer@@@Z 0044db60 f   ChilkatDbgDll:EncodingConvert.obj
 0001:0004cc37       ?handleErrorFromUnicode@EncodingConvert@@AAEXPBEAAVDataBuffer@@AAVLogBase@@@Z 0044dc37 f   ChilkatDbgDll:EncodingConvert.obj
 0001:0004ce16       ?handleErrorFromUtf8@EncodingConvert@@AAEHPBEHAAVDataBuffer@@AAVLogBase@@@Z 0044de16 f   ChilkatDbgDll:EncodingConvert.obj
 0001:0004d065       ?handleErrorFromUnknown@EncodingConvert@@AAEHPBEAAVDataBuffer@@AAVLogBase@@@Z 0044e065 f   ChilkatDbgDll:EncodingConvert.obj
 0001:0004d2d0       ?handleErrorFromSingleByte@EncodingConvert@@AAEXPBEAAVDataBuffer@@AAVLogBase@@@Z 0044e2d0 f   ChilkatDbgDll:EncodingConvert.obj
 0001:0004d4ea       ?convertFromUnicodeHC2@EncodingConvert@@AAE_NPAVHashConvert@@PBEIAAVDataBuffer@@AAVLogBase@@@Z 0044e4ea f   ChilkatDbgDll:EncodingConvert.obj
 0001:0004dc16       ?convertToUnicodeHCVar@EncodingConvert@@AAE_NPAVHashConvert@@PBEIAAVDataBuffer@@AAVLogBase@@@Z 0044ec16 f   ChilkatDbgDll:EncodingConvert.obj
 0001:0004e127       ?convertFromUnicodeHC@EncodingConvert@@AAE_NHPBEIAAVDataBuffer@@AAVLogBase@@@Z 0044f127 f   ChilkatDbgDll:EncodingConvert.obj
 0001:0005020e       ?convertFromUnicode@EncodingConvert@@AAE_NPBEIAAVDataBuffer@@AAVLogBase@@@Z 0045120e f   ChilkatDbgDll:EncodingConvert.obj
 0001:00050600       ?convertToUnicode@EncodingConvert@@AAE_NPBEIAAVDataBuffer@@AAVLogBase@@@Z 00451600 f   ChilkatDbgDll:EncodingConvert.obj
 0001:00050948       ?setErrorAction@EncodingConvert@@QAEXH@Z 00451948 f   ChilkatDbgDll:EncodingConvert.obj
 0001:00050965       ?setAltDestCodepage@EncodingConvert@@QAEXH@Z 00451965 f   ChilkatDbgDll:EncodingConvert.obj
 0001:00050982       ?ChConvert@EncodingConvert@@QAE_NAAVStringBuffer@@0PBEIAAVDataBuffer@@AAVLogBase@@_N@Z 00451982 f   ChilkatDbgDll:EncodingConvert.obj
 0001:00050a0c       ?ChConvert2p@EncodingConvert@@QAE_NPBDHPBEIAAVDataBuffer@@AAVLogBase@@@Z 00451a0c f   ChilkatDbgDll:EncodingConvert.obj
 0001:00050ac8       ?ChConvert3p@EncodingConvert@@QAE_NHPBDPBEIAAVDataBuffer@@AAVLogBase@@@Z 00451ac8 f   ChilkatDbgDll:EncodingConvert.obj
 0001:00050b84       ?ChConvert2@EncodingConvert@@QAE_NAAVStringBuffer@@HPBEIAAVDataBuffer@@AAVLogBase@@@Z 00451b84 f   ChilkatDbgDll:EncodingConvert.obj
 0001:00050bee       ?ChConvert3@EncodingConvert@@QAE_NHAAVStringBuffer@@PBEIAAVDataBuffer@@AAVLogBase@@@Z 00451bee f   ChilkatDbgDll:EncodingConvert.obj
 0001:00050c58       ?ChConvert3_withPreamble@EncodingConvert@@QAE_NHAAVStringBuffer@@PBEIAAVDataBuffer@@AAVLogBase@@@Z 00451c58 f   ChilkatDbgDll:EncodingConvert.obj
 0001:00050cc2       ?EncConvertWithPreamble@EncodingConvert@@QAE_NHHPBEIAAVDataBuffer@@AAVLogBase@@@Z 00451cc2 f   ChilkatDbgDll:EncodingConvert.obj
 0001:00050d86       ?EncConvert@EncodingConvert@@QAE_NHHPBEIAAVDataBuffer@@AAVLogBase@@@Z 00451d86 f   ChilkatDbgDll:EncodingConvert.obj
 0001:00051b44       ?convert_a@EncodingConvert@@AAE_NHHPBEIAAVDataBuffer@@AAVLogBase@@@Z 00452b44 f   ChilkatDbgDll:EncodingConvert.obj
 0001:00052896       ?buildFromComplete@EncodingConvert@@CAXPBEAAVHashConvert@@_NAAVLogBase@@@Z 00453896 f   ChilkatDbgDll:EncodingConvert.obj
 0001:00052c40       ?buildFromDiffs@EncodingConvert@@CAXPBEAAVHashConvert@@AAVLogBase@@@Z 00453c40 f   ChilkatDbgDll:EncodingConvert.obj
 0001:00052d55       ?buildHash@EncodingConvert@@CAXPBDAAVHashConvert@@_NAAVLogBase@@@Z 00453d55 f   ChilkatDbgDll:EncodingConvert.obj
 0001:00052fb0       ?ensureHashFromUnicode2@EncodingConvert@@CAXHAAVLogBase@@@Z 00453fb0 f   ChilkatDbgDll:EncodingConvert.obj
 0001:000562a9       ?ensureHashFromUnicode@EncodingConvert@@CAXHAAVLogBase@@@Z 004572a9 f   ChilkatDbgDll:EncodingConvert.obj
 0001:000599ca       ?buildSingleByteLookup@EncodingConvert@@CAXAAVHashConvert@@AAVUnicodeLookup@@AAVLogBase@@@Z 0045a9ca f   ChilkatDbgDll:EncodingConvert.obj
 0001:00059ae5       ?ensureHashToUnicode1250@EncodingConvert@@CAXHAAVLogBase@@@Z 0045aae5 f   ChilkatDbgDll:EncodingConvert.obj
 0001:0005a512       ?ensureHashToUnicode8859@EncodingConvert@@CAXHAAVLogBase@@@Z 0045b512 f   ChilkatDbgDll:EncodingConvert.obj
 0001:0005b433       ?ensureHashToUnicode@EncodingConvert@@CAXHAAVLogBase@@@Z 0045c433 f   ChilkatDbgDll:EncodingConvert.obj
 0001:0006206e       ?AnsiToMultiByte@EncodingConvert@@QAE_NHPBDHAAVDataBuffer@@AAVLogBase@@@Z 0046306e f   ChilkatDbgDll:EncodingConvert.obj
 0001:000620bd       ?MultiByteToAnsi@EncodingConvert@@QAE_NHPBEHAAVDataBuffer@@AAVLogBase@@@Z 004630bd f   ChilkatDbgDll:EncodingConvert.obj
 0001:00062119       ?OemToMultiByte@EncodingConvert@@QAE_NHPBDHAAVDataBuffer@@AAVLogBase@@@Z 00463119 f   ChilkatDbgDll:EncodingConvert.obj
 0001:00062168       ?MultiByteToOem@EncodingConvert@@QAE_NHPBEHAAVDataBuffer@@AAVLogBase@@@Z 00463168 f   ChilkatDbgDll:EncodingConvert.obj
 0001:000621c0       ??_EEncodingConvert@@UAEPAXI@Z 004631c0 f i ChilkatDbgDll:EncodingConvert.obj
 0001:000621c0       ??_GEncodingConvert@@UAEPAXI@Z 004631c0 f i ChilkatDbgDll:EncodingConvert.obj
 0001:00062200       ?isBinary@_ckCharset@@QAE_NXZ 00463200 f   ChilkatDbgDll:Charset.obj
 0001:00062214       ??0_ckCharset@@QAE@XZ      00463214 f   ChilkatDbgDll:Charset.obj
 0001:0006228c       ??1_ckCharset@@UAE@XZ      0046328c f   ChilkatDbgDll:Charset.obj
 0001:000622bc       ?copy@_ckCharset@@QAEXABV1@@Z 004632bc f   ChilkatDbgDll:Charset.obj
 0001:000622fe       ?getName@_ckCharset@@QBEPBDXZ 004632fe f   ChilkatDbgDll:Charset.obj
 0001:00062325       ?getCodePage@_ckCharset@@QBEHXZ 00463325 f   ChilkatDbgDll:Charset.obj
 0001:00062340       ?clear@_ckCharset@@QAEXXZ  00463340 f   ChilkatDbgDll:Charset.obj
 0001:00062374       ?equals@_ckCharset@@QBE_NPBD@Z 00463374 f   ChilkatDbgDll:Charset.obj
 0001:000623a1       ?setByCodePage@_ckCharset@@QAEXH@Z 004633a1 f   ChilkatDbgDll:Charset.obj
 0001:00062498       ?setByName@_ckCharset@@QAE_NPBD@Z 00463498 f   ChilkatDbgDll:Charset.obj
 0001:000626c0       ??_G_ckCharset@@UAEPAXI@Z  004636c0 f i ChilkatDbgDll:Charset.obj
 0001:000626c0       ??_E_ckCharset@@UAEPAXI@Z  004636c0 f i ChilkatDbgDll:Charset.obj
 0001:00062700       ??0LogNull@@QAE@XZ         00463700 f   ChilkatDbgDll:LogNull.obj
 0001:00062730       ??1LogNull@@UAE@XZ         00463730 f   ChilkatDbgDll:LogNull.obj
 0001:0006275d       ?getXml@LogNull@@UAEXAAVStringBuffer@@@Z 0046375d f   ChilkatDbgDll:LogNull.obj
 0001:00062771       ?getHtml@LogNull@@UAEXAAVStringBuffer@@@Z 00463771 f   ChilkatDbgDll:LogNull.obj
 0001:00062785       ?getText@LogNull@@UAEXAAVStringBuffer@@@Z 00463785 f   ChilkatDbgDll:LogNull.obj
 0001:00062799       ?LogError@LogNull@@UAE_NPBD@Z 00463799 f   ChilkatDbgDll:LogNull.obj
 0001:000627af       ?LogInfo@LogNull@@UAE_NPBD@Z 004637af f   ChilkatDbgDll:LogNull.obj
 0001:000627c5       ?LogXml@LogNull@@UAE_NPBD@Z 004637c5 f   ChilkatDbgDll:LogNull.obj
 0001:000627db       ?ClearLog@LogNull@@UAE_NXZ 004637db f   ChilkatDbgDll:LogNull.obj
 0001:000627ef       ?EnterContext@LogNull@@UAE_NPBD_N@Z 004637ef f   ChilkatDbgDll:LogNull.obj
 0001:00062805       ?LeaveContext@LogNull@@UAE_NXZ 00463805 f   ChilkatDbgDll:LogNull.obj
 0001:00062819       ?LogData@LogNull@@UAE_NPBD0@Z 00463819 f   ChilkatDbgDll:LogNull.obj
 0001:0006282f       ?SaveXML@LogNull@@UAE_N_NPBD@Z 0046382f f   ChilkatDbgDll:LogNull.obj
 0001:00062850       ??_ELogNull@@UAEPAXI@Z     00463850 f i ChilkatDbgDll:LogNull.obj
 0001:00062850       ??_GLogNull@@UAEPAXI@Z     00463850 f i ChilkatDbgDll:LogNull.obj
 0001:00062890       ??0Psdk@@QAE@XZ            00463890 f   ChilkatDbgDll:Psdk.obj
 0001:000628ae       ??1Psdk@@UAE@XZ            004638ae f   ChilkatDbgDll:Psdk.obj
 0001:000628c9       ??0PsdkWin32@@QAE@XZ       004638c9 f   ChilkatDbgDll:Psdk.obj
 0001:000628e7       ??1PsdkWin32@@UAE@XZ       004638e7 f   ChilkatDbgDll:Psdk.obj
 0001:00062902       ?sleepMs@Psdk@@SAXH@Z      00463902 f   ChilkatDbgDll:Psdk.obj
 0001:00062923       ?sleepMsPm@Psdk@@SAXHPAVProgressMonitor@@@Z 00463923 f   ChilkatDbgDll:Psdk.obj
 0001:000629a4       ?getTickCount@Psdk@@SAIXZ  004639a4 f   ChilkatDbgDll:Psdk.obj
 0001:000629c1       ?getUsername@Psdk@@SAXAAVStringBuffer@@@Z 004639c1 f   ChilkatDbgDll:Psdk.obj
 0001:00062a33       ?setAnsiCodePage@Psdk@@SAXI@Z 00463a33 f   ChilkatDbgDll:Psdk.obj
 0001:00062a38       ?getAnsiCodePage@Psdk@@SAIXZ 00463a38 f   ChilkatDbgDll:Psdk.obj
 0001:00062a55       ?setOemCodePage@Psdk@@SAXI@Z 00463a55 f   ChilkatDbgDll:Psdk.obj
 0001:00062a5a       ?getOemCodePage@Psdk@@SAIXZ 00463a5a f   ChilkatDbgDll:Psdk.obj
 0001:00062a77       ?getComputerName@Psdk@@SAXAAVStringBuffer@@@Z 00463a77 f   ChilkatDbgDll:Psdk.obj
 0001:00062b84       ?regOpenKeyEx@PsdkWin32@@SAJPAUHKEY__@@PBDIKPAPAU2@@Z 00463b84 f   ChilkatDbgDll:Psdk.obj
 0001:00062bb5       ?regCreateKeyEx@PsdkWin32@@SAJPAUHKEY__@@PBDI1IKPAU_SECURITY_ATTRIBUTES@@PAPAU2@PAK@Z 00463bb5 f   ChilkatDbgDll:Psdk.obj
 0001:00062bf6       ?formatMessage@PsdkWin32@@SAIIPBXIIPADIPAPAD@Z 00463bf6 f   ChilkatDbgDll:Psdk.obj
 0001:00062c2f       ?getModuleFileName@PsdkWin32@@SAIPAUHINSTANCE__@@PADI@Z 00463c2f f   ChilkatDbgDll:Psdk.obj
 0001:00062c58       ?cryptAcquireContext@PsdkWin32@@SAHPAKPBD1II@Z 00463c58 f   ChilkatDbgDll:Psdk.obj
 0001:00062c89       ?acquireContext@PsdkWin32@@SAKXZ 00463c89 f   ChilkatDbgDll:Psdk.obj
 0001:00062d28       ?ck_fileno@Psdk@@SAHPAU_iobuf@@@Z 00463d28 f   ChilkatDbgDll:Psdk.obj
 0001:00062d50       ??_GPsdk@@UAEPAXI@Z        00463d50 f i ChilkatDbgDll:Psdk.obj
 0001:00062d50       ??_EPsdk@@UAEPAXI@Z        00463d50 f i ChilkatDbgDll:Psdk.obj
 0001:00062d90       ??_EPsdkWin32@@UAEPAXI@Z   00463d90 f i ChilkatDbgDll:Psdk.obj
 0001:00062d90       ??_GPsdkWin32@@UAEPAXI@Z   00463d90 f i ChilkatDbgDll:Psdk.obj
 0001:00062dd0       ?parseRFC822Date@DateParser@@SA_NPBDAAVChilkatSysTime@@AAVLogBase@@@Z 00463dd0 f   ChilkatDbgDll:DateParser.obj
 0001:0006424c       ?TmToVariant@DateParser@@SA_NGGGGGGAAN@Z 0046524c f   ChilkatDbgDll:DateParser.obj
 0001:000644de       ?getNumDaysOld@DateParser@@SAHAAVChilkatSysTime@@@Z 004654de f   ChilkatDbgDll:DateParser.obj
 0001:000644f2       ?SystemTimeToVariant@DateParser@@SANAAVChilkatSysTime@@@Z 004654f2 f   ChilkatDbgDll:DateParser.obj
 0001:00064568       ?VariantToTm@DateParser@@SA_NNAAUtm@@@Z 00465568 f   ChilkatDbgDll:DateParser.obj
 0001:0006488d       ?VariantToDosDateTime@DateParser@@SAXAANAAG1@Z 0046588d f   ChilkatDbgDll:DateParser.obj
 0001:000648e2       ?VariantToSystemTime@DateParser@@SAXAANAAVChilkatSysTime@@@Z 004658e2 f   ChilkatDbgDll:DateParser.obj
 0001:000649a3       ?generateCurrentDateJscript@DateParser@@SAXAAVStringBuffer@@@Z 004659a3 f   ChilkatDbgDll:DateParser.obj
 0001:00064acd       ?generateCurrentGmtDateRFC822@DateParser@@SAXAAVStringBuffer@@@Z 00465acd f   ChilkatDbgDll:DateParser.obj
 0001:00064b59       ?generateCurrentDateRFC822@DateParser@@SAXAAVStringBuffer@@@Z 00465b59 f   ChilkatDbgDll:DateParser.obj
 0001:00064c7d       ?AtomDateToSysTime@DateParser@@SA_NABVStringBuffer@@AAVChilkatSysTime@@@Z 00465c7d f   ChilkatDbgDll:DateParser.obj
 0001:00065295       ?SysTimeToAtomDate@DateParser@@SAXAAVChilkatSysTime@@AAVStringBuffer@@@Z 00466295 f   ChilkatDbgDll:DateParser.obj
 0001:0006532e       ?generateCurrentDateAtom@DateParser@@SAXAAVStringBuffer@@@Z 0046632e f   ChilkatDbgDll:DateParser.obj
 0001:00065458       ?generateDateRFC822@DateParser@@SAXAAVChilkatSysTime@@AAVStringBuffer@@@Z 00466458 f   ChilkatDbgDll:DateParser.obj
 0001:0006564f       ?checkFixSystemTime@DateParser@@SAXAAVChilkatSysTime@@@Z 0046664f f   ChilkatDbgDll:DateParser.obj
 0001:000658c7       ?DayOfWeek@DateParser@@SAHHHH@Z 004668c7 f   ChilkatDbgDll:DateParser.obj
 0001:0006595c       ?CountOfFeb29@DateParser@@SAHH@Z 0046695c f   ChilkatDbgDll:DateParser.obj
 0001:000659bb       ?FileTimeToStringGmt@DateParser@@SAXAAVChilkatFileTime@@AAVStringBuffer@@@Z 004669bb f   ChilkatDbgDll:DateParser.obj
 0001:00065a57       ?IsLeapYear@DateParser@@SA_NH@Z 00466a57 f   ChilkatDbgDll:DateParser.obj
 0001:00065a98       ??0DateParser@@QAE@XZ      00466a98 f   ChilkatDbgDll:DateParser.obj
 0001:00065ab6       ??1DateParser@@UAE@XZ      00466ab6 f   ChilkatDbgDll:DateParser.obj
 0001:00065ad1       ?AppendCurrentUtcFileTime@DateParser@@SAXAAVDataBuffer@@@Z 00466ad1 f   ChilkatDbgDll:DateParser.obj
 0001:00065b50       ?strFtime@DateParser@@SAHPADIPBDPBUtm@@@Z 00466b50 f   ChilkatDbgDll:DateParser.obj
 0001:000667a0       ??_EDateParser@@UAEPAXI@Z  004677a0 f i ChilkatDbgDll:DateParser.obj
 0001:000667a0       ??_GDateParser@@UAEPAXI@Z  004677a0 f i ChilkatDbgDll:DateParser.obj
 0001:000667e0       ?ck_tzset@@YAXXZ           004677e0 f   ChilkatDbgDll:ChilkatTm.obj
 0001:0006680f       ?ck_localtime_r@@YAPAUtm@@PBJPAU1@@Z 0046780f f   ChilkatDbgDll:ChilkatTm.obj
 0001:00066869       ?tm_to_unixTime64@@YA_JPBUtm@@@Z 00467869 f   ChilkatDbgDll:ChilkatTm.obj
 0001:000669d9       ?ck_mktime64@@YA_JPAUtm@@@Z 004679d9 f   ChilkatDbgDll:ChilkatTm.obj
 0001:00066a3c       ?ck_mktime@@YAJPAUtm@@@Z   00467a3c f   ChilkatDbgDll:ChilkatTm.obj
 0001:00066a65       ?gmtUnixToLocalUnix@@YAJJ@Z 00467a65 f   ChilkatDbgDll:ChilkatTm.obj
 0001:00066ad8       ?getLowDateTime@ChilkatFileTime@@QAEIXZ 00467ad8 f   ChilkatDbgDll:ChilkatTm.obj
 0001:00066b2c       ?getHighDateTime@ChilkatFileTime@@QAEIXZ 00467b2c f   ChilkatDbgDll:ChilkatTm.obj
 0001:00066b8d       ?getDateTimeTicks@ChilkatFileTime@@QAE_JXZ 00467b8d f   ChilkatDbgDll:ChilkatTm.obj
 0001:00066be6       ?fromDateTimeTicks@ChilkatFileTime@@QAEX_J@Z 00467be6 f   ChilkatDbgDll:ChilkatTm.obj
 0001:00066c43       ?logSysTime@ChilkatSysTime@@QAEXAAVLogBase@@@Z 00467c43 f   ChilkatDbgDll:ChilkatTm.obj
 0001:00066d3f       ?copyFrom@ChilkatSysTime@@QAEXABV1@@Z 00467d3f f   ChilkatDbgDll:ChilkatTm.obj
 0001:00066dfd       ?setFromRfc822String@ChilkatSysTime@@QAE_NPBDAAVLogBase@@@Z 00467dfd f   ChilkatDbgDll:ChilkatTm.obj
 0001:00066e2f       ?getRfc822String@ChilkatSysTime@@QAEXAAVStringBuffer@@@Z 00467e2f f   ChilkatDbgDll:ChilkatTm.obj
 0001:00066e5d       ?getRfc822StringX@ChilkatSysTime@@QAEXAAVXString@@@Z 00467e5d f   ChilkatDbgDll:ChilkatTm.obj
 0001:00066f02       ?clear@ChilkatSysTime@@QAEXXZ 00467f02 f   ChilkatDbgDll:ChilkatTm.obj
 0001:00066f81       ??0ChilkatSysTime@@QAE@XZ  00467f81 f   ChilkatDbgDll:ChilkatTm.obj
 0001:00067003       ?toSYSTEMTIME@ChilkatSysTime@@QAEXAAU_SYSTEMTIME@@@Z 00468003 f   ChilkatDbgDll:ChilkatTm.obj
 0001:00067085       ?fromAsnUtcDateTime@ChilkatSysTime@@QAE_NPBDAAVLogBase@@@Z 00468085 f   ChilkatDbgDll:ChilkatTm.obj
 0001:000671b1       ?fromSYSTEMTIME@ChilkatSysTime@@QAEXABU_SYSTEMTIME@@_N@Z 004681b1 f   ChilkatDbgDll:ChilkatTm.obj
 0001:00067246       ?toFILETIME@ChilkatFileTime@@QAEXAAU_FILETIME@@@Z 00468246 f   ChilkatDbgDll:ChilkatTm.obj
 0001:000672b7       ?clear@ChilkatFileTime@@QAEXXZ 004682b7 f   ChilkatDbgDll:ChilkatTm.obj
 0001:000672ee       ??0ChilkatFileTime@@QAE@XZ 004682ee f   ChilkatDbgDll:ChilkatTm.obj
 0001:00067328       ?fromDosDateTime@ChilkatSysTime@@QAEXGGPAVLogBase@@@Z 00468328 f   ChilkatDbgDll:ChilkatTm.obj
 0001:0006749f       ?numDaysThisMonth@ChilkatSysTime@@QAEHXZ 0046849f f   ChilkatDbgDll:ChilkatTm.obj
 0001:0006758a       ?addOneSecond@ChilkatSysTime@@QAEXXZ 0046858a f   ChilkatDbgDll:ChilkatTm.obj
 0001:00067696       ?toDosDateTime@ChilkatSysTime@@QAEXAAG0PAVLogBase@@@Z 00468696 f   ChilkatDbgDll:ChilkatTm.obj
 0001:00067858       ?toLocalFileTime_careful@ChilkatFileTime@@QAEXXZ 00468858 f   ChilkatDbgDll:ChilkatTm.obj
 0001:000678ac       ?setFileTime@ChilkatFileTime@@QAEXII@Z 004688ac f   ChilkatDbgDll:ChilkatTm.obj
 0001:00067939       ?fromFILETIME@ChilkatFileTime@@QAEXAAU_FILETIME@@@Z 00468939 f   ChilkatDbgDll:ChilkatTm.obj
 0001:0006796c       ?copyFrom@ChilkatFileTime@@QAEXAAV1@@Z 0046896c f   ChilkatDbgDll:ChilkatTm.obj
 0001:000679b4       ?toSYSTEMTIME@ChilkatFileTime@@QAEXAAU_SYSTEMTIME@@@Z 004689b4 f   ChilkatDbgDll:ChilkatTm.obj
 0001:00067a07       ?toSystemTime_gmt@ChilkatFileTime@@QAEXAAVChilkatSysTime@@@Z 00468a07 f   ChilkatDbgDll:ChilkatTm.obj
 0001:00067aa0       ?toLocalSysTime@ChilkatSysTime@@QAEXXZ 00468aa0 f   ChilkatDbgDll:ChilkatTm.obj
 0001:00067b69       ?toGmtSysTime@ChilkatSysTime@@QAEXXZ 00468b69 f   ChilkatDbgDll:ChilkatTm.obj
 0001:00067bc2       ?toUnixTime_gmt@ChilkatSysTime@@QAEIXZ 00468bc2 f   ChilkatDbgDll:ChilkatTm.obj
 0001:00067c09       ?toUnixTime_gmt64@ChilkatSysTime@@QAE_JXZ 00468c09 f   ChilkatDbgDll:ChilkatTm.obj
 0001:00067c4e       ?toTmStruct@ChilkatSysTime@@QAEXAAUtm@@@Z 00468c4e f   ChilkatDbgDll:ChilkatTm.obj
 0001:00067d0e       ?fromTmStruct@ChilkatSysTime@@QAEX_NAAUtm@@@Z 00468d0e f   ChilkatDbgDll:ChilkatTm.obj
 0001:00067da8       ?getDstDiff@ChilkatSysTime@@QAEHXZ 00468da8 f   ChilkatDbgDll:ChilkatTm.obj
 0001:00067e0b       ?getIsDst@ChilkatSysTime@@QAEHXZ 00468e0b f   ChilkatDbgDll:ChilkatTm.obj
 0001:00067efa       ?getGmtOffsetInSeconds@ChilkatSysTime@@QAEHXZ 00468efa f   ChilkatDbgDll:ChilkatTm.obj
 0001:00067fa8       ?toFileTime_gmt@ChilkatSysTime@@QAEXAAVChilkatFileTime@@@Z 00468fa8 f   ChilkatDbgDll:ChilkatTm.obj
 0001:000680c2       ?compareFileTimeExact@ChilkatFileTime@@SAJAAV1@0@Z 004690c2 f   ChilkatDbgDll:ChilkatTm.obj
 0001:00068118       ?compareFileTimeNearestSec@ChilkatFileTime@@SAJAAV1@0@Z 00469118 f   ChilkatDbgDll:ChilkatTm.obj
 0001:0006816e       ?fromUnixTime32@ChilkatFileTime@@QAEXII@Z 0046916e f   ChilkatDbgDll:ChilkatTm.obj
 0001:000681f4       ?toUnixTime32@ChilkatFileTime@@QAEIXZ 004691f4 f   ChilkatDbgDll:ChilkatTm.obj
 0001:0006820b       ?dosDateTimeToUnixTime32@ChilkatFileTime@@SAIGG@Z 0046920b f   ChilkatDbgDll:ChilkatTm.obj
 0001:0006845c       ?addDays@ChilkatSysTime@@QAE_NH@Z 0046945c f   ChilkatDbgDll:ChilkatTm.obj
 0001:000684c0       ?getNumDaysOld@ChilkatSysTime@@QAEHXZ 004694c0 f   ChilkatDbgDll:ChilkatTm.obj
 0001:00068602       ?getCurrentGmt@ChilkatSysTime@@QAEXXZ 00469602 f   ChilkatDbgDll:ChilkatTm.obj
 0001:00068676       ?adjustForWindowsExplorer@ChilkatFileTime@@QAEXXZ 00469676 f   ChilkatDbgDll:ChilkatTm.obj
 0001:00068711       ?reverseAdjustForWindowsExplorer@ChilkatFileTime@@QAEXXZ 00469711 f   ChilkatDbgDll:ChilkatTm.obj
 0001:000687ac       ?getCurrentGmt@ChilkatFileTime@@QAEXXZ 004697ac f   ChilkatDbgDll:ChilkatTm.obj
 0001:000687f9       ?getCurrentLocal@ChilkatFileTime@@QAEXXZ 004697f9 f   ChilkatDbgDll:ChilkatTm.obj
 0001:00068825       ?toOleDate@ChilkatSysTime@@QAENXZ 00469825 f   ChilkatDbgDll:ChilkatTm.obj
 0001:0006889d       ?fromOleDate@ChilkatSysTime@@QAE_N_NN@Z 0046989d f   ChilkatDbgDll:ChilkatTm.obj
 0001:00068917       ?isAfter@ChilkatSysTime@@QAE_NAAV1@@Z 00469917 f   ChilkatDbgDll:ChilkatTm.obj
 0001:0006897d       ?getCurrentLocal@ChilkatSysTime@@QAEXXZ 0046997d f   ChilkatDbgDll:ChilkatTm.obj
 0001:000689f0       ??0UnicodeInfo@@QAE@XZ     004699f0 f   ChilkatDbgDll:UnicodeInfo.obj
 0001:00068a35       ??1UnicodeInfo@@UAE@XZ     00469a35 f   ChilkatDbgDll:UnicodeInfo.obj
 0001:00068a50       ?GetCount@UnicodeInfo@@QAEHH@Z 00469a50 f   ChilkatDbgDll:UnicodeInfo.obj
 0001:00068a7e       ?ExamineUnicode@UnicodeInfo@@QAEXPBEH@Z 00469a7e f   ChilkatDbgDll:UnicodeInfo.obj
 0001:000691b0       ?SuggestCharset@UnicodeInfo@@QAEXAAV_ckCharset@@PBDAAVLogBase@@_N@Z 0046a1b0 f   ChilkatDbgDll:UnicodeInfo.obj
 0001:000698b0       ??_GUnicodeInfo@@UAEPAXI@Z 0046a8b0 f i ChilkatDbgDll:UnicodeInfo.obj
 0001:000698b0       ??_EUnicodeInfo@@UAEPAXI@Z 0046a8b0 f i ChilkatDbgDll:UnicodeInfo.obj
 0001:000698f0       ?randomSeed@ChilkatRand@@CAXXZ 0046a8f0 f   ChilkatDbgDll:ChilkatRand.obj
 0001:00069a53       ??0ChilkatRand@@QAE@XZ     0046aa53 f   ChilkatDbgDll:ChilkatRand.obj
 0001:00069a71       ?setSeed@ChilkatRand@@SAXI@Z 0046aa71 f   ChilkatDbgDll:ChilkatRand.obj
 0001:00069acd       ?cleanupMemory@ChilkatRand@@SAXXZ 0046aacd f   ChilkatDbgDll:ChilkatRand.obj
 0001:00069b6b       ?checkInitialize@ChilkatRand@@CAXXZ 0046ab6b f   ChilkatDbgDll:ChilkatRand.obj
 0001:00069c4e       ?randomInt@ChilkatRand@@SAHHH@Z 0046ac4e f   ChilkatDbgDll:ChilkatRand.obj
 0001:00069d60       ??1ChilkatRand@@UAE@XZ     0046ad60 f   ChilkatDbgDll:ChilkatRand.obj
 0001:00069d7b       ?randomUnsignedLong@ChilkatRand@@SAIXZ 0046ad7b f   ChilkatDbgDll:ChilkatRand.obj
 0001:00069e3e       ?forceReinitialize@ChilkatRand@@SAXXZ 0046ae3e f   ChilkatDbgDll:ChilkatRand.obj
 0001:00069e9c       ?randomBytes@ChilkatRand@@SA_NHAAVDataBuffer@@@Z 0046ae9c f   ChilkatDbgDll:ChilkatRand.obj
 0001:00069fdc       ?randomNonZeroBytes2@ChilkatRand@@SAXHAAVDataBuffer@@@Z 0046afdc f   ChilkatDbgDll:ChilkatRand.obj
 0001:0006a170       ??_EChilkatRand@@UAEPAXI@Z 0046b170 f i ChilkatDbgDll:ChilkatRand.obj
 0001:0006a170       ??_GChilkatRand@@UAEPAXI@Z 0046b170 f i ChilkatDbgDll:ChilkatRand.obj
 0001:0006a1b0       ?RemoveFilenamePart@FileSys@@SAXAAVXString@@@Z 0046b1b0 f   ChilkatDbgDll:FileSys.obj
 0001:0006a257       ?GetFinalFilenamePart@FileSys@@SAXAAVXString@@0@Z 0046b257 f   ChilkatDbgDll:FileSys.obj
 0001:0006a440       ?GetFullPathname@FileSys@@SAXAAVXString@@0@Z 0046b440 f   ChilkatDbgDll:FileSys.obj
 0001:0006a5a5       ?getCurrentDirWin32@FileSys@@SAXAAVXString@@@Z 0046b5a5 f   ChilkatDbgDll:FileSys.obj
 0001:0006a6b6       ?GetTemporaryPath@FileSys@@SAXAAVXString@@@Z 0046b6b6 f   ChilkatDbgDll:FileSys.obj
 0001:0006a7e4       ?GetTemporaryFilename@FileSys@@SA_NAAVXString@@00AAVLogBase@@@Z 0046b7e4 f   ChilkatDbgDll:FileSys.obj
 0001:0006a8b7       ?GetModuleFilename@FileSys@@SAXAAVXString@@@Z 0046b8b7 f   ChilkatDbgDll:FileSys.obj
 0001:0006a9c0       ?moveFileUtf8@FileSys@@SA_NPBD0PAVLogBase@@@Z 0046b9c0 f   ChilkatDbgDll:FileSys.obj
 0001:0006aa93       ?moveFileX@FileSys@@SA_NAAVXString@@0PAVLogBase@@@Z 0046ba93 f   ChilkatDbgDll:FileSys.obj
 0001:0006aab3       ?moveFileWin32@FileSys@@CA_NAAVXString@@0PAVLogBase@@@Z 0046bab3 f   ChilkatDbgDll:FileSys.obj
 0001:0006acfd       ?copyFileX@FileSys@@SA_NAAVXString@@0_NPAVLogBase@@@Z 0046bcfd f   ChilkatDbgDll:FileSys.obj
 0001:0006ad21       ?copyFileWin32@FileSys@@CA_NAAVXString@@0_NPAVLogBase@@@Z 0046bd21 f   ChilkatDbgDll:FileSys.obj
 0001:0006aee2       ?buildLongPath@FileSys@@SAXAAVXString@@0@Z 0046bee2 f   ChilkatDbgDll:FileSys.obj
 0001:0006b001       ?deleteFileX@FileSys@@SA_NAAVXString@@PAVLogBase@@@Z 0046c001 f   ChilkatDbgDll:FileSys.obj
 0001:0006b01d       ?deleteFileWin32@FileSys@@CA_NAAVXString@@PAVLogBase@@@Z 0046c01d f   ChilkatDbgDll:FileSys.obj
 0001:0006b2e7       ?checkFixWindowsFilenameChars@FileSys@@SAXAAVXString@@_NPAVLogBase@@@Z 0046c2e7 f   ChilkatDbgDll:FileSys.obj
 0001:0006bdfa       ?openFileWin32@FileSys@@SAPAVChilkatHandle@@AAVXString@@_N1111AAHPAVLogBase@@@Z 0046cdfa f   ChilkatDbgDll:FileSys.obj
 0001:0006c3d1       ?openForWriteWin32@FileSys@@SAPAVChilkatHandle@@AAVXString@@AAHPAVLogBase@@@Z 0046d3d1 f   ChilkatDbgDll:FileSys.obj
 0001:0006c452       ?openForWriteHiddenWin32@FileSys@@SAPAVChilkatHandle@@AAVXString@@AAHPAVLogBase@@@Z 0046d452 f   ChilkatDbgDll:FileSys.obj
 0001:0006c4d3       ?IsExistingDirectory@FileSys@@SA_NAAVXString@@AA_NPAVLogBase@@@Z 0046d4d3 f   ChilkatDbgDll:FileSys.obj
 0001:0006c552       ?GetWin32FileAttributes@FileSys@@SA_NAAVXString@@AAI1PAVLogBase@@@Z 0046d552 f   ChilkatDbgDll:FileSys.obj
 0001:0006c776       ?openForReadWin32@FileSys@@SAPAVChilkatHandle@@AAVXString@@AAHPAVLogBase@@@Z 0046d776 f   ChilkatDbgDll:FileSys.obj
 0001:0006c7ba       ?openDirForReadWin32@FileSys@@SAPAVChilkatHandle@@AAVXString@@AAHPAVLogBase@@@Z 0046d7ba f   ChilkatDbgDll:FileSys.obj
 0001:0006ca1b       ?openDirForReadWriteWin32@FileSys@@SAPAVChilkatHandle@@AAVXString@@AAHPAVLogBase@@@Z 0046da1b f   ChilkatDbgDll:FileSys.obj
 0001:0006cc6b       ?openForReadWriteWin32@FileSys@@SAPAVChilkatHandle@@AAVXString@@_NAAHPAVLogBase@@@Z 0046dc6b f   ChilkatDbgDll:FileSys.obj
 0001:0006ccee       ?openForAppendWin32@FileSys@@SAPAVChilkatHandle@@AAVXString@@AAHPAVLogBase@@@Z 0046dcee f   ChilkatDbgDll:FileSys.obj
 0001:0006cd6f       ?ReadBytes@FileSys@@SA_NAAVChilkatHandle@@IAAVDataBuffer@@AAVLogBase@@@Z 0046dd6f f   ChilkatDbgDll:FileSys.obj
 0001:0006ce17       ?createDirWin32@FileSys@@SA_NAAVXString@@PAVLogBase@@@Z 0046de17 f   ChilkatDbgDll:FileSys.obj
 0001:0006cfec       ?setCurrentDirWin32@FileSys@@SA_NAAVXString@@@Z 0046dfec f   ChilkatDbgDll:FileSys.obj
 0001:0006d17c       ?setFileTimeGmt@FileSys@@SA_NAAVXString@@AAVChilkatFileTime@@PAVLogBase@@@Z 0046e17c f   ChilkatDbgDll:FileSys.obj
 0001:0006d234       ?setFileTimeGmt_3@FileSys@@SA_NAAVXString@@AAVChilkatFileTime@@11PAVLogBase@@@Z 0046e234 f   ChilkatDbgDll:FileSys.obj
 0001:0006d2f4       ?setFileAttrWin32@FileSys@@SA_NAAVXString@@I@Z 0046e2f4 f   ChilkatDbgDll:FileSys.obj
 0001:0006d4a1       ??0FileSys@@QAE@XZ         0046e4a1 f   ChilkatDbgDll:FileSys.obj
 0001:0006d4bf       ??1FileSys@@UAE@XZ         0046e4bf f   ChilkatDbgDll:FileSys.obj
 0001:0006d4da       ?fileSizeX_32@FileSys@@SAIAAVXString@@PAVLogBase@@AA_N@Z 0046e4da f   ChilkatDbgDll:FileSys.obj
 0001:0006d596       ?fileSizeX_64@FileSys@@SA_JAAVXString@@PAVLogBase@@AA_N@Z 0046e596 f   ChilkatDbgDll:FileSys.obj
 0001:0006d673       ?fileExistsX@FileSys@@SA_NAAVXString@@PAVLogBase@@@Z 0046e673 f   ChilkatDbgDll:FileSys.obj
 0001:0006d6ff       ?fileExistsUtf8@FileSys@@SA_NPBDPAVLogBase@@@Z 0046e6ff f   ChilkatDbgDll:FileSys.obj
 0001:0006d79e       ?GetFileCreateTimeGmt@FileSys@@SA_NAAVXString@@AAVChilkatFileTime@@PAVLogBase@@@Z 0046e79e f   ChilkatDbgDll:FileSys.obj
 0001:0006d8fd       ?GetFileLastModTimeGmt@FileSys@@SA_NAAVXString@@AAVChilkatFileTime@@PAVLogBase@@@Z 0046e8fd f   ChilkatDbgDll:FileSys.obj
 0001:0006da5c       ?CombineDirAndFilename@FileSys@@SAXAAVXString@@00@Z 0046ea5c f   ChilkatDbgDll:FileSys.obj
 0001:0006db7a       ?AbsoluteToRelative@FileSys@@SAXAAVXString@@@Z 0046eb7a f   ChilkatDbgDll:FileSys.obj
 0001:0006de41       ?IsAbsolutePath@FileSys@@SA_NPBD@Z 0046ee41 f   ChilkatDbgDll:FileSys.obj
 0001:0006df62       ?CombineDirAndFilepathSkipAbs@FileSys@@SAXAAVXString@@00@Z 0046ef62 f   ChilkatDbgDll:FileSys.obj
 0001:0006dfaa       ?CombineDirAndFilepath@FileSys@@SAXAAVXString@@00@Z 0046efaa f   ChilkatDbgDll:FileSys.obj
 0001:0006e0cd       ?deleteDir@FileSys@@SA_NAAVXString@@PAVLogBase@@@Z 0046f0cd f   ChilkatDbgDll:FileSys.obj
 0001:0006e234       ?deleteTreeUtf8@FileSys@@SAXPBDAAVLogBase@@@Z 0046f234 f   ChilkatDbgDll:FileSys.obj
 0001:0006e4d6       ?deleteFileUtf8@FileSys@@SA_NPBDPAVLogBase@@@Z 0046f4d6 f   ChilkatDbgDll:FileSys.obj
 0001:0006e575       ?GetTempFilename2Utf8@FileSys@@SA_NPBDAAVStringBuffer@@AAVLogBase@@@Z 0046f575 f   ChilkatDbgDll:FileSys.obj
 0001:0006e653       ?GetTempFilename2@FileSys@@SA_NAAVXString@@0AAVLogBase@@@Z 0046f653 f   ChilkatDbgDll:FileSys.obj
 0001:0006e6fa       ?GetTempFilename3Utf8@FileSys@@SA_NPBD0AAVStringBuffer@@AAVLogBase@@@Z 0046f6fa f   ChilkatDbgDll:FileSys.obj
 0001:0006e818       ?AppendRandomStr@FileSys@@SAXAAVStringBuffer@@@Z 0046f818 f   ChilkatDbgDll:FileSys.obj
 0001:0006e8cd       ?GetTempFilename3@FileSys@@SA_NAAVXString@@00AAVLogBase@@@Z 0046f8cd f   ChilkatDbgDll:FileSys.obj
 0001:0006ed61       ?WriteTempFile@FileSys@@SA_NAAVXString@@0PBDI0PAVLogBase@@@Z 0046fd61 f   ChilkatDbgDll:FileSys.obj
 0001:0006ee64       ?copyFileData@FileSys@@SA_NAAVChilkatHandle@@0_JIPAVProgressMonitor@@PAVLogBase@@@Z 0046fe64 f   ChilkatDbgDll:FileSys.obj
 0001:0006f032       ?CopyToHandle@FileSys@@SA_NAAVXString@@_J1AAVChilkatHandle@@IPAVProgressMonitor@@PAVLogBase@@@Z 00470032 f   ChilkatDbgDll:FileSys.obj
 0001:0006f17a       ?WriteBytes@FileSys@@SA_NAAVChilkatHandle@@PBEIAAVLogBase@@@Z 0047017a f   ChilkatDbgDll:FileSys.obj
 0001:0006f1cb       ?writeFileAnsi@FileSys@@SA_NPBD0IPAVLogBase@@@Z 004701cb f   ChilkatDbgDll:FileSys.obj
 0001:0006f272       ?writeFileX@FileSys@@SA_NAAVXString@@PBDIPAVLogBase@@@Z 00470272 f   ChilkatDbgDll:FileSys.obj
 0001:0006f40e       ?appendFileX@FileSys@@SA_NAAVXString@@PBDIPAVLogBase@@@Z 0047040e f   ChilkatDbgDll:FileSys.obj
 0001:0006f5ae       ?writeToOpenFile@FileSys@@SA_NAAVChilkatHandle@@PBDIPAVLogBase@@@Z 004705ae f   ChilkatDbgDll:FileSys.obj
 0001:0006f643       ?writeFileWithHeaderX@FileSys@@SA_NAAVXString@@PBDI1IPAVLogBase@@@Z 00470643 f   ChilkatDbgDll:FileSys.obj
 0001:0006f800       ?writeFileUtf8@FileSys@@SA_NPBDABVDataBuffer@@PAVLogBase@@@Z 00470800 f   ChilkatDbgDll:FileSys.obj
 0001:0006f8b1       ?writeFileUtf8@FileSys@@SA_NPBD0IPAVLogBase@@@Z 004708b1 f   ChilkatDbgDll:FileSys.obj
 0001:0006f958       ?fileSizeUtf8_32@FileSys@@SAIPBDPAVLogBase@@AA_N@Z 00470958 f   ChilkatDbgDll:FileSys.obj
 0001:0006f9fb       ?fileSizeUtf8_64@FileSys@@SA_JPBDPAVLogBase@@AA_N@Z 004709fb f   ChilkatDbgDll:FileSys.obj
 0001:0006faaa       ?OpenForWrite3@FileSys@@SA_NAAVChilkatHandle@@HAAVXString@@AAHPAVLogBase@@@Z 00470aaa f   ChilkatDbgDll:FileSys.obj
 0001:0006fb33       ?OpenForWriteHidden3@FileSys@@SA_NAAVChilkatHandle@@AAVXString@@AAHPAVLogBase@@@Z 00470b33 f   ChilkatDbgDll:FileSys.obj
 0001:0006fbbc       ?checkOpenForRead@FileSys@@SA_NAAVXString@@PAVLogBase@@@Z 00470bbc f   ChilkatDbgDll:FileSys.obj
 0001:0006fc3f       ?OpenForRead3@FileSys@@SA_NAAVChilkatHandle@@AAVXString@@AAHPAVLogBase@@@Z 00470c3f f   ChilkatDbgDll:FileSys.obj
 0001:0006fccf       ?OpenDirForRead3@FileSys@@SA_NAAVChilkatHandle@@AAVXString@@AAHPAVLogBase@@@Z 00470ccf f   ChilkatDbgDll:FileSys.obj
 0001:0006fd58       ?OpenDirForReadWrite3@FileSys@@SA_NAAVChilkatHandle@@AAVXString@@AAHPAVLogBase@@@Z 00470d58 f   ChilkatDbgDll:FileSys.obj
 0001:0006fde1       ?OpenForReadWrite3@FileSys@@SA_NAAVChilkatHandle@@AAVXString@@_NAAHPAVLogBase@@@Z 00470de1 f   ChilkatDbgDll:FileSys.obj
 0001:0006fe6e       ?OpenForAppend3@FileSys@@SA_NAAVChilkatHandle@@AAVXString@@AAHPAVLogBase@@@Z 00470e6e f   ChilkatDbgDll:FileSys.obj
 0001:0006fef7       ?win32CreateDirectoryAnsi@FileSys@@SAHPBDPAU_SECURITY_ATTRIBUTES@@@Z 00470ef7 f   ChilkatDbgDll:FileSys.obj
 0001:0006ff1c       ?win32SetFileAttributesAnsi@FileSys@@SA_NPBDI@Z 00470f1c f   ChilkatDbgDll:FileSys.obj
 0001:0006ff46       ?win32SetFileAttributesUtf8@FileSys@@SA_NPBDI@Z 00470f46 f   ChilkatDbgDll:FileSys.obj
 0001:00070066       ?win32GetFileAttributesAnsi@FileSys@@SAIPBD@Z 00471066 f   ChilkatDbgDll:FileSys.obj
 0001:00070087       ?win32GetFileAttributesUtf8@FileSys@@SAIPBD@Z 00471087 f   ChilkatDbgDll:FileSys.obj
 0001:00070195       ?win32CreateFileAnsi@FileSys@@SAPAXPBDIIPAU_SECURITY_ATTRIBUTES@@IIPAX@Z 00471195 f   ChilkatDbgDll:FileSys.obj
 0001:000701ce       ?deleteMatchingUtf8@FileSys@@SAXPBD_NAAVLogBase@@@Z 004711ce f   ChilkatDbgDll:FileSys.obj
 0001:00070400       ??_GFileSys@@UAEPAXI@Z     00471400 f i ChilkatDbgDll:FileSys.obj
 0001:00070400       ??_EFileSys@@UAEPAXI@Z     00471400 f i ChilkatDbgDll:FileSys.obj
 0001:00070440       ?get_Count@ClsStringArray@@QAEHXZ 00471440 f   ChilkatDbgDll:ClsStringArray.obj
 0001:000704e1       ?get_Length@ClsStringArray@@QAEHXZ 004714e1 f   ChilkatDbgDll:ClsStringArray.obj
 0001:00070582       ?InsertAt@ClsStringArray@@QAE_NHAAVXString@@@Z 00471582 f   ChilkatDbgDll:ClsStringArray.obj
 0001:0007070c       ?hashAdd@ClsStringArray@@AAE_NABVStringBuffer@@@Z 0047170c f   ChilkatDbgDll:ClsStringArray.obj
 0001:000707e0       ?Prepend@ClsStringArray@@QAE_NAAVXString@@@Z 004717e0 f   ChilkatDbgDll:ClsStringArray.obj
 0001:00070968       ?findStringByHash@ClsStringArray@@AAEPAVChilkatInt@@ABVStringBuffer@@@Z 00471968 f   ChilkatDbgDll:ClsStringArray.obj
 0001:000709a8       ?appendMime@ClsStringArray@@QAE_NPAVStringBuffer@@@Z 004719a8 f   ChilkatDbgDll:ClsStringArray.obj
 0001:00070a59       ?appendSbUtf8@ClsStringArray@@QAE_NPAVStringBuffer@@@Z 00471a59 f   ChilkatDbgDll:ClsStringArray.obj
 0001:00070b77       ?Subtract@ClsStringArray@@QAEXAAV1@@Z 00471b77 f   ChilkatDbgDll:ClsStringArray.obj
 0001:00070dcd       ?Union@ClsStringArray@@QAEXAAV1@@Z 00471dcd f   ChilkatDbgDll:ClsStringArray.obj
 0001:00070ebc       ?findSubstring@ClsStringArray@@QAE_NABVStringBuffer@@_NAAV2@@Z 00471ebc f   ChilkatDbgDll:ClsStringArray.obj
 0001:00071030       ?dotNetDispose@ClsStringArray@@UAEXXZ 00472030 f   ChilkatDbgDll:ClsStringArray.obj
 0001:0007111c       ??1ClsStringArray@@UAE@XZ  0047211c f   ChilkatDbgDll:ClsStringArray.obj
 0001:000712a1       ?Clear@ClsStringArray@@QAE_NXZ 004722a1 f   ChilkatDbgDll:ClsStringArray.obj
 0001:000713b0       ?clear2@ClsStringArray@@QAE_NH@Z 004723b0 f   ChilkatDbgDll:ClsStringArray.obj
 0001:000714c0       ?removeUtf8@ClsStringArray@@QAE_NPBD@Z 004724c0 f   ChilkatDbgDll:ClsStringArray.obj
 0001:000716dc       ?getStringUtf8@ClsStringArray@@QAEPBDH@Z 004726dc f   ChilkatDbgDll:ClsStringArray.obj
 0001:000717a0       ?GetSb@ClsStringArray@@QAEPAVStringBuffer@@H@Z 004727a0 f   ChilkatDbgDll:ClsStringArray.obj
 0001:00071847       ?getToSbUtf8@ClsStringArray@@QAE_NHAAVStringBuffer@@@Z 00472847 f   ChilkatDbgDll:ClsStringArray.obj
 0001:00071904       ?serializeToSb@ClsStringArray@@QAE_NAAVStringBuffer@@@Z 00472904 f   ChilkatDbgDll:ClsStringArray.obj
 0001:00071ac6       ?LoadFromText@ClsStringArray@@QAE_NAAVXString@@@Z 00472ac6 f   ChilkatDbgDll:ClsStringArray.obj
 0001:00071b9d       ?loadFromSbUtf8@ClsStringArray@@QAE_NABVStringBuffer@@AAVLogBase@@@Z 00472b9d f   ChilkatDbgDll:ClsStringArray.obj
 0001:00071dd9       ?loadFromFileUtf8@ClsStringArray@@QAE_NPBDAAVLogBase@@@Z 00472dd9 f   ChilkatDbgDll:ClsStringArray.obj
 0001:00071f4e       ?loadFromSbAnsi@ClsStringArray@@QAE_NABVStringBuffer@@AAVLogBase@@@Z 00472f4e f   ChilkatDbgDll:ClsStringArray.obj
 0001:00072016       ?tokenizeUtf8@ClsStringArray@@QAEXPBDPAD@Z 00473016 f   ChilkatDbgDll:ClsStringArray.obj
 0001:0007219c       ?SplitAndAppend@ClsStringArray@@QAEXAAVXString@@0@Z 0047319c f   ChilkatDbgDll:ClsStringArray.obj
 0001:0007239d       ?toDelimitedString@ClsStringArray@@QAEXPBDAAVXString@@@Z 0047339d f   ChilkatDbgDll:ClsStringArray.obj
 0001:000724b2       ?SaveToText@ClsStringArray@@QAE_NAAVXString@@@Z 004734b2 f   ChilkatDbgDll:ClsStringArray.obj
 0001:0007258c       ?saveToText@ClsStringArray@@QAE_NAAVXString@@AAVLogBase@@@Z 0047358c f   ChilkatDbgDll:ClsStringArray.obj
 0001:000726c2       ?SaveNthToFile@ClsStringArray@@QAE_NHAAVXString@@@Z 004736c2 f   ChilkatDbgDll:ClsStringArray.obj
 0001:000727f6       ?appendSerializedSb@ClsStringArray@@QAE_NABVStringBuffer@@@Z 004737f6 f   ChilkatDbgDll:ClsStringArray.obj
 0001:00072990       ?get_Unique@ClsStringArray@@QAE_NXZ 00473990 f   ChilkatDbgDll:ClsStringArray.obj
 0001:000729ab       ?put_Unique@ClsStringArray@@QAE_N_N@Z 004739ab f   ChilkatDbgDll:ClsStringArray.obj
 0001:000729f0       ?get_Trim@ClsStringArray@@QAE_NXZ 004739f0 f   ChilkatDbgDll:ClsStringArray.obj
 0001:00072a0b       ?put_Trim@ClsStringArray@@QAE_N_N@Z 00473a0b f   ChilkatDbgDll:ClsStringArray.obj
 0001:00072acb       ?get_Crlf@ClsStringArray@@QAE_NXZ 00473acb f   ChilkatDbgDll:ClsStringArray.obj
 0001:00072ae6       ?put_Crlf@ClsStringArray@@QAE_N_N@Z 00473ae6 f   ChilkatDbgDll:ClsStringArray.obj
 0001:00072ba6       ?Serialize@ClsStringArray@@QAE_NAAVXString@@@Z 00473ba6 f   ChilkatDbgDll:ClsStringArray.obj
 0001:00072c54       ?GetStringLen@ClsStringArray@@QAEHH@Z 00473c54 f   ChilkatDbgDll:ClsStringArray.obj
 0001:00072d2d       ?FindFirstMatch@ClsStringArray@@QAEHAAVXString@@H@Z 00473d2d f   ChilkatDbgDll:ClsStringArray.obj
 0001:00072f13       ?Find@ClsStringArray@@QAEHAAVXString@@H@Z 00473f13 f   ChilkatDbgDll:ClsStringArray.obj
 0001:00072fe7       ?findStrUtf8@ClsStringArray@@QAEHPBDH@Z 00473fe7 f   ChilkatDbgDll:ClsStringArray.obj
 0001:0007317f       ?prepareString@ClsStringArray@@AAEXAAVStringBuffer@@@Z 0047417f f   ChilkatDbgDll:ClsStringArray.obj
 0001:000731dd       ?updateStrings@ClsStringArray@@AAEXXZ 004741dd f   ChilkatDbgDll:ClsStringArray.obj
 0001:00073259       ?Sort@ClsStringArray@@QAEX_N@Z 00474259 f   ChilkatDbgDll:ClsStringArray.obj
 0001:000733fd       ?Randomize@ClsStringArray@@QAEXH@Z 004743fd f   ChilkatDbgDll:ClsStringArray.obj
 0001:0007354f       ?buildFromGridColumn@ClsStringArray@@QAEXAAV_ckGrid@@H_N@Z 0047454f f   ChilkatDbgDll:ClsStringArray.obj
 0001:000736d6       ?getInternalArrayBeCareful@ClsStringArray@@QAEAAVExtPtrArray@@XZ 004746d6 f   ChilkatDbgDll:ClsStringArray.obj
 0001:000736f0       ?createNewCls@ClsStringArray@@SAPAV1@XZ 004746f0 f   ChilkatDbgDll:ClsStringArray.obj
 0001:000737ae       ??0ClsStringArray@@QAE@XZ  004747ae f   ChilkatDbgDll:ClsStringArray.obj
 0001:00073897       ?LoadFromFile@ClsStringArray@@QAE_NAAVXString@@@Z 00474897 f   ChilkatDbgDll:ClsStringArray.obj
 0001:00073a17       ?SaveToFile@ClsStringArray@@QAE_NAAVXString@@@Z 00474a17 f   ChilkatDbgDll:ClsStringArray.obj
 0001:00073e5e       ?ensureHash@ClsStringArray@@AAE_NXZ 00474e5e f   ChilkatDbgDll:ClsStringArray.obj
 0001:00073eae       ?get_KeepHash@ClsStringArray@@QBE_NXZ 00474eae f   ChilkatDbgDll:ClsStringArray.obj
 0001:00073ec9       ?put_KeepHash@ClsStringArray@@QAEX_N@Z 00474ec9 f   ChilkatDbgDll:ClsStringArray.obj
 0001:00073fe8       ?AppendSerialized@ClsStringArray@@QAE_NAAVXString@@@Z 00474fe8 f   ChilkatDbgDll:ClsStringArray.obj
 0001:000740b8       ?Remove@ClsStringArray@@QAE_NAAVXString@@@Z 004750b8 f   ChilkatDbgDll:ClsStringArray.obj
 0001:00074188       ?Contains@ClsStringArray@@QAE_NAAVXString@@@Z 00475188 f   ChilkatDbgDll:ClsStringArray.obj
 0001:00074258       ?containsUtf8@ClsStringArray@@QAE_NPBD@Z 00475258 f   ChilkatDbgDll:ClsStringArray.obj
 0001:00074380       ?LoadFromFile2@ClsStringArray@@QAE_NAAVXString@@0@Z 00475380 f   ChilkatDbgDll:ClsStringArray.obj
 0001:00074520       ?SaveToFile2@ClsStringArray@@QAE_NAAVXString@@0@Z 00475520 f   ChilkatDbgDll:ClsStringArray.obj
 0001:000745f6       ?saveToFile2@ClsStringArray@@QAE_NAAVXString@@0AAVLogBase@@@Z 004755f6 f   ChilkatDbgDll:ClsStringArray.obj
 0001:000747fe       ?Append@ClsStringArray@@QAE_NAAVXString@@@Z 004757fe f   ChilkatDbgDll:ClsStringArray.obj
 0001:000748d7       ?appendAnsi@ClsStringArray@@QAE_NPBD@Z 004758d7 f   ChilkatDbgDll:ClsStringArray.obj
 0001:0007499a       ?appendUtf8@ClsStringArray@@QAE_NPBD@Z 0047599a f   ChilkatDbgDll:ClsStringArray.obj
 0001:000749db       ?appendUtf8N@ClsStringArray@@QAE_NPBDI@Z 004759db f   ChilkatDbgDll:ClsStringArray.obj
 0001:00074b1c       ?Pop@ClsStringArray@@QAE_NAAVXString@@@Z 00475b1c f   ChilkatDbgDll:ClsStringArray.obj
 0001:00074c40       ?RemoveAt@ClsStringArray@@QAE_NH@Z 00475c40 f   ChilkatDbgDll:ClsStringArray.obj
 0001:00074d0b       ?removeAt@ClsStringArray@@QAE_NH@Z 00475d0b f   ChilkatDbgDll:ClsStringArray.obj
 0001:00074e39       ?StrAt@ClsStringArray@@QAE_NHAAVXString@@@Z 00475e39 f   ChilkatDbgDll:ClsStringArray.obj
 0001:00074f08       ?GetString@ClsStringArray@@QAE_NHAAVXString@@@Z 00475f08 f   ChilkatDbgDll:ClsStringArray.obj
 0001:00074fd7       ?getString@ClsStringArray@@QAE_NHAAVXString@@@Z 00475fd7 f   ChilkatDbgDll:ClsStringArray.obj
 0001:000750b1       ?LastString@ClsStringArray@@QAE_NAAVXString@@@Z 004760b1 f   ChilkatDbgDll:ClsStringArray.obj
 0001:0007517c       ?lastString@ClsStringArray@@QAE_NAAVXString@@@Z 0047617c f   ChilkatDbgDll:ClsStringArray.obj
 0001:00075260       ??_EClsStringArray@@UAEPAXI@Z 00476260 f i ChilkatDbgDll:ClsStringArray.obj
 0001:00075260       ??_GClsStringArray@@UAEPAXI@Z 00476260 f i ChilkatDbgDll:ClsStringArray.obj
 0001:000752a0       ??_EClsStringArray@@W3AEPAXI@Z 004762a0 f i ChilkatDbgDll:ClsStringArray.obj
 0001:000752b0       ??_EClsStringArray@@WCA@AEPAXI@Z 004762b0 f i ChilkatDbgDll:ClsStringArray.obj
 0001:000752c0       ??_EClsStringArray@@WCI@AEPAXI@Z 004762c0 f i ChilkatDbgDll:ClsStringArray.obj
 0001:000752d0       ?checkInitialize@ExtPtrArray@@AAEXXZ 004762d0 f   ChilkatDbgDll:extPtrArray.obj
 0001:000753a2       ??0ExtPtrArray@@QAE@HH@Z   004763a2 f   ChilkatDbgDll:extPtrArray.obj
 0001:0007546c       ?createNewObject@ExtPtrArray@@SAPAV1@XZ 0047646c f   ChilkatDbgDll:extPtrArray.obj
 0001:00075527       ??0ExtPtrArray@@QAE@XZ     00476527 f   ChilkatDbgDll:extPtrArray.obj
 0001:00075574       ?clearForRecycle@ExtPtrArray@@QAEXXZ 00476574 f   ChilkatDbgDll:extPtrArray.obj
 0001:000755ff       ??1ExtPtrArray@@UAE@XZ     004765ff f   ChilkatDbgDll:extPtrArray.obj
 0001:00075687       ?transferPtrs@ExtPtrArray@@QAE_NAAV1@@Z 00476687 f   ChilkatDbgDll:extPtrArray.obj
 0001:00075712       ?getSize@ExtPtrArray@@QBEHXZ 00476712 f   ChilkatDbgDll:extPtrArray.obj
 0001:0007572a       ?elementAt@ExtPtrArray@@QBEPAXH@Z 0047672a f   ChilkatDbgDll:extPtrArray.obj
 0001:0007576c       ?sbAt@ExtPtrArray@@QBEPAVStringBuffer@@H@Z 0047676c f   ChilkatDbgDll:extPtrArray.obj
 0001:000757ae       ?lastElement@ExtPtrArray@@QBEPAXXZ 004767ae f   ChilkatDbgDll:extPtrArray.obj
 0001:000757e9       ?incrementSize@ExtPtrArray@@AAE_NXZ 004767e9 f   ChilkatDbgDll:extPtrArray.obj
 0001:000759b0       ?insertAt@ExtPtrArray@@QAEXHPAX@Z 004769b0 f   ChilkatDbgDll:extPtrArray.obj
 0001:00075a72       ?removeAll@ExtPtrArray@@QAEXXZ 00476a72 f   ChilkatDbgDll:extPtrArray.obj
 0001:00075a8e       ?removeAt@ExtPtrArray@@QAEPAXH@Z 00476a8e f   ChilkatDbgDll:extPtrArray.obj
 0001:00075b87       ?appendPtr@ExtPtrArray@@QAE_NPAX@Z 00476b87 f   ChilkatDbgDll:extPtrArray.obj
 0001:00075bdc       ?appendObject@ExtPtrArray@@QAE_NPAVChilkatObject@@@Z 00476bdc f   ChilkatDbgDll:extPtrArray.obj
 0001:00075c31       ?swap@ExtPtrArray@@QAEXHH@Z 00476c31 f   ChilkatDbgDll:extPtrArray.obj
 0001:00075cb6       ?setAt@ExtPtrArray@@QAEXHPAX@Z 00476cb6 f   ChilkatDbgDll:extPtrArray.obj
 0001:00075d2d       ?pop@ExtPtrArray@@QAEPAXXZ 00476d2d f   ChilkatDbgDll:extPtrArray.obj
 0001:00075d9c       ?logStrings@ExtPtrArray@@QAEXAAVLogBase@@PBD@Z 00476d9c f   ChilkatDbgDll:extPtrArray.obj
 0001:00075e2c       ?containsString@ExtPtrArray@@QAE_NPBD_N@Z 00476e2c f   ChilkatDbgDll:extPtrArray.obj
 0001:00075ef9       ??0ExtPtrArray@@AAE@ABV0@@Z 00476ef9 f   ChilkatDbgDll:extPtrArray.obj
 0001:00075f19       ?firstOccurance@ExtPtrArray@@QBEHPAX@Z 00476f19 f   ChilkatDbgDll:extPtrArray.obj
 0001:00075f8a       ?removeAllStrings@ExtPtrArray@@QAEXXZ 00476f8a f   ChilkatDbgDll:extPtrArray.obj
 0001:00076031       ?removeAllObjects@ExtPtrArray@@QAEXXZ 00477031 f   ChilkatDbgDll:extPtrArray.obj
 0001:00076107       ?recycleAllSBs@ExtPtrArray@@QAEXXZ 00477107 f   ChilkatDbgDll:extPtrArray.obj
 0001:000761b2       ?removeVal@ExtPtrArray@@QAEXPAX@Z 004771b2 f   ChilkatDbgDll:extPtrArray.obj
 0001:0007624f       ?copyTo@ExtPtrArray@@QBEXPAPAX@Z 0047724f f   ChilkatDbgDll:extPtrArray.obj
 0001:000762a0       ?sort@ExtPtrArray@@QAEXP6AHPBX0@Z@Z 004772a0 f   ChilkatDbgDll:extPtrArray.obj
 0001:00076300       ??_GExtPtrArray@@UAEPAXI@Z 00477300 f i ChilkatDbgDll:extPtrArray.obj
 0001:00076300       ??_EExtPtrArray@@UAEPAXI@Z 00477300 f i ChilkatDbgDll:extPtrArray.obj
 0001:00076340       ??0CkStringArray@@AAE@ABV0@@Z 00477340 f   ChilkatDbgDll:CkStringArray.obj
 0001:00076372       ??4CkStringArray@@AAEAAV0@ABV0@@Z 00477372 f   ChilkatDbgDll:CkStringArray.obj
 0001:00076389       ??1CkStringArray@@UAE@XZ   00477389 f   ChilkatDbgDll:CkStringArray.obj
 0001:0007643a       ?createNew@CkStringArray@@SAPAV1@XZ 0047743a f   ChilkatDbgDll:CkStringArray.obj
 0001:000764f5       ?inject@CkStringArray@@QAEXPAX@Z 004774f5 f   ChilkatDbgDll:CkStringArray.obj
 0001:000765b8       ?dispose@CkStringArray@@QAEXXZ 004775b8 f   ChilkatDbgDll:CkStringArray.obj
 0001:00076600       ??0CkStringArray@@QAE@XZ   00477600 f   ChilkatDbgDll:CkStringArray.obj
 0001:000766a1       ?get_Crlf@CkStringArray@@QAE_NXZ 004776a1 f   ChilkatDbgDll:CkStringArray.obj
 0001:000766d7       ?put_Crlf@CkStringArray@@QAEX_N@Z 004776d7 f   ChilkatDbgDll:CkStringArray.obj
 0001:00076713       ?get_Trim@CkStringArray@@QAE_NXZ 00477713 f   ChilkatDbgDll:CkStringArray.obj
 0001:00076749       ?put_Trim@CkStringArray@@QAEX_N@Z 00477749 f   ChilkatDbgDll:CkStringArray.obj
 0001:00076785       ?get_Unique@CkStringArray@@QAE_NXZ 00477785 f   ChilkatDbgDll:CkStringArray.obj
 0001:000767bb       ?put_Unique@CkStringArray@@QAEX_N@Z 004777bb f   ChilkatDbgDll:CkStringArray.obj
 0001:000767f7       ?get_Length@CkStringArray@@QAEHXZ 004777f7 f   ChilkatDbgDll:CkStringArray.obj
 0001:0007682d       ?get_Count@CkStringArray@@QAEHXZ 0047782d f   ChilkatDbgDll:CkStringArray.obj
 0001:00076863       ?Append@CkStringArray@@QAE_NPBD@Z 00477863 f   ChilkatDbgDll:CkStringArray.obj
 0001:00076924       ?AppendSerialized@CkStringArray@@QAE_NPBD@Z 00477924 f   ChilkatDbgDll:CkStringArray.obj
 0001:000769e5       ?Clear@CkStringArray@@QAEXXZ 004779e5 f   ChilkatDbgDll:CkStringArray.obj
 0001:00076a1b       ?Contains@CkStringArray@@QAE_NPBD@Z 00477a1b f   ChilkatDbgDll:CkStringArray.obj
 0001:00076adc       ?Find@CkStringArray@@QAEHPBDH@Z 00477adc f   ChilkatDbgDll:CkStringArray.obj
 0001:00076ba1       ?FindFirstMatch@CkStringArray@@QAEHPBDH@Z 00477ba1 f   ChilkatDbgDll:CkStringArray.obj
 0001:00076c66       ?GetString@CkStringArray@@QAE_NHAAVCkString@@@Z 00477c66 f   ChilkatDbgDll:CkStringArray.obj
 0001:00076cb8       ?getString@CkStringArray@@QAEPBDH@Z 00477cb8 f   ChilkatDbgDll:CkStringArray.obj
 0001:00076d4f       ?string@CkStringArray@@QAEPBDH@Z 00477d4f f   ChilkatDbgDll:CkStringArray.obj
 0001:00076de6       ?GetStringLen@CkStringArray@@QAEHH@Z 00477de6 f   ChilkatDbgDll:CkStringArray.obj
 0001:00076e22       ?InsertAt@CkStringArray@@QAEXHPBD@Z 00477e22 f   ChilkatDbgDll:CkStringArray.obj
 0001:00076edb       ?LastString@CkStringArray@@QAE_NAAVCkString@@@Z 00477edb f   ChilkatDbgDll:CkStringArray.obj
 0001:00076f29       ?lastString@CkStringArray@@QAEPBDXZ 00477f29 f   ChilkatDbgDll:CkStringArray.obj
 0001:00076fba       ?LoadFromFile@CkStringArray@@QAE_NPBD@Z 00477fba f   ChilkatDbgDll:CkStringArray.obj
 0001:0007707b       ?LoadFromFile2@CkStringArray@@QAE_NPBD0@Z 0047807b f   ChilkatDbgDll:CkStringArray.obj
 0001:0007717a       ?LoadFromText@CkStringArray@@QAEXPBD@Z 0047817a f   ChilkatDbgDll:CkStringArray.obj
 0001:0007722f       ?Pop@CkStringArray@@QAE_NAAVCkString@@@Z 0047822f f   ChilkatDbgDll:CkStringArray.obj
 0001:0007727d       ?pop@CkStringArray@@QAEPBDXZ 0047827d f   ChilkatDbgDll:CkStringArray.obj
 0001:0007730e       ?Prepend@CkStringArray@@QAEXPBD@Z 0047830e f   ChilkatDbgDll:CkStringArray.obj
 0001:000773c3       ?Remove@CkStringArray@@QAEXPBD@Z 004783c3 f   ChilkatDbgDll:CkStringArray.obj
 0001:00077478       ?RemoveAt@CkStringArray@@QAE_NH@Z 00478478 f   ChilkatDbgDll:CkStringArray.obj
 0001:000774b4       ?SaveNthToFile@CkStringArray@@QAE_NHPBD@Z 004784b4 f   ChilkatDbgDll:CkStringArray.obj
 0001:00077579       ?SaveToFile@CkStringArray@@QAE_NPBD@Z 00478579 f   ChilkatDbgDll:CkStringArray.obj
 0001:0007763a       ?SaveToFile2@CkStringArray@@QAE_NPBD0@Z 0047863a f   ChilkatDbgDll:CkStringArray.obj
 0001:00077739       ?SaveToText@CkStringArray@@QAE_NAAVCkString@@@Z 00478739 f   ChilkatDbgDll:CkStringArray.obj
 0001:00077787       ?saveToText@CkStringArray@@QAEPBDXZ 00478787 f   ChilkatDbgDll:CkStringArray.obj
 0001:00077818       ?Serialize@CkStringArray@@QAE_NAAVCkString@@@Z 00478818 f   ChilkatDbgDll:CkStringArray.obj
 0001:00077866       ?serialize@CkStringArray@@QAEPBDXZ 00478866 f   ChilkatDbgDll:CkStringArray.obj
 0001:000778f7       ?Sort@CkStringArray@@QAEX_N@Z 004788f7 f   ChilkatDbgDll:CkStringArray.obj
 0001:00077933       ?SplitAndAppend@CkStringArray@@QAEXPBD0@Z 00478933 f   ChilkatDbgDll:CkStringArray.obj
 0001:00077a26       ?StrAt@CkStringArray@@QAE_NHAAVCkString@@@Z 00478a26 f   ChilkatDbgDll:CkStringArray.obj
 0001:00077a78       ?strAt@CkStringArray@@QAEPBDH@Z 00478a78 f   ChilkatDbgDll:CkStringArray.obj
 0001:00077b0f       ?Subtract@CkStringArray@@QAEXAAV1@@Z 00478b0f f   ChilkatDbgDll:CkStringArray.obj
 0001:00077b5d       ?Union@CkStringArray@@QAEXAAV1@@Z 00478b5d f   ChilkatDbgDll:CkStringArray.obj
 0001:00077bb0       ??_GCkStringArray@@UAEPAXI@Z 00478bb0 f i ChilkatDbgDll:CkStringArray.obj
 0001:00077bb0       ??_ECkStringArray@@UAEPAXI@Z 00478bb0 f i ChilkatDbgDll:CkStringArray.obj
 0001:00077bf0       ?checkConnected@ClsSsh@@AAE_NXZ 00478bf0 f   ChilkatDbgDll:ClsSsh.obj
 0001:00077cbb       ?UnlockComponent@ClsSsh@@QAE_NAAVXString@@@Z 00478cbb f   ChilkatDbgDll:ClsSsh.obj
 0001:00077d52       ?put_IdleTimeoutMs@ClsSsh@@QAEXJ@Z 00478d52 f   ChilkatDbgDll:ClsSsh.obj
 0001:00077de7       ?get_IdleTimeoutMs@ClsSsh@@QAEJXZ 00478de7 f   ChilkatDbgDll:ClsSsh.obj
 0001:00077e02       ?put_ReadTimeoutMs@ClsSsh@@QAEXJ@Z 00478e02 f   ChilkatDbgDll:ClsSsh.obj
 0001:00077e2f       ?get_ReadTimeoutMs@ClsSsh@@QAEJXZ 00478e2f f   ChilkatDbgDll:ClsSsh.obj
 0001:00077e4a       ?put_ConnectTimeoutMs@ClsSsh@@QAEXJ@Z 00478e4a f   ChilkatDbgDll:ClsSsh.obj
 0001:00077e77       ?get_ConnectTimeoutMs@ClsSsh@@QAEJXZ 00478e77 f   ChilkatDbgDll:ClsSsh.obj
 0001:00077e92       ?get_HeartbeatMs@ClsSsh@@QAEJXZ 00478e92 f   ChilkatDbgDll:ClsSsh.obj
 0001:00077ead       ?put_HeartbeatMs@ClsSsh@@QAEXJ@Z 00478ead f   ChilkatDbgDll:ClsSsh.obj
 0001:00077ecd       ?get_StderrToStdout@ClsSsh@@QBE_NXZ 00478ecd f   ChilkatDbgDll:ClsSsh.obj
 0001:00077ee8       ?put_StderrToStdout@ClsSsh@@QAEX_N@Z 00478ee8 f   ChilkatDbgDll:ClsSsh.obj
 0001:00077f08       ?createNewCls@ClsSsh@@SAPAV1@XZ 00478f08 f   ChilkatDbgDll:ClsSsh.obj
 0001:00077fc6       ??0ClsSsh@@QAE@XZ          00478fc6 f   ChilkatDbgDll:ClsSsh.obj
 0001:0007825f       ?dotNetDispose@ClsSsh@@UAEXXZ 0047925f f   ChilkatDbgDll:ClsSsh.obj
 0001:0007835b       ??1ClsSsh@@UAE@XZ          0047935b f   ChilkatDbgDll:ClsSsh.obj
 0001:000785eb       ?enterContext@ClsSsh@@AAEXPBD@Z 004795eb f   ChilkatDbgDll:ClsSsh.obj
 0001:00078655       ?get_IsConnected@ClsSsh@@QAE_NXZ 00479655 f   ChilkatDbgDll:ClsSsh.obj
 0001:00078749       ?get_PasswordChangeRequested@ClsSsh@@QAE_NXZ 00479749 f   ChilkatDbgDll:ClsSsh.obj
 0001:00078764       ?get_KeepSessionLog@ClsSsh@@QAE_NXZ 00479764 f   ChilkatDbgDll:ClsSsh.obj
 0001:0007877f       ?put_KeepSessionLog@ClsSsh@@QAEX_N@Z 0047977f f   ChilkatDbgDll:ClsSsh.obj
 0001:000787bd       ?get_HostKeyFingerprint@ClsSsh@@QAEXAAVXString@@@Z 004797bd f   ChilkatDbgDll:ClsSsh.obj
 0001:0007880c       ?get_SessionLog@ClsSsh@@QAEXAAVXString@@@Z 0047980c f   ChilkatDbgDll:ClsSsh.obj
 0001:00078871       ?Disconnect@ClsSsh@@QAEXXZ 00479871 f   ChilkatDbgDll:ClsSsh.obj
 0001:000789be       ?Connect@ClsSsh@@QAE_NAAVXString@@HPAVProgressEvent@@@Z 004799be f   ChilkatDbgDll:ClsSsh.obj
 0001:00078f8f       ?AuthenticatePw@ClsSsh@@QAE_NAAVXString@@0PAVProgressEvent@@@Z 00479f8f f   ChilkatDbgDll:ClsSsh.obj
 0001:000792d7       ?ReKey@ClsSsh@@QAE_NPAVProgressEvent@@@Z 0047a2d7 f   ChilkatDbgDll:ClsSsh.obj
 0001:0007951e       ?AuthenticatePwPk@ClsSsh@@QAE_NAAVXString@@0AAVClsSshKey@@PAVProgressEvent@@@Z 0047a51e f   ChilkatDbgDll:ClsSsh.obj
 0001:00079898       ?AuthenticatePk@ClsSsh@@QAE_NAAVXString@@AAVClsSshKey@@PAVProgressEvent@@@Z 0047a898 f   ChilkatDbgDll:ClsSsh.obj
 0001:00079bc6       ?appendChannel@ClsSsh@@AAEXPAUSshChannel@@@Z 0047abc6 f   ChilkatDbgDll:ClsSsh.obj
 0001:00079d23       ?allocateNewChannel@ClsSsh@@AAEPAUSshChannel@@PBD@Z 0047ad23 f   ChilkatDbgDll:ClsSsh.obj
 0001:00079e51       ?OpenSessionChannel@ClsSsh@@QAEHPAVProgressEvent@@@Z 0047ae51 f   ChilkatDbgDll:ClsSsh.obj
 0001:0007a12c       ?OpenDirectTcpIpChannel@ClsSsh@@QAEHAAVXString@@HPAVProgressEvent@@@Z 0047b12c f   ChilkatDbgDll:ClsSsh.obj
 0001:0007a42d       ?OpenCustomChannel@ClsSsh@@QAEHAAVXString@@PAVProgressEvent@@@Z 0047b42d f   ChilkatDbgDll:ClsSsh.obj
 0001:0007a6fb       ?get_NumOpenChannels@ClsSsh@@QAEJXZ 0047b6fb f   ChilkatDbgDll:ClsSsh.obj
 0001:0007a795       ?GetChannelNumber@ClsSsh@@QAEJJ@Z 0047b795 f   ChilkatDbgDll:ClsSsh.obj
 0001:0007a8ec       ?GetChannelType@ClsSsh@@QAE_NJAAVXString@@@Z 0047b8ec f   ChilkatDbgDll:ClsSsh.obj
 0001:0007aa51       ?lookupServerChannel@ClsSsh@@AAEHI@Z 0047ba51 f   ChilkatDbgDll:ClsSsh.obj
 0001:0007aae1       ?checkRemoveChannels@ClsSsh@@AAEX_NAAVLogBase@@@Z 0047bae1 f   ChilkatDbgDll:ClsSsh.obj
 0001:0007ac7a       ?lookupServerChannelPtr@ClsSsh@@AAEPAUSshChannel@@I@Z 0047bc7a f   ChilkatDbgDll:ClsSsh.obj
 0001:0007ad03       ?SendReqPty@ClsSsh@@QAE_NJAAVXString@@JJJJPAVProgressEvent@@@Z 0047bd03 f   ChilkatDbgDll:ClsSsh.obj
 0001:0007b062       ?SendReqX11Forwarding@ClsSsh@@QAE_NJ_NAAVXString@@1JPAVProgressEvent@@@Z 0047c062 f   ChilkatDbgDll:ClsSsh.obj
 0001:0007b2af       ?SendReqSetEnv@ClsSsh@@QAE_NJAAVXString@@0PAVProgressEvent@@@Z 0047c2af f   ChilkatDbgDll:ClsSsh.obj
 0001:0007b540       ?SendReqShell@ClsSsh@@QAE_NJPAVProgressEvent@@@Z 0047c540 f   ChilkatDbgDll:ClsSsh.obj
 0001:0007b77c       ?SendReqExec@ClsSsh@@QAE_NJAAVXString@@PAVProgressEvent@@@Z 0047c77c f   ChilkatDbgDll:ClsSsh.obj
 0001:0007b9e3       ?SendIgnore@ClsSsh@@QAE_NPAVProgressEvent@@@Z 0047c9e3 f   ChilkatDbgDll:ClsSsh.obj
 0001:0007bb72       ?SendReqSubsystem@ClsSsh@@QAE_NJAAVXString@@PAVProgressEvent@@@Z 0047cb72 f   ChilkatDbgDll:ClsSsh.obj
 0001:0007bdd9       ?SendReqWindowChange@ClsSsh@@QAE_NJJJJJPAVProgressEvent@@@Z 0047cdd9 f   ChilkatDbgDll:ClsSsh.obj
 0001:0007bfe9       ?SendReqXonXoff@ClsSsh@@QAE_NJ_NPAVProgressEvent@@@Z 0047cfe9 f   ChilkatDbgDll:ClsSsh.obj
 0001:0007c1bd       ?SendReqSignal@ClsSsh@@QAE_NJAAVXString@@PAVProgressEvent@@@Z 0047d1bd f   ChilkatDbgDll:ClsSsh.obj
 0001:0007c40e       ?ClearTtyModes@ClsSsh@@QAEXXZ 0047d40e f   ChilkatDbgDll:ClsSsh.obj
 0001:0007c4d4       ?setTtyMode@ClsSsh@@AAE_NPBDH@Z 0047d4d4 f   ChilkatDbgDll:ClsSsh.obj
 0001:0007c671       ?SetTtyMode@ClsSsh@@QAE_NAAVXString@@H@Z 0047d671 f   ChilkatDbgDll:ClsSsh.obj
 0001:0007c77e       ?ChannelSendData@ClsSsh@@QAE_NJAAVDataBuffer@@PAVProgressEvent@@@Z 0047d77e f   ChilkatDbgDll:ClsSsh.obj
 0001:0007c9b8       ?get_ClientIdentifier@ClsSsh@@QAEXAAVXString@@@Z 0047d9b8 f   ChilkatDbgDll:ClsSsh.obj
 0001:0007c9e7       ?put_ClientIdentifier@ClsSsh@@QAEXAAVXString@@@Z 0047d9e7 f   ChilkatDbgDll:ClsSsh.obj
 0001:0007ca7e       ?ChannelSendString@ClsSsh@@QAE_NJAAVXString@@0PAVProgressEvent@@@Z 0047da7e f   ChilkatDbgDll:ClsSsh.obj
 0001:0007cef5       ?ChannelPoll@ClsSsh@@QAEHJJPAVProgressEvent@@@Z 0047def5 f   ChilkatDbgDll:ClsSsh.obj
 0001:0007d352       ?handleReadFailure@ClsSsh@@AAEXAAVSocketParams@@AA_N@Z 0047e352 f   ChilkatDbgDll:ClsSsh.obj
 0001:0007d558       ?put_TcpNoDelay@ClsSsh@@QAEX_N@Z 0047e558 f   ChilkatDbgDll:ClsSsh.obj
 0001:0007d642       ?get_TcpNoDelay@ClsSsh@@QAE_NXZ 0047e642 f   ChilkatDbgDll:ClsSsh.obj
 0001:0007d65d       ?ChannelRead@ClsSsh@@QAEHJPAVProgressEvent@@@Z 0047e65d f   ChilkatDbgDll:ClsSsh.obj
 0001:0007d9fe       ?GetReceivedTextS@ClsSsh@@QAE_NJAAVXString@@00@Z 0047e9fe f   ChilkatDbgDll:ClsSsh.obj
 0001:0007dd3c       ?GetReceivedText@ClsSsh@@QAE_NJAAVXString@@0@Z 0047ed3c f   ChilkatDbgDll:ClsSsh.obj
 0001:0007def1       ?PeekReceivedText@ClsSsh@@QAE_NJAAVXString@@0@Z 0047eef1 f   ChilkatDbgDll:ClsSsh.obj
 0001:0007e098       ?GetReceivedDataN@ClsSsh@@QAE_NJIAAVDataBuffer@@@Z 0047f098 f   ChilkatDbgDll:ClsSsh.obj
 0001:0007e263       ?GetReceivedData@ClsSsh@@QAE_NJAAVDataBuffer@@@Z 0047f263 f   ChilkatDbgDll:ClsSsh.obj
 0001:0007e3c4       ?GetReceivedNumBytes@ClsSsh@@QAEHJ@Z 0047f3c4 f   ChilkatDbgDll:ClsSsh.obj
 0001:0007e4e2       ?GetReceivedStderr@ClsSsh@@QAE_NJAAVDataBuffer@@@Z 0047f4e2 f   ChilkatDbgDll:ClsSsh.obj
 0001:0007e5ec       ?ChannelReadAndPoll@ClsSsh@@QAEHJJPAVProgressEvent@@@Z 0047f5ec f   ChilkatDbgDll:ClsSsh.obj
 0001:0007e745       ?ChannelReadAndPoll2@ClsSsh@@QAEHJJJPAVProgressEvent@@@Z 0047f745 f   ChilkatDbgDll:ClsSsh.obj
 0001:0007e8b4       ?channelReadAndPoll_A@ClsSsh@@AAEHJJIPAVProgressEvent@@AAVLogBase@@@Z 0047f8b4 f   ChilkatDbgDll:ClsSsh.obj
 0001:0007f011       ?StderrPoll@ClsSsh@@QAEHJAAVDataBuffer@@PAVProgressEvent@@@Z 00480011 f   ChilkatDbgDll:ClsSsh.obj
 0001:0007f1c3       ?StderrRead@ClsSsh@@QAEHJAAVDataBuffer@@PAVProgressEvent@@@Z 004801c3 f   ChilkatDbgDll:ClsSsh.obj
 0001:0007f3ab       ?ChannelSendEof@ClsSsh@@QAE_NJPAVProgressEvent@@@Z 004803ab f   ChilkatDbgDll:ClsSsh.obj
 0001:0007f5bb       ?ChannelSendClose@ClsSsh@@QAE_NJPAVProgressEvent@@@Z 004805bb f   ChilkatDbgDll:ClsSsh.obj
 0001:0007f809       ?ChannelIsOpen@ClsSsh@@QAE_NJ@Z 00480809 f   ChilkatDbgDll:ClsSsh.obj
 0001:0007f8f5       ?ChannelReceiveToClose@ClsSsh@@QAE_NJPAVProgressEvent@@@Z 004808f5 f   ChilkatDbgDll:ClsSsh.obj
 0001:0007fda3       ?ChannelReceiveUntilMatchN@ClsSsh@@QAE_NJAAVClsStringArray@@AAVXString@@_NPAVProgressEvent@@@Z 00480da3 f   ChilkatDbgDll:ClsSsh.obj
 0001:00080c04       ?ChannelReceiveUntilMatch@ClsSsh@@QAE_NJAAVXString@@0_NPAVProgressEvent@@@Z 00481c04 f   ChilkatDbgDll:ClsSsh.obj
 0001:00081717       ?ChannelReceivedClose@ClsSsh@@QAE_NJ@Z 00482717 f   ChilkatDbgDll:ClsSsh.obj
 0001:00081851       ?ChannelReceivedEof@ClsSsh@@QAE_NJ@Z 00482851 f   ChilkatDbgDll:ClsSsh.obj
 0001:00081994       ?ChannelReceivedExitStatus@ClsSsh@@QAE_NJ@Z 00482994 f   ChilkatDbgDll:ClsSsh.obj
 0001:00081ad7       ?GetChannelExitStatus@ClsSsh@@QAEJJ@Z 00482ad7 f   ChilkatDbgDll:ClsSsh.obj
 0001:00081c52       ?put_MaxPacketSize@ClsSsh@@QAEXJ@Z 00482c52 f   ChilkatDbgDll:ClsSsh.obj
 0001:00081c72       ?get_MaxPacketSize@ClsSsh@@QAEJXZ 00482c72 f   ChilkatDbgDll:ClsSsh.obj
 0001:00081c8d       ?get_ChannelOpenFailCode@ClsSsh@@QAEJXZ 00482c8d f   ChilkatDbgDll:ClsSsh.obj
 0001:00081ca8       ?get_ChannelOpenFailReason@ClsSsh@@QAEXAAVXString@@@Z 00482ca8 f   ChilkatDbgDll:ClsSsh.obj
 0001:00081cdd       ?get_DisconnectCode@ClsSsh@@QAEJXZ 00482cdd f   ChilkatDbgDll:ClsSsh.obj
 0001:00081cf8       ?get_DisconnectReason@ClsSsh@@QAEXAAVXString@@@Z 00482cf8 f   ChilkatDbgDll:ClsSsh.obj
 0001:00081d2d       ?get_ClientIpAddress@ClsSsh@@QAEXAAVXString@@@Z 00482d2d f   ChilkatDbgDll:ClsSsh.obj
 0001:00081dc2       ?put_ClientIpAddress@ClsSsh@@QAEXAAVXString@@@Z 00482dc2 f   ChilkatDbgDll:ClsSsh.obj
 0001:00081e1c       ?get_ForceCipher@ClsSsh@@QAEXAAVXString@@@Z 00482e1c f   ChilkatDbgDll:ClsSsh.obj
 0001:00081e4b       ?put_ForceCipher@ClsSsh@@QAEXAAVXString@@@Z 00482e4b f   ChilkatDbgDll:ClsSsh.obj
 0001:00081e7b       ?get_SoSndBuf@ClsSsh@@QAEHXZ 00482e7b f   ChilkatDbgDll:ClsSsh.obj
 0001:00081e96       ?put_SoSndBuf@ClsSsh@@QAEXH@Z 00482e96 f   ChilkatDbgDll:ClsSsh.obj
 0001:00081f79       ?get_SoRcvBuf@ClsSsh@@QAEHXZ 00482f79 f   ChilkatDbgDll:ClsSsh.obj
 0001:00081f94       ?put_SoRcvBuf@ClsSsh@@QAEXH@Z 00482f94 f   ChilkatDbgDll:ClsSsh.obj
 0001:00082077       ?get_HostKeyAlg@ClsSsh@@QAEXAAVXString@@@Z 00483077 f   ChilkatDbgDll:ClsSsh.obj
 0001:000820c9       ?put_HostKeyAlg@ClsSsh@@QAEXAAVXString@@@Z 004830c9 f   ChilkatDbgDll:ClsSsh.obj
 0001:00082140       ??_GClsSsh@@UAEPAXI@Z      00483140 f i ChilkatDbgDll:ClsSsh.obj
 0001:00082140       ??_EClsSsh@@UAEPAXI@Z      00483140 f i ChilkatDbgDll:ClsSsh.obj
 0001:00082180       ??0dsa_key@@QAE@XZ         00483180 f i ChilkatDbgDll:ClsSsh.obj
 0001:00082210       ??1dsa_key@@QAE@XZ         00483210 f i ChilkatDbgDll:ClsSsh.obj
 0001:000822a0       ??_EClsSsh@@W7AEPAXI@Z     004832a0 f i ChilkatDbgDll:ClsSsh.obj
 0001:000822b0       ??_EClsSsh@@WHA@AEPAXI@Z   004832b0 f i ChilkatDbgDll:ClsSsh.obj
 0001:000822c0       ??_EClsSsh@@WHI@AEPAXI@Z   004832c0 f i ChilkatDbgDll:ClsSsh.obj
 0001:000822d0       ??_EClsSsh@@WEGA@AEPAXI@Z  004832d0 f i ChilkatDbgDll:ClsSsh.obj
 0001:000822e0       ??_EClsSsh@@WEIA@AEPAXI@Z  004832e0 f i ChilkatDbgDll:ClsSsh.obj
 0001:000822f0       ?createNewCls@ClsHttpProxyClient@@SAPAV1@XZ 004832f0 f   ChilkatDbgDll:ClsHttpProxyClient.obj
 0001:000823ae       ??0ClsHttpProxyClient@@QAE@XZ 004833ae f   ChilkatDbgDll:ClsHttpProxyClient.obj
 0001:00082469       ??1ClsHttpProxyClient@@UAE@XZ 00483469 f   ChilkatDbgDll:ClsHttpProxyClient.obj
 0001:0008250a       ?copyHttpProxyInfo@ClsHttpProxyClient@@QAEXAAV1@@Z 0048350a f   ChilkatDbgDll:ClsHttpProxyClient.obj
 0001:000825bd       ?clear@ClsHttpProxyClient@@QAEXXZ 004835bd f   ChilkatDbgDll:ClsHttpProxyClient.obj
 0001:00082629       ?hasHttpProxy@ClsHttpProxyClient@@QAE_NXZ 00483629 f   ChilkatDbgDll:ClsHttpProxyClient.obj
 0001:00082669       ?get_HttpProxyAuthMethod@ClsHttpProxyClient@@QAEXAAVXString@@@Z 00483669 f   ChilkatDbgDll:ClsHttpProxyClient.obj
 0001:00082696       ?put_HttpProxyAuthMethod@ClsHttpProxyClient@@QAEXAAVXString@@@Z 00483696 f   ChilkatDbgDll:ClsHttpProxyClient.obj
 0001:000826c3       ?get_HttpProxyUsername@ClsHttpProxyClient@@QAEXAAVXString@@@Z 004836c3 f   ChilkatDbgDll:ClsHttpProxyClient.obj
 0001:000826f2       ?put_HttpProxyUsername@ClsHttpProxyClient@@QAEXAAVXString@@@Z 004836f2 f   ChilkatDbgDll:ClsHttpProxyClient.obj
 0001:00082722       ?get_HttpProxyPassword@ClsHttpProxyClient@@QAEXAAVXString@@@Z 00483722 f   ChilkatDbgDll:ClsHttpProxyClient.obj
 0001:00082751       ?put_HttpProxyPassword@ClsHttpProxyClient@@QAEXAAVXString@@@Z 00483751 f   ChilkatDbgDll:ClsHttpProxyClient.obj
 0001:00082781       ?get_HttpProxyDomain@ClsHttpProxyClient@@QAEXAAVXString@@@Z 00483781 f   ChilkatDbgDll:ClsHttpProxyClient.obj
 0001:000827b0       ?put_HttpProxyDomain@ClsHttpProxyClient@@QAEXAAVXString@@@Z 004837b0 f   ChilkatDbgDll:ClsHttpProxyClient.obj
 0001:000827e0       ?get_HttpProxyHostname@ClsHttpProxyClient@@QAEXAAVXString@@@Z 004837e0 f   ChilkatDbgDll:ClsHttpProxyClient.obj
 0001:0008280f       ?put_HttpProxyHostname@ClsHttpProxyClient@@QAEXAAVXString@@@Z 0048380f f   ChilkatDbgDll:ClsHttpProxyClient.obj
 0001:000828f8       ?get_HttpProxyPort@ClsHttpProxyClient@@QAEHXZ 004838f8 f   ChilkatDbgDll:ClsHttpProxyClient.obj
 0001:00082913       ?put_HttpProxyPort@ClsHttpProxyClient@@QAEXH@Z 00483913 f   ChilkatDbgDll:ClsHttpProxyClient.obj
 0001:00082933       ?getEffectiveProxy@ClsHttpProxyClient@@QAEX_NAAVStringBuffer@@AAHAAVLogBase@@@Z 00483933 f   ChilkatDbgDll:ClsHttpProxyClient.obj
 0001:00082b77       ?put_UseIeProxy@ClsHttpProxyClient@@QAEX_N@Z 00483b77 f   ChilkatDbgDll:ClsHttpProxyClient.obj
 0001:00082b97       ?get_UseIeProxy@ClsHttpProxyClient@@QBE_NXZ 00483b97 f   ChilkatDbgDll:ClsHttpProxyClient.obj
 0001:00082bb2       ?setProxyHostnameAndPort@ClsHttpProxyClient@@QAEXPBD@Z 00483bb2 f   ChilkatDbgDll:ClsHttpProxyClient.obj
 0001:00082c90       ??_GClsHttpProxyClient@@UAEPAXI@Z 00483c90 f i ChilkatDbgDll:ClsHttpProxyClient.obj
 0001:00082c90       ??_EClsHttpProxyClient@@UAEPAXI@Z 00483c90 f i ChilkatDbgDll:ClsHttpProxyClient.obj
 0001:00082cd0       ?createNewCls@ClsSocksClient@@SAPAV1@XZ 00483cd0 f   ChilkatDbgDll:ClsSocksClient.obj
 0001:00082d8e       ??0ClsSocksClient@@QAE@XZ  00483d8e f   ChilkatDbgDll:ClsSocksClient.obj
 0001:00082e22       ??1ClsSocksClient@@UAE@XZ  00483e22 f   ChilkatDbgDll:ClsSocksClient.obj
 0001:00082e9f       ?getSocksHostnameAnsi@ClsSocksClient@@QAEXAAVStringBuffer@@@Z 00483e9f f   ChilkatDbgDll:ClsSocksClient.obj
 0001:00082ed4       ?getSocksUsernameAnsi@ClsSocksClient@@QAEXAAVStringBuffer@@@Z 00483ed4 f   ChilkatDbgDll:ClsSocksClient.obj
 0001:00082f06       ?getSocksPasswordAnsi@ClsSocksClient@@QAEXAAVStringBuffer@@@Z 00483f06 f   ChilkatDbgDll:ClsSocksClient.obj
 0001:00082f3b       ?get_SocksUsername@ClsSocksClient@@QAEXAAVXString@@@Z 00483f3b f   ChilkatDbgDll:ClsSocksClient.obj
 0001:00082f68       ?put_SocksUsername@ClsSocksClient@@QAEXAAVXString@@@Z 00483f68 f   ChilkatDbgDll:ClsSocksClient.obj
 0001:00082f95       ?get_SocksPassword@ClsSocksClient@@QAEXAAVXString@@@Z 00483f95 f   ChilkatDbgDll:ClsSocksClient.obj
 0001:00082fcf       ?put_SocksPassword@ClsSocksClient@@QAEXAAVXString@@@Z 00483fcf f   ChilkatDbgDll:ClsSocksClient.obj
 0001:00083009       ?get_SocksHostname@ClsSocksClient@@QAEXAAVXString@@@Z 00484009 f   ChilkatDbgDll:ClsSocksClient.obj
 0001:00083038       ?put_SocksHostname@ClsSocksClient@@QAEXAAVXString@@@Z 00484038 f   ChilkatDbgDll:ClsSocksClient.obj
 0001:00083068       ?get_SocksPort@ClsSocksClient@@QAEHXZ 00484068 f   ChilkatDbgDll:ClsSocksClient.obj
 0001:00083080       ?put_SocksPort@ClsSocksClient@@QAEXH@Z 00484080 f   ChilkatDbgDll:ClsSocksClient.obj
 0001:0008309d       ?get_SocksVersion@ClsSocksClient@@QAEHXZ 0048409d f   ChilkatDbgDll:ClsSocksClient.obj
 0001:000830b5       ?put_SocksVersion@ClsSocksClient@@QAEXH@Z 004840b5 f   ChilkatDbgDll:ClsSocksClient.obj
 0001:000830f0       ??_EClsSocksClient@@UAEPAXI@Z 004840f0 f i ChilkatDbgDll:ClsSocksClient.obj
 0001:000830f0       ??_GClsSocksClient@@UAEPAXI@Z 004840f0 f i ChilkatDbgDll:ClsSocksClient.obj
 0001:00083130       ??0MixinTcpSock@@QAE@XZ    00484130 f   ChilkatDbgDll:MixinTcpSock.obj
 0001:00083155       ??1MixinTcpSock@@UAE@XZ    00484155 f   ChilkatDbgDll:MixinTcpSock.obj
 0001:00083170       ?put_PreferIpv6@MixinTcpSock@@QAEX_N@Z 00484170 f   ChilkatDbgDll:MixinTcpSock.obj
 0001:0008318d       ?get_PreferIpv6@MixinTcpSock@@QAE_NXZ 0048418d f   ChilkatDbgDll:MixinTcpSock.obj
 0001:000831b0       ??_EMixinTcpSock@@UAEPAXI@Z 004841b0 f i ChilkatDbgDll:MixinTcpSock.obj
 0001:000831b0       ??_GMixinTcpSock@@UAEPAXI@Z 004841b0 f i ChilkatDbgDll:MixinTcpSock.obj
 0001:000831f0       ??0ProgressEvent@@QAE@XZ   004841f0 f   ChilkatDbgDll:ProgressEvent.obj
 0001:0008320e       ??1ProgressEvent@@UAE@XZ   0048420e f   ChilkatDbgDll:ProgressEvent.obj
 0001:00083229       ?pevHttpBeginReceive@ProgressEvent@@UAEXXZ 00484229 f   ChilkatDbgDll:ProgressEvent.obj
 0001:0008323b       ?pevHttpEndReceive@ProgressEvent@@UAEX_N@Z 0048423b f   ChilkatDbgDll:ProgressEvent.obj
 0001:0008324f       ?pevHttpBeginSend@ProgressEvent@@UAEXXZ 0048424f f   ChilkatDbgDll:ProgressEvent.obj
 0001:00083261       ?pevHttpEndSend@ProgressEvent@@UAEX_N@Z 00484261 f   ChilkatDbgDll:ProgressEvent.obj
 0001:00083275       ?pevTarNextFile@ProgressEvent@@UAEXPBD_J_NAA_N@Z 00484275 f   ChilkatDbgDll:ProgressEvent.obj
 0001:00083289       ?pevFtpBeginDownload@ProgressEvent@@UAEXPBDAA_N@Z 00484289 f   ChilkatDbgDll:ProgressEvent.obj
 0001:000832a3       ?pevFtpEndDownload@ProgressEvent@@UAEXPBD_J@Z 004842a3 f   ChilkatDbgDll:ProgressEvent.obj
 0001:000832b7       ?pevFtpVerifyDownloadDir@ProgressEvent@@UAEXPBDAA_N@Z 004842b7 f   ChilkatDbgDll:ProgressEvent.obj
 0001:000832d1       ?pevFtpBeginUpload@ProgressEvent@@UAEXPBDAA_N@Z 004842d1 f   ChilkatDbgDll:ProgressEvent.obj
 0001:000832eb       ?pevFtpEndUpload@ProgressEvent@@UAEXPBD_J@Z 004842eb f   ChilkatDbgDll:ProgressEvent.obj
 0001:000832ff       ?pevFtpVerifyUploadDir@ProgressEvent@@UAEXPBDAA_N@Z 004842ff f   ChilkatDbgDll:ProgressEvent.obj
 0001:00083319       ?pevPercentDone@ProgressEvent@@UAEXHAA_N@Z 00484319 f   ChilkatDbgDll:ProgressEvent.obj
 0001:00083333       ?pevAbortCheck@ProgressEvent@@UAEXAA_N@Z 00484333 f   ChilkatDbgDll:ProgressEvent.obj
 0001:0008334d       ?pevProgressInfo@ProgressEvent@@UAEXPBD0@Z 0048434d f   ChilkatDbgDll:ProgressEvent.obj
 0001:00083361       ?pevFtpVerifyDeleteDir@ProgressEvent@@UAEXPBDAA_N@Z 00484361 f   ChilkatDbgDll:ProgressEvent.obj
 0001:0008337b       ?pevFtpVerifyDeleteFile@ProgressEvent@@UAEXPBDAA_N@Z 0048437b f   ChilkatDbgDll:ProgressEvent.obj
 0001:00083395       ?pevHttpChunked@ProgressEvent@@UAEXXZ 00484395 f   ChilkatDbgDll:ProgressEvent.obj
 0001:000833a7       ?pevHttpRedirect@ProgressEvent@@UAEXPBD0AA_N@Z 004843a7 f   ChilkatDbgDll:ProgressEvent.obj
 0001:000833c1       ?pevSendRate@ProgressEvent@@UAEX_JI@Z 004843c1 f   ChilkatDbgDll:ProgressEvent.obj
 0001:000833d5       ?pevReceiveRate@ProgressEvent@@UAEX_JI@Z 004843d5 f   ChilkatDbgDll:ProgressEvent.obj
 0001:000833e9       ?pevEmailReceived@ProgressEvent@@UAEXPBD00000H@Z 004843e9 f   ChilkatDbgDll:ProgressEvent.obj
 0001:000833fd       ?pevZipToBeAdded@ProgressEvent@@UAEXPBD_JAA_N@Z 004843fd f   ChilkatDbgDll:ProgressEvent.obj
 0001:00083417       ?pevZipDirToBeAdded@ProgressEvent@@UAEXPBDAA_N@Z 00484417 f   ChilkatDbgDll:ProgressEvent.obj
 0001:00083431       ?pevZipFileAdded@ProgressEvent@@UAEXPBD_JAA_N@Z 00484431 f   ChilkatDbgDll:ProgressEvent.obj
 0001:0008344b       ?pevToBeZipped@ProgressEvent@@UAEXPBD_JAA_N@Z 0048444b f   ChilkatDbgDll:ProgressEvent.obj
 0001:00083465       ?pevFileZipped@ProgressEvent@@UAEXPBD_J1AA_N@Z 00484465 f   ChilkatDbgDll:ProgressEvent.obj
 0001:0008347f       ?pevToBeUnzipped@ProgressEvent@@UAEXPBD_J1_NAA_N@Z 0048447f f   ChilkatDbgDll:ProgressEvent.obj
 0001:00083499       ?pevSkippedForUnzip@ProgressEvent@@UAEXPBD_J1_N@Z 00484499 f   ChilkatDbgDll:ProgressEvent.obj
 0001:000834ad       ?pevFileUnzipped@ProgressEvent@@UAEXPBD_J1_NAA_N@Z 004844ad f   ChilkatDbgDll:ProgressEvent.obj
 0001:000834c7       ?pevZipAddFilesBegin@ProgressEvent@@UAEXXZ 004844c7 f   ChilkatDbgDll:ProgressEvent.obj
 0001:000834d9       ?pevZipAddFilesEnd@ProgressEvent@@UAEXXZ 004844d9 f   ChilkatDbgDll:ProgressEvent.obj
 0001:000834eb       ?pevWriteZipBegin@ProgressEvent@@UAEXXZ 004844eb f   ChilkatDbgDll:ProgressEvent.obj
 0001:000834fd       ?pevWriteZipEnd@ProgressEvent@@UAEXXZ 004844fd f   ChilkatDbgDll:ProgressEvent.obj
 0001:0008350f       ?pevUnzipBegin@ProgressEvent@@UAEXXZ 0048450f f   ChilkatDbgDll:ProgressEvent.obj
 0001:00083521       ?pevUnzipEnd@ProgressEvent@@UAEXXZ 00484521 f   ChilkatDbgDll:ProgressEvent.obj
 0001:00083540       ??_EProgressEvent@@UAEPAXI@Z 00484540 f i ChilkatDbgDll:ProgressEvent.obj
 0001:00083540       ??_GProgressEvent@@UAEPAXI@Z 00484540 f i ChilkatDbgDll:ProgressEvent.obj
 0001:00083580       ?pevAbortCheck@CkBaseCb@@UAEXAA_N@Z 00484580 f   ChilkatDbgDll:CkBaseCb.obj
 0001:000835cd       ?pevPercentDone@CkBaseCb@@UAEXHAA_N@Z 004845cd f   ChilkatDbgDll:CkBaseCb.obj
 0001:0008361e       ?pevProgressInfo@CkBaseCb@@UAEXPBD0@Z 0048461e f   ChilkatDbgDll:CkBaseCb.obj
 0001:00083670       ?getImpl@CkByteData@@QBEPAXXZ 00484670 f   ChilkatDbgDll:CkByteData.obj
 0001:00083688       ?getImplC@CkByteData@@QBEPBXXZ 00484688 f   ChilkatDbgDll:CkByteData.obj
 0001:000836a0       ?setImpl@CkByteData@@QAEXPAX@Z 004846a0 f   ChilkatDbgDll:CkByteData.obj
 0001:0008371c       ?to_s@CkByteData@@QAEPBDXZ 0048471c f   ChilkatDbgDll:CkByteData.obj
 0001:000837b9       ?to_ws@CkByteData@@QAEPBGPBD@Z 004847b9 f   ChilkatDbgDll:CkByteData.obj
 0001:00083934       ??0CkByteData@@QAE@XZ      00484934 f   ChilkatDbgDll:CkByteData.obj
 0001:000839ad       ??1CkByteData@@UAE@XZ      004849ad f   ChilkatDbgDll:CkByteData.obj
 0001:00083ab0       ??0CkByteData@@QAE@ABV0@@Z 00484ab0 f   ChilkatDbgDll:CkByteData.obj
 0001:00083b53       ??4CkByteData@@QAEAAV0@ABV0@@Z 00484b53 f   ChilkatDbgDll:CkByteData.obj
 0001:00083ba8       ?clear@CkByteData@@QAEXXZ  00484ba8 f   ChilkatDbgDll:CkByteData.obj
 0001:00083be4       ?getSize@CkByteData@@QBEKXZ 00484be4 f   ChilkatDbgDll:CkByteData.obj
 0001:00083c27       ?removeData@CkByteData@@QAEPAEXZ 00484c27 f   ChilkatDbgDll:CkByteData.obj
 0001:00083c5d       ?getData@CkByteData@@QBEPBEXZ 00484c5d f   ChilkatDbgDll:CkByteData.obj
 0001:00083c93       ?getRange@CkByteData@@QAEPBEKK@Z 00484c93 f   ChilkatDbgDll:CkByteData.obj
 0001:00083d70       ?getRangeStr@CkByteData@@QAEPBDKK@Z 00484d70 f   ChilkatDbgDll:CkByteData.obj
 0001:00083e4d       ?getBytes@CkByteData@@QBEPBEXZ 00484e4d f   ChilkatDbgDll:CkByteData.obj
 0001:00083e83       ?getDataAt@CkByteData@@QBEPBEK@Z 00484e83 f   ChilkatDbgDll:CkByteData.obj
 0001:00083ebf       ?getByte@CkByteData@@QBEEK@Z 00484ebf f   ChilkatDbgDll:CkByteData.obj
 0001:00083f14       ?getChar@CkByteData@@QBEDK@Z 00484f14 f   ChilkatDbgDll:CkByteData.obj
 0001:00083f69       ?getUInt@CkByteData@@QBEIK@Z 00484f69 f   ChilkatDbgDll:CkByteData.obj
 0001:00083fdd       ?getInt@CkByteData@@QBEHK@Z 00484fdd f   ChilkatDbgDll:CkByteData.obj
 0001:00084079       ?getUShort@CkByteData@@QBEGK@Z 00485079 f   ChilkatDbgDll:CkByteData.obj
 0001:000840ef       ?getShort@CkByteData@@QBEFK@Z 004850ef f   ChilkatDbgDll:CkByteData.obj
 0001:00084176       ?appendEncoded@CkByteData@@QAEXPBD0@Z 00485176 f   ChilkatDbgDll:CkByteData.obj
 0001:000841b6       ?appendEncodedW@CkByteData@@QAEXPBG0@Z 004851b6 f   ChilkatDbgDll:CkByteData.obj
 0001:00084290       ?encode@CkByteData@@QAEXPBDAAVCkString@@@Z 00485290 f   ChilkatDbgDll:CkByteData.obj
 0001:00084355       ?encodeW@CkByteData@@QAEXPBGAAVCkString@@@Z 00485355 f   ChilkatDbgDll:CkByteData.obj
 0001:000843fa       ?getEncodedW@CkByteData@@QAEPBGPBG@Z 004853fa f   ChilkatDbgDll:CkByteData.obj
 0001:0008458b       ?getEncoded@CkByteData@@QAEPBDPBD@Z 0048558b f   ChilkatDbgDll:CkByteData.obj
 0001:000846c1       ?getXmlCharset@CkByteData@@QAEPBDXZ 004856c1 f   ChilkatDbgDll:CkByteData.obj
 0001:0008481b       ?preAllocate@CkByteData@@QAE_NK@Z 0048581b f   ChilkatDbgDll:CkByteData.obj
 0001:00084864       ?append2@CkByteData@@QAEXPBXK@Z 00485864 f   ChilkatDbgDll:CkByteData.obj
 0001:000848af       ?append@CkByteData@@QAEXABV1@@Z 004858af f   ChilkatDbgDll:CkByteData.obj
 0001:000848f2       ?appendInt@CkByteData@@QAEXH_N@Z 004858f2 f   ChilkatDbgDll:CkByteData.obj
 0001:00084984       ?equals2@CkByteData@@QBE_NPBXK@Z 00485984 f   ChilkatDbgDll:CkByteData.obj
 0001:00084a02       ?equals@CkByteData@@QBE_NABV1@@Z 00485a02 f   ChilkatDbgDll:CkByteData.obj
 0001:00084a47       ?appendShort@CkByteData@@QAEXF_N@Z 00485a47 f   ChilkatDbgDll:CkByteData.obj
 0001:00084ac7       ?getEncodedRange@CkByteData@@QAEPBDPBDKK@Z 00485ac7 f   ChilkatDbgDll:CkByteData.obj
 0001:00084c05       ?appendRange@CkByteData@@QAEXABV1@KK@Z 00485c05 f   ChilkatDbgDll:CkByteData.obj
 0001:00084c64       ?ensureBuffer@CkByteData@@QAEXK@Z 00485c64 f   ChilkatDbgDll:CkByteData.obj
 0001:00084cab       ?findBytes2@CkByteData@@QAEHPBXK@Z 00485cab f   ChilkatDbgDll:CkByteData.obj
 0001:00084d1b       ?findBytes@CkByteData@@QAEHABV1@@Z 00485d1b f   ChilkatDbgDll:CkByteData.obj
 0001:00084d96       ?beginsWith2@CkByteData@@QAE_NPBXK@Z 00485d96 f   ChilkatDbgDll:CkByteData.obj
 0001:00084de3       ?beginsWith@CkByteData@@QAE_NABV1@@Z 00485de3 f   ChilkatDbgDll:CkByteData.obj
 0001:00084e3a       ?removeChunk@CkByteData@@QAEXKK@Z 00485e3a f   ChilkatDbgDll:CkByteData.obj
 0001:00084e85       ?byteSwap4321@CkByteData@@QAEXXZ 00485e85 f   ChilkatDbgDll:CkByteData.obj
 0001:00084ec6       ?pad@CkByteData@@QAEXHH@Z  00485ec6 f   ChilkatDbgDll:CkByteData.obj
 0001:00084f11       ?unpad@CkByteData@@QAEXHH@Z 00485f11 f   ChilkatDbgDll:CkByteData.obj
 0001:00084fa3       ?is7bit@CkByteData@@QBE_NXZ 00485fa3 f   ChilkatDbgDll:CkByteData.obj
 0001:00084fe8       ?appendStr@CkByteData@@QAEXPBD@Z 00485fe8 f   ChilkatDbgDll:CkByteData.obj
 0001:00085051       ?appendStrW@CkByteData@@QAEXPBG0@Z 00486051 f   ChilkatDbgDll:CkByteData.obj
 0001:0008520d       ?get_Utf8@CkByteData@@QBE_NXZ 0048620d f   ChilkatDbgDll:CkByteData.obj
 0001:00085225       ?replaceChar@CkByteData@@QAEXEE@Z 00486225 f   ChilkatDbgDll:CkByteData.obj
 0001:00085270       ?put_Utf8@CkByteData@@QAEX_N@Z 00486270 f   ChilkatDbgDll:CkByteData.obj
 0001:0008528d       ?appendChar@CkByteData@@QAEXD@Z 0048628d f   ChilkatDbgDll:CkByteData.obj
 0001:000852d4       ?appendCharN@CkByteData@@QAEXDH@Z 004862d4 f   ChilkatDbgDll:CkByteData.obj
 0001:0008531f       ?loadFile@CkByteData@@QAE_NPBD@Z 0048631f f   ChilkatDbgDll:CkByteData.obj
 0001:000853f7       ?saveFile@CkByteData@@QAE_NPBD@Z 004863f7 f   ChilkatDbgDll:CkByteData.obj
 0001:000854e2       ?loadFileW@CkByteData@@QAE_NPBG@Z 004864e2 f   ChilkatDbgDll:CkByteData.obj
 0001:000855b0       ?saveFileW@CkByteData@@QAE_NPBG@Z 004865b0 f   ChilkatDbgDll:CkByteData.obj
 0001:0008568e       ?appendRandom@CkByteData@@QAEXH@Z 0048668e f   ChilkatDbgDll:CkByteData.obj
 0001:000856d9       ?appendFileW@CkByteData@@QAE_NPBG@Z 004866d9 f   ChilkatDbgDll:CkByteData.obj
 0001:000857b7       ?appendFile@CkByteData@@QAE_NPBD@Z 004867b7 f   ChilkatDbgDll:CkByteData.obj
 0001:000858a2       ?shorten@CkByteData@@QAEXK@Z 004868a2 f   ChilkatDbgDll:CkByteData.obj
 0001:000858e9       ?borrowData@CkByteData@@QAEXPAXK@Z 004868e9 f   ChilkatDbgDll:CkByteData.obj
 0001:00085934       ?computeHash@CkByteData@@QAEPBDPBD0@Z 00486934 f   ChilkatDbgDll:CkByteData.obj
 0001:00085af0       ??_GCkByteData@@UAEPAXI@Z  00486af0 f i ChilkatDbgDll:CkByteData.obj
 0001:00085af0       ??_ECkByteData@@UAEPAXI@Z  00486af0 f i ChilkatDbgDll:CkByteData.obj
 0001:00085b30       ??0CkSettings@@QAE@XZ      00486b30 f   ChilkatDbgDll:CkSettings.obj
 0001:00085b4e       ??1CkSettings@@UAE@XZ      00486b4e f   ChilkatDbgDll:CkSettings.obj
 0001:00085b69       ?getTotalSizeProcessHeaps@CkSettings@@SAKXZ 00486b69 f   ChilkatDbgDll:CkSettings.obj
 0001:00085bd3       ?initializeMultithreaded@CkSettings@@SAXXZ 00486bd3 f   ChilkatDbgDll:CkSettings.obj
 0001:00085c99       ?cleanupMemory@CkSettings@@SAXXZ 00486c99 f   ChilkatDbgDll:CkSettings.obj
 0001:00085d3d       ?getAnsiCodePage@CkSettings@@SAHXZ 00486d3d f   ChilkatDbgDll:CkSettings.obj
 0001:00085d4e       ?getOemCodePage@CkSettings@@SAHXZ 00486d4e f   ChilkatDbgDll:CkSettings.obj
 0001:00085d5f       ?setAnsiCodePage@CkSettings@@SAXH@Z 00486d5f f   ChilkatDbgDll:CkSettings.obj
 0001:00085d77       ?setOemCodePage@CkSettings@@SAXH@Z 00486d77 f   ChilkatDbgDll:CkSettings.obj
 0001:00085d90       ??_ECkSettings@@UAEPAXI@Z  00486d90 f i ChilkatDbgDll:CkSettings.obj
 0001:00085d90       ??_GCkSettings@@UAEPAXI@Z  00486d90 f i ChilkatDbgDll:CkSettings.obj
 0001:00085dd0       ?popContextBase2@ClsBase@@IAEXAAVStringBuffer@@@Z 00486dd0 f   ChilkatDbgDll:ClsBase.obj
 0001:00086295       ?defineLogParams@ClsBase@@IAEX_NPBDAAVLogBase@@@Z 00487295 f   ChilkatDbgDll:ClsBase.obj
 0001:00086541       ?setMaxContextDepth@ClsBase@@QAEXH@Z 00487541 f   ChilkatDbgDll:ClsBase.obj
 0001:0008659b       ?cleanContextBase@ClsBase@@QAE_NHAAVLogBase@@@Z 0048759b f   ChilkatDbgDll:ClsBase.obj
 0001:000865fb       ?resetLogContext2@ClsBase@@QAE_NHAAVLogBase@@@Z 004875fb f   ChilkatDbgDll:ClsBase.obj
 0001:00086696       ?gcContextBase@ClsBase@@QAE_NHAAVXString@@AAVLogBase@@@Z 00487696 f   ChilkatDbgDll:ClsBase.obj
 0001:000867f0       ?lbVerifyType@ClsBase@@CAXHPBD@Z 004877f0 f   ChilkatDbgDll:ClsBase.obj
 0001:00086921       ?countLogParams@ClsBase@@IAEXXZ 00487921 f   ChilkatDbgDll:ClsBase.obj
 0001:0008694c       ?pushContextBase2@ClsBase@@IAEXAAVLogBase@@@Z 0048794c f   ChilkatDbgDll:ClsBase.obj
 0001:00086a42       ?GetLog@ClsBase@@QAEAAVLogBase@@XZ 00487a42 f   ChilkatDbgDll:ClsBase.obj
 0001:00086a5a       ?get_DebugLogFilePath@ClsBase@@UAEXAAVXString@@@Z 00487a5a f   ChilkatDbgDll:ClsBase.obj
 0001:00086a87       ?put_DebugLogFilePath@ClsBase@@UAEXAAVXString@@@Z 00487a87 f   ChilkatDbgDll:ClsBase.obj
 0001:00086ab4       ?setProgLang@ClsBaseI@@QAEXH@Z 00487ab4 f   ChilkatDbgDll:ClsBase.obj
 0001:00086ad0       ?get_VerboseLogging@ClsBaseI@@UAE_NXZ 00487ad0 f   ChilkatDbgDll:ClsBase.obj
 0001:00086ae4       ?put_VerboseLogging@ClsBaseI@@UAEX_N@Z 00487ae4 f   ChilkatDbgDll:ClsBase.obj
 0001:00086af8       ?get_DebugLogFilePath@ClsBaseI@@UAEXAAVXString@@@Z 00487af8 f   ChilkatDbgDll:ClsBase.obj
 0001:00086b0c       ?put_DebugLogFilePath@ClsBaseI@@UAEXAAVXString@@@Z 00487b0c f   ChilkatDbgDll:ClsBase.obj
 0001:00086b20       ?injectError@ClsBaseI@@UAEXPBD0@Z 00487b20 f   ChilkatDbgDll:ClsBase.obj
 0001:00086b34       ?get_LastErrorText@ClsBaseI@@UAEXAAVXString@@@Z 00487b34 f   ChilkatDbgDll:ClsBase.obj
 0001:00086b48       ?get_LastErrorXml@ClsBaseI@@UAEXAAVXString@@@Z 00487b48 f   ChilkatDbgDll:ClsBase.obj
 0001:00086b5c       ?get_LastErrorHtml@ClsBaseI@@UAEXAAVXString@@@Z 00487b5c f   ChilkatDbgDll:ClsBase.obj
 0001:00086b70       ?LogException@ClsBaseI@@UAEXAAVXString@@@Z 00487b70 f   ChilkatDbgDll:ClsBase.obj
 0001:00086b84       ?SaveLastError@ClsBaseI@@UAE_NAAVXString@@@Z 00487b84 f   ChilkatDbgDll:ClsBase.obj
 0001:00086b9a       ?get_Version@ClsBase@@QAEXAAVXString@@@Z 00487b9a f   ChilkatDbgDll:ClsBase.obj
 0001:00086bc5       ?get_Version@ClsBaseI@@QAEXAAVXString@@@Z 00487bc5 f   ChilkatDbgDll:ClsBase.obj
 0001:00086bf0       ?get_VerboseLogging@ClsBase@@UAE_NXZ 00487bf0 f   ChilkatDbgDll:ClsBase.obj
 0001:00086c08       ?put_VerboseLogging@ClsBase@@UAEX_N@Z 00487c08 f   ChilkatDbgDll:ClsBase.obj
 0001:00086c2e       ?enterContextBase@ClsBase@@QAEXPBD@Z 00487c2e f   ChilkatDbgDll:ClsBase.obj
 0001:00086cf1       ?enterContextBase2@ClsBase@@QAEXPBDAAVLogBase@@@Z 00487cf1 f   ChilkatDbgDll:ClsBase.obj
 0001:00086da9       ??0ClsBaseI@@QAE@XZ        00487da9 f   ChilkatDbgDll:ClsBase.obj
 0001:00086dc7       ??1ClsBaseI@@UAE@XZ        00487dc7 f   ChilkatDbgDll:ClsBase.obj
 0001:00086de2       ??0ClsBase@@QAE@XZ         00487de2 f   ChilkatDbgDll:ClsBase.obj
 0001:00086e7e       ??1ClsBase@@UAE@XZ         00487e7e f   ChilkatDbgDll:ClsBase.obj
 0001:00086f24       ?setProgLang@ClsBase@@QAEXH@Z 00487f24 f   ChilkatDbgDll:ClsBase.obj
 0001:00086f40       ?dotNetDispose@ClsBase@@UAEXXZ 00487f40 f   ChilkatDbgDll:ClsBase.obj
 0001:00086f52       ?dotNetDispose@ClsBaseI@@UAEXXZ 00487f52 f   ChilkatDbgDll:ClsBase.obj
 0001:00086f64       ?mlog@ClsBase@@QAEAAVLogBase@@XZ 00487f64 f   ChilkatDbgDll:ClsBase.obj
 0001:00086f7c       ?prepInputString2@ClsBase@@SA_NAAVXString@@0AAVDataBuffer@@_N2AAVLogBase@@@Z 00487f7c f   ChilkatDbgDll:ClsBase.obj
 0001:000870b3       ?prepInputString@ClsBase@@SA_NAAV_ckCharset@@AAVXString@@AAVDataBuffer@@_N33AAVLogBase@@@Z 004880b3 f   ChilkatDbgDll:ClsBase.obj
 0001:00087262       ?logProgrammingLanguage@ClsBase@@IAEXXZ 00488262 f   ChilkatDbgDll:ClsBase.obj
 0001:0008728d       ?LogWindowsProgLang@ClsBase@@AAEXAAVLogBase@@@Z 0048828d f   ChilkatDbgDll:ClsBase.obj
 0001:00087509       ?LogProgLangX@ClsBase@@AAEXAAVLogBase@@@Z 00488509 f   ChilkatDbgDll:ClsBase.obj
 0001:0008751d       ?LogProgLangX2@ClsBase@@AAEXPBDAAVLogBase@@@Z 0048851d f   ChilkatDbgDll:ClsBase.obj
 0001:00087670       ?logProgrammingLanguage2@ClsBase@@IAEXAAVLogBase@@@Z 00488670 f   ChilkatDbgDll:ClsBase.obj
 0001:0008781b       ?injectError@ClsBase@@UAEXPBD0@Z 0048881b f   ChilkatDbgDll:ClsBase.obj
 0001:0008787b       ?LogException@ClsBase@@UAEXAAVXString@@@Z 0048887b f   ChilkatDbgDll:ClsBase.obj
 0001:000878ad       ?CreateExceptionLog@ClsBase@@QAEXPBD@Z 004888ad f   ChilkatDbgDll:ClsBase.obj
 0001:00087912       ?isAspDotNet@ClsBase@@QAE_NXZ 00488912 f   ChilkatDbgDll:ClsBase.obj
 0001:000879e1       ?isWin32@ClsBase@@QAE_NXZ  004889e1 f   ChilkatDbgDll:ClsBase.obj
 0001:000879f5       ?SaveLastError@ClsBase@@UAE_NAAVXString@@@Z 004889f5 f   ChilkatDbgDll:ClsBase.obj
 0001:00087af9       ?useCrlf@ClsBase@@IAE_NXZ  00488af9 f   ChilkatDbgDll:ClsBase.obj
 0001:00087b62       ?get_LastErrorText@ClsBase@@UAEXAAVXString@@@Z 00488b62 f   ChilkatDbgDll:ClsBase.obj
 0001:00087c32       ?get_LastErrorXml@ClsBase@@UAEXAAVXString@@@Z 00488c32 f   ChilkatDbgDll:ClsBase.obj
 0001:00087d02       ?get_LastErrorHtml@ClsBase@@UAEXAAVXString@@@Z 00488d02 f   ChilkatDbgDll:ClsBase.obj
 0001:00087dd2       ?logSuccessFailure@ClsBase@@QAEX_N@Z 00488dd2 f   ChilkatDbgDll:ClsBase.obj
 0001:00087e3a       ?logSuccessFailure2@ClsBase@@SAX_NAAVLogBase@@@Z 00488e3a f   ChilkatDbgDll:ClsBase.obj
 0001:00087e88       ?lbCheckType18@ClsBase@@CA_NAAVStringBuffer@@AAH11@Z 00488e88 f   ChilkatDbgDll:ClsBase.obj
 0001:00087f75       ?lbCheckType16@ClsBase@@CAXHHHAAVStringBuffer@@@Z 00488f75 f   ChilkatDbgDll:ClsBase.obj
 0001:00088026       ?lbCheckType17@ClsBase@@CAXAAVStringBuffer@@@Z 00489026 f   ChilkatDbgDll:ClsBase.obj
 0001:0008808a       ?lbCheckType19@ClsBase@@CA_NPBD0AAVStringBuffer@@@Z 0048908a f   ChilkatDbgDll:ClsBase.obj
 0001:000884ac       ?lbCheckType26@ClsBase@@KA_NPBDAAVStringBuffer@@@Z 004894ac f   ChilkatDbgDll:ClsBase.obj
 0001:00088575       ?lbCheckType25@ClsBase@@KA_NPBDAAVStringBuffer@@@Z 00489575 f   ChilkatDbgDll:ClsBase.obj
 0001:0008867e       ?lbCheckType20@ClsBase@@CA_NAAVStringBuffer@@@Z 0048967e f   ChilkatDbgDll:ClsBase.obj
 0001:000887ef       ?lbCheckType21@ClsBase@@CA_NHHHAAH00AAVLogBase@@@Z 004897ef f   ChilkatDbgDll:ClsBase.obj
 0001:0008893f       ?lbCheckType14@ClsBase@@CA_NAAVStringBuffer@@AAVLogBase@@@Z 0048993f f   ChilkatDbgDll:ClsBase.obj
 0001:00088f1a       ?lbCheckType24@ClsBase@@KA_NPBD00AA_NAAVLogBase@@_N@Z 00489f1a f   ChilkatDbgDll:ClsBase.obj
 0001:00089d0f       ?lbCheckType13@ClsBase@@CA_NAAVLogBase@@@Z 0048ad0f f   ChilkatDbgDll:ClsBase.obj
 0001:00089fef       ?lbCheckType22@ClsBase@@CA_NAAVStringBuffer@@0AAVLogBase@@@Z 0048afef f   ChilkatDbgDll:ClsBase.obj
 0001:0008a0b4       ?lbCheckType23@ClsBase@@CA_NAAVStringBuffer@@AAVLogBase@@@Z 0048b0b4 f   ChilkatDbgDll:ClsBase.obj
 0001:0008a1ca       ?lbCheckType15@ClsBase@@CA_NAAVStringBuffer@@AAVLogBase@@@Z 0048b1ca f   ChilkatDbgDll:ClsBase.obj
 0001:0008a412       ?lbCheckType12@ClsBase@@CA_NXZ 0048b412 f   ChilkatDbgDll:ClsBase.obj
 0001:0008a466       ?lbCheckType9@ClsBase@@CA_NAAVStringBuffer@@AAVXString@@AAVLogBase@@@Z 0048b466 f   ChilkatDbgDll:ClsBase.obj
 0001:0008a5aa       ?lbCheckType10@ClsBase@@CA_NAAVStringBuffer@@0AAVLogBase@@@Z 0048b5aa f   ChilkatDbgDll:ClsBase.obj
 0001:0008a681       ?lbCheckType11@ClsBase@@CA_NAAVStringBuffer@@AAVLogBase@@@Z 0048b681 f   ChilkatDbgDll:ClsBase.obj
 0001:0008a7d3       ?lbCheckType8@ClsBase@@CA_NXZ 0048b7d3 f   ChilkatDbgDll:ClsBase.obj
 0001:0008a83f       ?lbCheckType1@ClsBase@@CAPAUHKEY__@@XZ 0048b83f f   ChilkatDbgDll:ClsBase.obj
 0001:0008a8b6       ?lbCheckType2@ClsBase@@CAPAUHKEY__@@_N@Z 0048b8b6 f   ChilkatDbgDll:ClsBase.obj
 0001:0008a93f       ?lbCheckType3@ClsBase@@CAPAUHKEY__@@XZ 0048b93f f   ChilkatDbgDll:ClsBase.obj
 0001:0008ab2b       ?lbCheckType4@ClsBase@@CAPAUHKEY__@@_N@Z 0048bb2b f   ChilkatDbgDll:ClsBase.obj
 0001:0008ad6d       ?lbCheckType5@ClsBase@@CA_NAAVStringBuffer@@_N0AAVLogBase@@@Z 0048bd6d f   ChilkatDbgDll:ClsBase.obj
 0001:0008b106       ?lbCheckType6@ClsBase@@CA_NAAVStringBuffer@@_NAAVLogBase@@@Z 0048c106 f   ChilkatDbgDll:ClsBase.obj
 0001:0008b443       ?lbCheckType7@ClsBase@@CA_NAAVStringBuffer@@_NAAVLogBase@@@Z 0048c443 f   ChilkatDbgDll:ClsBase.obj
 0001:0008b770       ??_GClsBaseI@@UAEPAXI@Z    0048c770 f i ChilkatDbgDll:ClsBase.obj
 0001:0008b770       ??_EClsBaseI@@UAEPAXI@Z    0048c770 f i ChilkatDbgDll:ClsBase.obj
 0001:0008b7b0       ??_EClsBase@@UAEPAXI@Z     0048c7b0 f i ChilkatDbgDll:ClsBase.obj
 0001:0008b7b0       ??_GClsBase@@UAEPAXI@Z     0048c7b0 f i ChilkatDbgDll:ClsBase.obj
 0001:0008b7f0       ??_EClsBase@@W7AEPAXI@Z    0048c7f0 f i ChilkatDbgDll:ClsBase.obj
 0001:0008b800       ??0CritSecExitor@@QAE@PAVChilkatCritSec@@@Z 0048c800 f   ChilkatDbgDll:ChilkatCritSec.obj
 0001:0008b847       ??0CritSecExitor@@QAE@XZ   0048c847 f   ChilkatDbgDll:ChilkatCritSec.obj
 0001:0008b86f       ??1CritSecExitor@@UAE@XZ   0048c86f f   ChilkatDbgDll:ChilkatCritSec.obj
 0001:0008b8b2       ??0ChilkatCritSec@@QAE@XZ  0048c8b2 f   ChilkatDbgDll:ChilkatCritSec.obj
 0001:0008b8f2       ??1ChilkatCritSec@@UAE@XZ  0048c8f2 f   ChilkatDbgDll:ChilkatCritSec.obj
 0001:0008b95b       ?createNewCritSec@ChilkatCritSec@@SAPAV1@XZ 0048c95b f   ChilkatDbgDll:ChilkatCritSec.obj
 0001:0008ba16       ?enterCriticalSection@ChilkatCritSec@@QAEXXZ 0048ca16 f   ChilkatDbgDll:ChilkatCritSec.obj
 0001:0008ba4a       ?leaveCriticalSection@ChilkatCritSec@@QAEXXZ 0048ca4a f   ChilkatDbgDll:ChilkatCritSec.obj
 0001:0008ba80       ??_ECritSecExitor@@UAEPAXI@Z 0048ca80 f i ChilkatDbgDll:ChilkatCritSec.obj
 0001:0008ba80       ??_GCritSecExitor@@UAEPAXI@Z 0048ca80 f i ChilkatDbgDll:ChilkatCritSec.obj
 0001:0008bac0       ??_GChilkatCritSec@@UAEPAXI@Z 0048cac0 f i ChilkatDbgDll:ChilkatCritSec.obj
 0001:0008bac0       ??_EChilkatCritSec@@UAEPAXI@Z 0048cac0 f i ChilkatDbgDll:ChilkatCritSec.obj
 0001:0008bb00       ?getPrevious@QueuedObject@@QAEPAV1@XZ 0048cb00 f   ChilkatDbgDll:Queue.obj
 0001:0008bb18       ?setPrevious@QueuedObject@@QAEXPAV1@@Z 0048cb18 f   ChilkatDbgDll:Queue.obj
 0001:0008bb35       ?getObject@QueuedObject@@QAEPAXXZ 0048cb35 f   ChilkatDbgDll:Queue.obj
 0001:0008bb4d       ?setObject@QueuedObject@@QAEXPAX@Z 0048cb4d f   ChilkatDbgDll:Queue.obj
 0001:0008bb6a       ?createNewObject@QueuedObject@@SAPAV1@PAX@Z 0048cb6a f   ChilkatDbgDll:Queue.obj
 0001:0008bc29       ??0QueuedObject@@QAE@PAX@Z 0048cc29 f   ChilkatDbgDll:Queue.obj
 0001:0008bc5c       ??0_ckQueue@@QAE@XZ        0048cc5c f   ChilkatDbgDll:Queue.obj
 0001:0008bc8e       ??1_ckQueue@@UAE@XZ        0048cc8e f   ChilkatDbgDll:Queue.obj
 0001:0008bcc6       ?push@_ckQueue@@QAEXPAX@Z  0048ccc6 f   ChilkatDbgDll:Queue.obj
 0001:0008bd39       ?hasObjects@_ckQueue@@QBE_NXZ 0048cd39 f   ChilkatDbgDll:Queue.obj
 0001:0008bd59       ?discard@_ckQueue@@AAEXXZ  0048cd59 f   ChilkatDbgDll:Queue.obj
 0001:0008bdbd       ?pop@_ckQueue@@QAEPAXXZ    0048cdbd f   ChilkatDbgDll:Queue.obj
 0001:0008be40       ??_EQueuedObject@@UAEPAXI@Z 0048ce40 f i ChilkatDbgDll:Queue.obj
 0001:0008be40       ??_GQueuedObject@@UAEPAXI@Z 0048ce40 f i ChilkatDbgDll:Queue.obj
 0001:0008be80       ??_G_ckQueue@@UAEPAXI@Z    0048ce80 f i ChilkatDbgDll:Queue.obj
 0001:0008be80       ??_E_ckQueue@@UAEPAXI@Z    0048ce80 f i ChilkatDbgDll:Queue.obj
 0001:0008bec0       ?createNewObject@LogEntry2@@SAPAV1@XZ 0048cec0 f   ChilkatDbgDll:LogEntry2.obj
 0001:0008bf7b       ??0LogEntry2@@QAE@XZ       0048cf7b f   ChilkatDbgDll:LogEntry2.obj
 0001:0008bfd0       ?CheckDeleteEmptyContext@LogEntry2@@QAEXXZ 0048cfd0 f   ChilkatDbgDll:LogEntry2.obj
 0001:0008c079       ?IsContext@LogEntry2@@QBE_NXZ 0048d079 f   ChilkatDbgDll:LogEntry2.obj
 0001:0008c09a       ?get_NumChildren@LogEntry2@@QBEHXZ 0048d09a f   ChilkatDbgDll:LogEntry2.obj
 0001:0008c0ce       ?allowMoreSubEntries@LogEntry2@@QBE_NXZ 0048d0ce f   ChilkatDbgDll:LogEntry2.obj
 0001:0008c10f       ?recycleContents@LogEntry2@@QAEXXZ 0048d10f f   ChilkatDbgDll:LogEntry2.obj
 0001:0008c1dd       ?cleanup@LogEntry2@@QAEXXZ 0048d1dd f   ChilkatDbgDll:LogEntry2.obj
 0001:0008c2ef       ??1LogEntry2@@UAE@XZ       0048d2ef f   ChilkatDbgDll:LogEntry2.obj
 0001:0008c3ef       ?appendLogEntry@LogEntry2@@QAEXPAV1@@Z 0048d3ef f   ChilkatDbgDll:LogEntry2.obj
 0001:0008c4f5       ?SetMessage@LogEntry2@@QAE_NPBD0@Z 0048d4f5 f   ChilkatDbgDll:LogEntry2.obj
 0001:0008c5b0       ?OpenContext@LogEntry2@@QAE_NPBD@Z 0048d5b0 f   ChilkatDbgDll:LogEntry2.obj
 0001:0008c67a       ?SetError@LogEntry2@@QAE_NPBD@Z 0048d67a f   ChilkatDbgDll:LogEntry2.obj
 0001:0008c703       ?SetXml@LogEntry2@@QAE_NPBD@Z 0048d703 f   ChilkatDbgDll:LogEntry2.obj
 0001:0008c78c       ?SetInfo@LogEntry2@@QAE_NPBD@Z 0048d78c f   ChilkatDbgDll:LogEntry2.obj
 0001:0008c815       ?GetXml@LogEntry2@@QAEXAAVStringBuffer@@H@Z 0048d815 f   ChilkatDbgDll:LogEntry2.obj
 0001:0008cbc4       ?GetHtml@LogEntry2@@QAEXAAVStringBuffer@@@Z 0048dbc4 f   ChilkatDbgDll:LogEntry2.obj
 0001:0008cf0c       ?GetText@LogEntry2@@QAEXAAVStringBuffer@@H@Z 0048df0c f   ChilkatDbgDll:LogEntry2.obj
 0001:0008d16b       ?needsCData@LogEntry2@@ABE_NPBD@Z 0048e16b f   ChilkatDbgDll:LogEntry2.obj
 0001:0008d2b0       ??_ELogEntry2@@UAEPAXI@Z   0048e2b0 f i ChilkatDbgDll:LogEntry2.obj
 0001:0008d2b0       ??_GLogEntry2@@UAEPAXI@Z   0048e2b0 f i ChilkatDbgDll:LogEntry2.obj
 0001:0008d2f0       ?getCdata@TreeNode@@QBE_NXZ 0048e2f0 f   ChilkatDbgDll:TreeNode.obj
 0001:0008d308       ?setCdata@TreeNode@@QAEX_N@Z 0048e308 f   ChilkatDbgDll:TreeNode.obj
 0001:0008d325       ?getNumChildren@TreeNode@@QBEHXZ 0048e325 f   ChilkatDbgDll:TreeNode.obj
 0001:0008d359       ?getChild@TreeNode@@QAEPAV1@H@Z 0048e359 f   ChilkatDbgDll:TreeNode.obj
 0001:0008d393       ?getTag@TreeNode@@QAEPBDXZ 0048e393 f   ChilkatDbgDll:TreeNode.obj
 0001:0008d3bf       ?getContentSize@TreeNode@@QBEHXZ 0048e3bf f   ChilkatDbgDll:TreeNode.obj
 0001:0008d3f3       ?getContentSb_const@TreeNode@@QBEPBVStringBuffer@@XZ 0048e3f3 f   ChilkatDbgDll:TreeNode.obj
 0001:0008d40b       ?transferContent_sc@TreeNode@@QAEXAAVStringBuffer@@@Z 0048e40b f   ChilkatDbgDll:TreeNode.obj
 0001:0008d44e       ?getContent@TreeNode@@QBEPBDXZ 0048e44e f   ChilkatDbgDll:TreeNode.obj
 0001:0008d485       ?getContentIntValue@TreeNode@@QBEHXZ 0048e485 f   ChilkatDbgDll:TreeNode.obj
 0001:0008d4b9       ?getContentDblValue@TreeNode@@QBENXZ 0048e4b9 f   ChilkatDbgDll:TreeNode.obj
 0001:0008d4f1       ?getPrevSibling@TreeNode@@QAEPAV1@XZ 0048e4f1 f   ChilkatDbgDll:TreeNode.obj
 0001:0008d509       ?getNextSibling@TreeNode@@QAEPAV1@XZ 0048e509 f   ChilkatDbgDll:TreeNode.obj
 0001:0008d521       ??0TreeInfo@@QAE@XZ        0048e521 f   ChilkatDbgDll:TreeNode.obj
 0001:0008d5e6       ??1TreeInfo@@UAE@XZ        0048e5e6 f   ChilkatDbgDll:TreeNode.obj
 0001:0008d759       ?openTag@TreeNode@@IAE_NAAVStringBuffer@@H@Z 0048e759 f   ChilkatDbgDll:TreeNode.obj
 0001:0008d860       ?closeTag@TreeNode@@IAEXAAVStringBuffer@@H@Z 0048e860 f   ChilkatDbgDll:TreeNode.obj
 0001:0008d90f       ?outputContent@TreeNode@@IAE_NAAVStringBuffer@@@Z 0048e90f f   ChilkatDbgDll:TreeNode.obj
 0001:0008db84       ?checkCdataRequired@TreeNode@@IAEXXZ 0048eb84 f   ChilkatDbgDll:TreeNode.obj
 0001:0008dc1e       ?setContentUtf8@TreeNode@@QAEXPBD@Z 0048ec1e f   ChilkatDbgDll:TreeNode.obj
 0001:0008dc86       ?setContentUtf8Data@TreeNode@@QAEXABVDataBuffer@@@Z 0048ec86 f   ChilkatDbgDll:TreeNode.obj
 0001:0008dcbe       ?setContentN@TreeNode@@QAEXPBDH@Z 0048ecbe f   ChilkatDbgDll:TreeNode.obj
 0001:0008dd4a       ?createRoot@TreeNode@@SAPAV1@PBD@Z 0048ed4a f   ChilkatDbgDll:TreeNode.obj
 0001:0008ddec       ?createRoot2@TreeNode@@SAPAV1@PBD0@Z 0048edec f   ChilkatDbgDll:TreeNode.obj
 0001:0008de9a       ?createRoot3@TreeNode@@SAPAV1@PBDAAVDataBuffer@@@Z 0048ee9a f   ChilkatDbgDll:TreeNode.obj
 0001:0008df59       ?createNewObject@TreeNode@@SAPAV1@XZ 0048ef59 f   ChilkatDbgDll:TreeNode.obj
 0001:0008e014       ?createNewObject@TreeInfo@@SAPAV1@XZ 0048f014 f   ChilkatDbgDll:TreeNode.obj
 0001:0008e0cf       ?createNode@TreeNode@@SAPAV1@PAV1@PBD@Z 0048f0cf f   ChilkatDbgDll:TreeNode.obj
 0001:0008e12e       ?createNode2@TreeNode@@SAPAV1@PAV1@PBD1@Z 0048f12e f   ChilkatDbgDll:TreeNode.obj
 0001:0008e19d       ?createNode3@TreeNode@@SAPAV1@PAV1@PBDAAVDataBuffer@@PAVLogBase@@@Z 0048f19d f   ChilkatDbgDll:TreeNode.obj
 0001:0008e21a       ??0TreeNode@@AAE@ABV0@@Z   0048f21a f   ChilkatDbgDll:TreeNode.obj
 0001:0008e2b8       ??4TreeNode@@AAEAAV0@ABV0@@Z 0048f2b8 f   ChilkatDbgDll:TreeNode.obj
 0001:0008e2cf       ??0TreeNode@@AAE@XZ        0048f2cf f   ChilkatDbgDll:TreeNode.obj
 0001:0008e36b       ??1TreeNode@@UAE@XZ        0048f36b f   ChilkatDbgDll:TreeNode.obj
 0001:0008e585       ?clearForRecycle@TreeNode@@QAEXXZ 0048f585 f   ChilkatDbgDll:TreeNode.obj
 0001:0008e747       ?hasContent@TreeNode@@QBE_NXZ 0048f747 f   ChilkatDbgDll:TreeNode.obj
 0001:0008e785       ?appendContent@TreeNode@@QAEXPBD@Z 0048f785 f   ChilkatDbgDll:TreeNode.obj
 0001:0008e7e1       ?ensureContentObj@TreeNode@@QAE_NXZ 0048f7e1 f   ChilkatDbgDll:TreeNode.obj
 0001:0008e820       ?appendContentN@TreeNode@@QAEXPBDH@Z 0048f820 f   ChilkatDbgDll:TreeNode.obj
 0001:0008e895       ?appendContentInt@TreeNode@@QAEXH@Z 0048f895 f   ChilkatDbgDll:TreeNode.obj
 0001:0008e8f0       ?appendContentChar@TreeNode@@QAEXD@Z 0048f8f0 f   ChilkatDbgDll:TreeNode.obj
 0001:0008e94b       ?appendContent@TreeNode@@QAEXABVDataBuffer@@@Z 0048f94b f   ChilkatDbgDll:TreeNode.obj
 0001:0008e9ce       ?insertAscending@TreeNode@@QAEPAV1@PBD0@Z 0048f9ce f   ChilkatDbgDll:TreeNode.obj
 0001:0008eb55       ?hasAttributeWithValue@TreeNode@@QAE_NAAVStringPair@@@Z 0048fb55 f   ChilkatDbgDll:TreeNode.obj
 0001:0008eb9d       ?hasAttribute@TreeNode@@QAE_NPBD@Z 0048fb9d f   ChilkatDbgDll:TreeNode.obj
 0001:0008ebd7       ?hasAttributeWithValue@TreeNode@@QAE_NPBD0@Z 0048fbd7 f   ChilkatDbgDll:TreeNode.obj
 0001:0008ec15       ?hasMatchingAttribute@TreeNode@@QAE_NPBD0@Z 0048fc15 f   ChilkatDbgDll:TreeNode.obj
 0001:0008ec53       ?renameChildTag@TreeNode@@QAEXPBD0@Z 0048fc53 f   ChilkatDbgDll:TreeNode.obj
 0001:0008ecf7       ?getChild@TreeNode@@QAEPAV1@PBDPAVStringPair@@@Z 0048fcf7 f   ChilkatDbgDll:TreeNode.obj
 0001:0008edaa       ?hasChildWithTag@TreeNode@@QAE_NPBD@Z 0048fdaa f   ChilkatDbgDll:TreeNode.obj
 0001:0008ee3c       ?getChildWithAttr@TreeNode@@QAEPAV1@PBD00@Z 0048fe3c f   ChilkatDbgDll:TreeNode.obj
 0001:0008eee8       ?getNthChildWithTag@TreeNode@@QAEPAV1@HPBD@Z 0048fee8 f   ChilkatDbgDll:TreeNode.obj
 0001:0008ef9e       ?getNthChildExact@TreeNode@@QAEPAV1@HPBD0@Z 0048ff9e f   ChilkatDbgDll:TreeNode.obj
 0001:0008f09c       ?getNthChildWithContent@TreeNode@@QAEPAV1@HPBD@Z 0049009c f   ChilkatDbgDll:TreeNode.obj
 0001:0008f169       ?numChildrenHavingTag@TreeNode@@QAEHPBD@Z 00490169 f   ChilkatDbgDll:TreeNode.obj
 0001:0008f20b       ?getNumAttributes@TreeNode@@QBEHXZ 0049020b f   ChilkatDbgDll:TreeNode.obj
 0001:0008f23f       ?getAttributeName@TreeNode@@QBEXHAAVStringBuffer@@@Z 0049023f f   ChilkatDbgDll:TreeNode.obj
 0001:0008f27b       ?getAttributePair@TreeNode@@QBEXHAAVStringBuffer@@0@Z 0049027b f   ChilkatDbgDll:TreeNode.obj
 0001:0008f2bb       ?getAttributeValue@TreeNode@@QBE_NHAAVStringBuffer@@@Z 004902bb f   ChilkatDbgDll:TreeNode.obj
 0001:0008f2f9       ?getAttributeValue@TreeNode@@QBE_NPBDAAVStringBuffer@@@Z 004902f9 f   ChilkatDbgDll:TreeNode.obj
 0001:0008f337       ?removeAllAttributes@TreeNode@@QAEXXZ 00490337 f   ChilkatDbgDll:TreeNode.obj
 0001:0008f369       ?removeAttribute@TreeNode@@QAEXPBD@Z 00490369 f   ChilkatDbgDll:TreeNode.obj
 0001:0008f3a1       ?getTreeId@TreeNode@@QBEHXZ 004903a1 f   ChilkatDbgDll:TreeNode.obj
 0001:0008f3bc       ?setXmlDeclaration@TreeNode@@QAEXPAV1@@Z 004903bc f   ChilkatDbgDll:TreeNode.obj
 0001:0008f441       ?addStyleSheetDeclaration@TreeNode@@QAEXPAV1@@Z 00490441 f   ChilkatDbgDll:TreeNode.obj
 0001:0008f4c9       ?appendStyleInfoToString@TreeNode@@QAEXAAVStringBuffer@@@Z 004904c9 f   ChilkatDbgDll:TreeNode.obj
 0001:0008f56d       ?copyAttributes@TreeNode@@QAEXAAV1@@Z 0049056d f   ChilkatDbgDll:TreeNode.obj
 0001:0008f6aa       ?updateAttribute2@TreeNode@@QAEXPBDI0I@Z 004906aa f   ChilkatDbgDll:TreeNode.obj
 0001:0008f729       ?getOrCreateContentSb@TreeNode@@QAEPAVStringBuffer@@XZ 00490729 f   ChilkatDbgDll:TreeNode.obj
 0001:0008f764       ?getContentSb@TreeNode@@QAEPAVStringBuffer@@XZ 00490764 f   ChilkatDbgDll:TreeNode.obj
 0001:0008f77c       ?getParent@TreeNode@@QBEPAV1@XZ 0049077c f   ChilkatDbgDll:TreeNode.obj
 0001:0008f794       ?getRoot@TreeNode@@QBEPAV1@XZ 00490794 f   ChilkatDbgDll:TreeNode.obj
 0001:0008f7af       ?addAttributeSb@TreeNode@@QAEXAAVStringBuffer@@PBDI@Z 004907af f   ChilkatDbgDll:TreeNode.obj
 0001:0008f876       ?addAttribute2@TreeNode@@QAEXPBDI0I@Z 00490876 f   ChilkatDbgDll:TreeNode.obj
 0001:0008fa15       ?checkInsertAscending@TreeNode@@QAEPAV1@PBDPAVStringPair@@@Z 00490a15 f   ChilkatDbgDll:TreeNode.obj
 0001:0008faa9       ?createXML@TreeNode@@QAEXAAVStringBuffer@@HH_N@Z 00490aa9 f   ChilkatDbgDll:TreeNode.obj
 0001:0008fe10       ?getFirstChild@TreeNode@@QAEPAV1@XZ 00490e10 f   ChilkatDbgDll:TreeNode.obj
 0001:0008fe46       ?getLastChild@TreeNode@@QAEPAV1@XZ 00490e46 f   ChilkatDbgDll:TreeNode.obj
 0001:0008fe7a       ?getTreeRefCount@TreeNode@@QBEHXZ 00490e7a f   ChilkatDbgDll:TreeNode.obj
 0001:0008feb4       ?incTreeRefCount@TreeNode@@QAE_NXZ 00490eb4 f   ChilkatDbgDll:TreeNode.obj
 0001:0008ff21       ?decTreeRefCount@TreeNode@@QAE_NXZ 00490f21 f   ChilkatDbgDll:TreeNode.obj
 0001:0008ffb0       ?getAllContent@TreeNode@@QAEXAAVStringBuffer@@D@Z 00490fb0 f   ChilkatDbgDll:TreeNode.obj
 0001:000900ff       ?ensureLegalTagStartChar@TreeNode@@QAEXXZ 004910ff f   ChilkatDbgDll:TreeNode.obj
 0001:0009020f       ?deleteTree@TreeNode@@QAEXXZ 0049120f f   ChilkatDbgDll:TreeNode.obj
 0001:0009026b       ?verifyRefCounts@TreeNode@@QAE_NXZ 0049126b f   ChilkatDbgDll:TreeNode.obj
 0001:000902b5       ?localRefcountSum@TreeNode@@IAEHXZ 004912b5 f   ChilkatDbgDll:TreeNode.obj
 0001:00090399       ?searchForAttribute@TreeNode@@QAEPAV1@PAV1@PBD11@Z 00491399 f   ChilkatDbgDll:TreeNode.obj
 0001:0009056a       ?searchExactAttrAndContent@TreeNode@@QAEPAV1@PAV1@PBD111@Z 0049156a f   ChilkatDbgDll:TreeNode.obj
 0001:00090756       ?searchForTag@TreeNode@@QAEPAV1@PAV1@PBD@Z 00491756 f   ChilkatDbgDll:TreeNode.obj
 0001:0009090e       ?collectTagContent@TreeNode@@QAEXPBDPAVStringConsumer@@@Z 0049190e f   ChilkatDbgDll:TreeNode.obj
 0001:00090aa6       ?accumulateTagContent@TreeNode@@QAEXPBDAAVStringBuffer@@0@Z 00491aa6 f   ChilkatDbgDll:TreeNode.obj
 0001:00090da3       ?accumulateBase64Content@TreeNode@@QAEXAAVDataBuffer@@PAVExtPtrArray@@@Z 00491da3 f   ChilkatDbgDll:TreeNode.obj
 0001:00090f60       ?accumulateContent@TreeNode@@QAEXAAVStringBuffer@@PBD@Z 00491f60 f   ChilkatDbgDll:TreeNode.obj
 0001:00091210       ?searchForMatchingNode@TreeNode@@QAEPAV1@PAV1@PBD1@Z 00492210 f   ChilkatDbgDll:TreeNode.obj
 0001:000913f0       ?searchAllForMatchingNode@TreeNode@@QAEPAV1@PAV1@PBD@Z 004923f0 f   ChilkatDbgDll:TreeNode.obj
 0001:00091594       ?findBiggestContent@TreeNode@@QAEPAV1@HHPBD@Z 00492594 f   ChilkatDbgDll:TreeNode.obj
 0001:00091741       ?firstSignificantContent@TreeNode@@QAEPAV1@HHAAVExtPtrArray@@0@Z 00492741 f   ChilkatDbgDll:TreeNode.obj
 0001:00091ae1       ?removeChild@TreeNode@@QAEXPBD@Z 00492ae1 f   ChilkatDbgDll:TreeNode.obj
 0001:00091b6b       ?removeChildWithContent@TreeNode@@QAEXPBD@Z 00492b6b f   ChilkatDbgDll:TreeNode.obj
 0001:00091bf5       ?removeChildByIndex@TreeNode@@QAEXH@Z 00492bf5 f   ChilkatDbgDll:TreeNode.obj
 0001:00091c71       ?removeFromTree@TreeNode@@QAEXXZ 00492c71 f   ChilkatDbgDll:TreeNode.obj
 0001:00091e72       ?moveDownChildWithContent@TreeNode@@QAEXPBD@Z 00492e72 f   ChilkatDbgDll:TreeNode.obj
 0001:00091f41       ?moveUpChildWithContent@TreeNode@@QAEXPBD@Z 00492f41 f   ChilkatDbgDll:TreeNode.obj
 0001:0009200d       ?insertChild@TreeNode@@QAE_NHPAV1@@Z 0049300d f   ChilkatDbgDll:TreeNode.obj
 0001:000921cc       ?contentMatches@TreeNode@@QAE_NPBD_N@Z 004931cc f   ChilkatDbgDll:TreeNode.obj
 0001:0009220a       ?contentEquals@TreeNode@@QAE_NPBD_N@Z 0049320a f   ChilkatDbgDll:TreeNode.obj
 0001:00092262       ?hasChildWithContent@TreeNode@@QAE_NPBD@Z 00493262 f   ChilkatDbgDll:TreeNode.obj
 0001:000922fe       ?hasChildWithTagAndContent@TreeNode@@QAE_NPBD0@Z 004932fe f   ChilkatDbgDll:TreeNode.obj
 0001:000923b3       ?transferStyleSheets@TreeNode@@SAXAAVExtPtrArray@@0@Z 004933b3 f   ChilkatDbgDll:TreeNode.obj
 0001:00092426       ?appendChild2@TreeNode@@QAE_NPAV1@H@Z 00493426 f   ChilkatDbgDll:TreeNode.obj
 0001:0009259b       ?setInfoRecursive@TreeNode@@QAEXPAVTreeInfo@@@Z 0049359b f   ChilkatDbgDll:TreeNode.obj
 0001:00092688       ?removeInvalidXmlTagChars@TreeNode@@IAEXPAEI@Z 00493688 f   ChilkatDbgDll:TreeNode.obj
 0001:00092844       ?setTag@TreeNode@@QAEXPBD@Z 00493844 f   ChilkatDbgDll:TreeNode.obj
 0001:00092924       ?_releaseMyTag@TreeNode@@IAEXXZ 00493924 f   ChilkatDbgDll:TreeNode.obj
 0001:0009297b       ?swapNode@TreeNode@@QAEXAAV1@@Z 0049397b f   ChilkatDbgDll:TreeNode.obj
 0001:00092bb5       ?swapTree@TreeNode@@QAE_NAAV1@@Z 00493bb5 f   ChilkatDbgDll:TreeNode.obj
 0001:00092e5d       ?parsePrologLineAttr@TreeNode@@KAXAAVParseEngine@@PAV1@PAVLogBase@@@Z 00493e5d f   ChilkatDbgDll:TreeNode.obj
 0001:000934ee       ?addStyleSheet@TreeNode@@QAE_NPBDAAVLogBase@@@Z 004944ee f   ChilkatDbgDll:TreeNode.obj
 0001:000937ea       ?customParse@TreeNode@@SA_NAAVParseEngine@@PAVLogBase@@PAVProgressMonitor@@PAPAV1@_N@Z 004947ea f   ChilkatDbgDll:TreeNode.obj
 0001:000954e2       ?setDocType@TreeNode@@QAEXPBD@Z 004964e2 f   ChilkatDbgDll:TreeNode.obj
 0001:00095554       ?setProcessing@TreeNode@@QAEXPBD@Z 00496554 f   ChilkatDbgDll:TreeNode.obj
 0001:000955c6       ?customParseData2@TreeNode@@SA_NAAVDataBuffer@@PAVProgressMonitor@@AAVLogBase@@PAPAV1@_N@Z 004965c6 f   ChilkatDbgDll:TreeNode.obj
 0001:0009563a       ?customParseUtf8Data@TreeNode@@SA_NAAVDataBuffer@@PAVProgressMonitor@@AAVLogBase@@PAPAV1@_N@Z 0049663a f   ChilkatDbgDll:TreeNode.obj
 0001:000956e1       ?customParseString@TreeNode@@SA_NABVStringBuffer@@PAVLogBase@@PAVProgressMonitor@@PAPAV1@_N@Z 004966e1 f   ChilkatDbgDll:TreeNode.obj
 0001:00095791       ?customParseStringN@TreeNode@@SA_NPBDHPAVProgressMonitor@@PAPAV1@_N@Z 00496791 f   ChilkatDbgDll:TreeNode.obj
 0001:0009583e       ?loadToUtf8@TreeNode@@KA_NPBDAAVDataBuffer@@AAVLogBase@@@Z 0049683e f   ChilkatDbgDll:TreeNode.obj
 0001:00095877       ?convertXmlToUtf8@TreeNode@@KA_NAAVDataBuffer@@AAVLogBase@@@Z 00496877 f   ChilkatDbgDll:TreeNode.obj
 0001:00095e2b       ?customParseFile@TreeNode@@SA_NPBDPAVLogBase@@PAVProgressMonitor@@PAPAV1@_N@Z 00496e2b f   ChilkatDbgDll:TreeNode.obj
 0001:0009603c       ?setDocStandalone@TreeNode@@QAEXPBD@Z 0049703c f   ChilkatDbgDll:TreeNode.obj
 0001:000960e2       ?checkSetDocEncoding@TreeNode@@QAEXPBD@Z 004970e2 f   ChilkatDbgDll:TreeNode.obj
 0001:00096195       ?getDocStandalone@TreeNode@@QAEXAAVStringBuffer@@AA_N@Z 00497195 f   ChilkatDbgDll:TreeNode.obj
 0001:000961ee       ?setDocEncoding@TreeNode@@QAEXPBD@Z 004971ee f   ChilkatDbgDll:TreeNode.obj
 0001:00096294       ?getDocEncoding@TreeNode@@QAEXAAVStringBuffer@@AA_N@Z 00497294 f   ChilkatDbgDll:TreeNode.obj
 0001:00096300       ?rebuildChildrenSiblingList@TreeNode@@IAEXXZ 00497300 f   ChilkatDbgDll:TreeNode.obj
 0001:000963fb       ?sortByTag@TreeNode@@QAEX_N0@Z 004973fb f   ChilkatDbgDll:TreeNode.obj
 0001:0009665d       ?sortByContent@TreeNode@@QAEX_N0@Z 0049765d f   ChilkatDbgDll:TreeNode.obj
 0001:000968bf       ?sortByAttribute@TreeNode@@QAEXPBD_N1@Z 004978bf f   ChilkatDbgDll:TreeNode.obj
 0001:00096e76       ?sortByAttributeInt@TreeNode@@QAEXPBD_N@Z 00497e76 f   ChilkatDbgDll:TreeNode.obj
 0001:0009725d       ?sortRecordsByContent@TreeNode@@QAEXPBD_N1@Z 0049825d f   ChilkatDbgDll:TreeNode.obj
 0001:000975ee       ?sortRecordsByContentInt@TreeNode@@QAEXPBD_N@Z 004985ee f   ChilkatDbgDll:TreeNode.obj
 0001:00097831       ?sortRecordsByAttribute@TreeNode@@QAEXPBD0_N1@Z 00498831 f   ChilkatDbgDll:TreeNode.obj
 0001:00097f19       ?nextMatchingRecord@TreeNode@@QAEPAV1@PBD0@Z 00498f19 f   ChilkatDbgDll:TreeNode.obj
 0001:00097fb0       ??_GTreeInfo@@UAEPAXI@Z    00498fb0 f i ChilkatDbgDll:TreeNode.obj
 0001:00097fb0       ??_ETreeInfo@@UAEPAXI@Z    00498fb0 f i ChilkatDbgDll:TreeNode.obj
 0001:00097ff0       ??_ETreeNode@@UAEPAXI@Z    00498ff0 f i ChilkatDbgDll:TreeNode.obj
 0001:00097ff0       ??_GTreeNode@@UAEPAXI@Z    00498ff0 f i ChilkatDbgDll:TreeNode.obj
 0001:00098030       ??1QueuedObject@@UAE@XZ    00499030 f   ChilkatDbgDll:QueuedObject.obj
 0001:0009805f       ?clearQueuedObject@QueuedObject@@QAEXXZ 0049905f f   ChilkatDbgDll:QueuedObject.obj
 0001:00098090       ?_createNewObject@ChilkatObject@@SAPAV1@XZ 00499090 f   ChilkatDbgDll:ChilkatObject.obj
 0001:0009814b       ??0ChilkatObject@@QAE@XZ   0049914b f   ChilkatDbgDll:ChilkatObject.obj
 0001:0009819b       ??1ChilkatObject@@UAE@XZ   0049919b f   ChilkatDbgDll:ChilkatObject.obj
 0001:000981b6       ?getObjectId64@ChilkatObject@@QBE_JXZ 004991b6 f   ChilkatDbgDll:ChilkatObject.obj
 0001:000981d1       ??0ChilkatInt@@QAE@H@Z     004991d1 f   ChilkatDbgDll:ChilkatObject.obj
 0001:0009820c       ??0ChilkatInt@@QAE@XZ      0049920c f   ChilkatDbgDll:ChilkatObject.obj
 0001:00098246       ??1ChilkatInt@@UAE@XZ      00499246 f   ChilkatDbgDll:ChilkatObject.obj
 0001:00098273       ?createNewObject@ChilkatInt@@SAPAV1@XZ 00499273 f   ChilkatDbgDll:ChilkatObject.obj
 0001:0009832e       ?createNewObject2@ChilkatInt@@SAPAV1@H@Z 0049932e f   ChilkatDbgDll:ChilkatObject.obj
 0001:000983ed       ??0ObjectOwner@@QAE@XZ     004993ed f   ChilkatDbgDll:ChilkatObject.obj
 0001:00098415       ??1ObjectOwner@@UAE@XZ     00499415 f   ChilkatDbgDll:ChilkatObject.obj
 0001:00098491       ??0ObjectOwner@@AAE@ABV0@@Z 00499491 f   ChilkatDbgDll:ChilkatObject.obj
 0001:000984b1       ??4ObjectOwner@@AAEAAV0@ABV0@@Z 004994b1 f   ChilkatDbgDll:ChilkatObject.obj
 0001:000984c8       ??0ByteArrayOwner@@AAE@ABV0@@Z 004994c8 f   ChilkatDbgDll:ChilkatObject.obj
 0001:000984e8       ??4ByteArrayOwner@@AAEAAV0@ABV0@@Z 004994e8 f   ChilkatDbgDll:ChilkatObject.obj
 0001:000984ff       ??0ByteArrayOwner@@QAE@XZ  004994ff f   ChilkatDbgDll:ChilkatObject.obj
 0001:00098527       ??1ByteArrayOwner@@UAE@XZ  00499527 f   ChilkatDbgDll:ChilkatObject.obj
 0001:0009857d       ??0Utf8StringOwner@@AAE@ABV0@@Z 0049957d f   ChilkatDbgDll:ChilkatObject.obj
 0001:0009859d       ??4Utf8StringOwner@@AAEAAV0@ABV0@@Z 0049959d f   ChilkatDbgDll:ChilkatObject.obj
 0001:000985b4       ??0Utf8StringOwner@@QAE@XZ 004995b4 f   ChilkatDbgDll:ChilkatObject.obj
 0001:000985dc       ?takeUtf8String@Utf8StringOwner@@QAEXAAVStringBuffer@@@Z 004995dc f   ChilkatDbgDll:ChilkatObject.obj
 0001:00098648       ?copyUtf8String@Utf8StringOwner@@QAEXABVStringBuffer@@@Z 00499648 f   ChilkatDbgDll:ChilkatObject.obj
 0001:000986b4       ?clear@Utf8StringOwner@@QAEXXZ 004996b4 f   ChilkatDbgDll:ChilkatObject.obj
 0001:00098701       ??1Utf8StringOwner@@UAE@XZ 00499701 f   ChilkatDbgDll:ChilkatObject.obj
 0001:00098760       ??_EChilkatObject@@UAEPAXI@Z 00499760 f i ChilkatDbgDll:ChilkatObject.obj
 0001:00098760       ??_GChilkatObject@@UAEPAXI@Z 00499760 f i ChilkatDbgDll:ChilkatObject.obj
 0001:000987a0       ??_GChilkatInt@@UAEPAXI@Z  004997a0 f i ChilkatDbgDll:ChilkatObject.obj
 0001:000987a0       ??_EChilkatInt@@UAEPAXI@Z  004997a0 f i ChilkatDbgDll:ChilkatObject.obj
 0001:000987e0       ??_EObjectOwner@@UAEPAXI@Z 004997e0 f i ChilkatDbgDll:ChilkatObject.obj
 0001:000987e0       ??_GObjectOwner@@UAEPAXI@Z 004997e0 f i ChilkatDbgDll:ChilkatObject.obj
 0001:00098820       ??_GByteArrayOwner@@UAEPAXI@Z 00499820 f i ChilkatDbgDll:ChilkatObject.obj
 0001:00098820       ??_EByteArrayOwner@@UAEPAXI@Z 00499820 f i ChilkatDbgDll:ChilkatObject.obj
 0001:00098860       ??_EUtf8StringOwner@@UAEPAXI@Z 00499860 f i ChilkatDbgDll:ChilkatObject.obj
 0001:00098860       ??_GUtf8StringOwner@@UAEPAXI@Z 00499860 f i ChilkatDbgDll:ChilkatObject.obj
 0001:000988a0       ??0LogBase@@QAE@XZ         004998a0 f   ChilkatDbgDll:LogBase.obj
 0001:000988f9       ??1LogBase@@UAE@XZ         004998f9 f   ChilkatDbgDll:LogBase.obj
 0001:00098914       ?LogDataHex@LogBase@@QAEXPBDPBEI@Z 00499914 f   ChilkatDbgDll:LogBase.obj
 0001:00098a04       ?LogDataBase64@LogBase@@QAEXPBDPBEI@Z 00499a04 f   ChilkatDbgDll:LogBase.obj
 0001:00098af3       ?LogDataQP@LogBase@@QAEXPBD0@Z 00499af3 f   ChilkatDbgDll:LogBase.obj
 0001:00098c04       ?LogDataQP_sb@LogBase@@QAEXPBDAAVStringBuffer@@@Z 00499c04 f   ChilkatDbgDll:LogBase.obj
 0001:00098ced       ?LogDataQP2@LogBase@@QAEXPBDPBEI@Z 00499ced f   ChilkatDbgDll:LogBase.obj
 0001:00098df6       ?LogTimestamp@LogBase@@QAEXH@Z 00499df6 f   ChilkatDbgDll:LogBase.obj
 0001:00098ee0       ?LogElapsedMs@LogBase@@QAEXPBDI@Z 00499ee0 f   ChilkatDbgDll:LogBase.obj
 0001:00098f6b       ?MemoryAllocFailed@LogBase@@QAEXHI@Z 00499f6b f   ChilkatDbgDll:LogBase.obj
 0001:00098fc6       ?LogBinary@LogBase@@QAEXPBDPBEH@Z 00499fc6 f   ChilkatDbgDll:LogBase.obj
 0001:000990ad       ?getXml@LogBase@@UAEXAAVStringBuffer@@@Z 0049a0ad f   ChilkatDbgDll:LogBase.obj
 0001:000990c1       ?getHtml@LogBase@@UAEXAAVStringBuffer@@@Z 0049a0c1 f   ChilkatDbgDll:LogBase.obj
 0001:000990d5       ?getText@LogBase@@UAEXAAVStringBuffer@@@Z 0049a0d5 f   ChilkatDbgDll:LogBase.obj
 0001:000990e9       ?LogErrorObfus@LogBase@@QAE_NPBD@Z 0049a0e9 f   ChilkatDbgDll:LogBase.obj
 0001:000991b2       ?LogError@LogBase@@UAE_NPBD@Z 0049a1b2 f   ChilkatDbgDll:LogBase.obj
 0001:000991c8       ?LogInfo@LogBase@@UAE_NPBD@Z 0049a1c8 f   ChilkatDbgDll:LogBase.obj
 0001:000991de       ?LogXml@LogBase@@UAE_NPBD@Z 0049a1de f   ChilkatDbgDll:LogBase.obj
 0001:000991f4       ?ClearLog@LogBase@@UAE_NXZ 0049a1f4 f   ChilkatDbgDll:LogBase.obj
 0001:00099208       ?EnterContext@LogBase@@UAE_NPBD_N@Z 0049a208 f   ChilkatDbgDll:LogBase.obj
 0001:0009921e       ?LeaveContext@LogBase@@UAE_NXZ 0049a21e f   ChilkatDbgDll:LogBase.obj
 0001:00099232       ?LogDataAnsi@LogBase@@QAEXPBD0@Z 0049a232 f   ChilkatDbgDll:LogBase.obj
 0001:000992e8       ?LogDataX@LogBase@@QAE_NPBDAAVXString@@@Z 0049a2e8 f   ChilkatDbgDll:LogBase.obj
 0001:00099329       ?LogDataSb@LogBase@@QAE_NPBDABVStringBuffer@@@Z 0049a329 f   ChilkatDbgDll:LogBase.obj
 0001:0009936a       ?LogDataSbN@LogBase@@QAE_NPBDABVStringBuffer@@I@Z 0049a36a f   ChilkatDbgDll:LogBase.obj
 0001:00099457       ?LogDataSb_copyTrim@LogBase@@QAE_NPBDAAVStringBuffer@@@Z 0049a457 f   ChilkatDbgDll:LogBase.obj
 0001:00099524       ?LogBracketed@LogBase@@QAEXPBD0@Z 0049a524 f   ChilkatDbgDll:LogBase.obj
 0001:000995f4       ?LogStringMax@LogBase@@QAE_NPBDAAVXString@@H@Z 0049a5f4 f   ChilkatDbgDll:LogBase.obj
 0001:00099709       ?LogData@LogBase@@UAE_NPBD0@Z 0049a709 f   ChilkatDbgDll:LogBase.obj
 0001:0009971f       ?LogDataTrimmed@LogBase@@QAE_NPBD0@Z 0049a71f f   ChilkatDbgDll:LogBase.obj
 0001:000997e0       ?LogDataLong@LogBase@@QAE_NPBDJ@Z 0049a7e0 f   ChilkatDbgDll:LogBase.obj
 0001:0009983a       ?LogDataUint32@LogBase@@QAE_NPBDI@Z 0049a83a f   ChilkatDbgDll:LogBase.obj
 0001:00099894       ?LogDataInt64@LogBase@@QAE_NPBD_J@Z 0049a894 f   ChilkatDbgDll:LogBase.obj
 0001:000998f2       ?LogHeapMemoryUsage@LogBase@@QAE_NPBD_N@Z 0049a8f2 f   ChilkatDbgDll:LogBase.obj
 0001:00099941       ?LogHex@LogBase@@QAE_NPBDI@Z 0049a941 f   ChilkatDbgDll:LogBase.obj
 0001:000999b1       ?LogSystemTime@LogBase@@QAEXPBDAAVChilkatSysTime@@@Z 0049a9b1 f   ChilkatDbgDll:LogBase.obj
 0001:00099a89       ?LogSystemTimeAsLocal@LogBase@@QAEXPBDAAVChilkatSysTime@@@Z 0049aa89 f   ChilkatDbgDll:LogBase.obj
 0001:00099b89       ?LogSystemTimeAsGmt@LogBase@@QAEXPBDAAVChilkatSysTime@@@Z 0049ab89 f   ChilkatDbgDll:LogBase.obj
 0001:00099c89       ?LogFileTime@LogBase@@QAEXPBDAAVChilkatFileTime@@@Z 0049ac89 f   ChilkatDbgDll:LogBase.obj
 0001:00099d7e       ?LogLastErrorOS@LogBase@@QAEXXZ 0049ad7e f   ChilkatDbgDll:LogBase.obj
 0001:00099e62       ?LogWindowsError@LogBase@@QAEXI@Z 0049ae62 f   ChilkatDbgDll:LogBase.obj
 0001:00099f21       ?LogTickCount@LogBase@@QAEXPBD@Z 0049af21 f   ChilkatDbgDll:LogBase.obj
 0001:00099f92       ?SaveXML@LogBase@@UAE_N_NPBD@Z 0049af92 f   ChilkatDbgDll:LogBase.obj
 0001:00099fa8       ??0LogContextExitor@@QAE@AAVLogBase@@PBD@Z 0049afa8 f   ChilkatDbgDll:LogBase.obj
 0001:0009a006       ??0LogContextExitor@@QAE@AAVLogBase@@PBD_N@Z 0049b006 f   ChilkatDbgDll:LogBase.obj
 0001:0009a073       ??0LogContextExitor@@QAE@XZ 0049b073 f   ChilkatDbgDll:LogBase.obj
 0001:0009a09b       ??1LogContextExitor@@UAE@XZ 0049b09b f   ChilkatDbgDll:LogBase.obj
 0001:0009a0f0       ??_GLogContextExitor@@UAEPAXI@Z 0049b0f0 f i ChilkatDbgDll:LogBase.obj
 0001:0009a0f0       ??_ELogContextExitor@@UAEPAXI@Z 0049b0f0 f i ChilkatDbgDll:LogBase.obj
 0001:0009a130       ??0UrlEncode@@QAE@XZ       0049b130 f   ChilkatDbgDll:UrlEncode.obj
 0001:0009a14e       ??1UrlEncode@@UAE@XZ       0049b14e f   ChilkatDbgDll:UrlEncode.obj
 0001:0009a169       ?urlEncode@UrlEncode@@SAXABVDataBuffer@@AAVStringBuffer@@@Z 0049b169 f   ChilkatDbgDll:UrlEncode.obj
 0001:0009a193       ?urlEncode3@UrlEncode@@SAXPBEIAAVStringBuffer@@@Z 0049b193 f   ChilkatDbgDll:UrlEncode.obj
 0001:0009a3b4       ?urlDecode@UrlEncode@@SAXABVStringBuffer@@AAVDataBuffer@@@Z 0049b3b4 f   ChilkatDbgDll:UrlEncode.obj
 0001:0009a56a       ?urlDecodeSb@UrlEncode@@SAXAAVStringBuffer@@@Z 0049b56a f   ChilkatDbgDll:UrlEncode.obj
 0001:0009a5f2       ?urlEncodeSb@UrlEncode@@SAXAAVStringBuffer@@@Z 0049b5f2 f   ChilkatDbgDll:UrlEncode.obj
 0001:0009a670       ?urlEncodeRfc3986@UrlEncode@@SAXPBEIAAVStringBuffer@@@Z 0049b670 f   ChilkatDbgDll:UrlEncode.obj
 0001:0009a879       ?urlEncodeRfc1738@UrlEncode@@SAXPBEIAAVStringBuffer@@@Z 0049b879 f   ChilkatDbgDll:UrlEncode.obj
 0001:0009aadc       ?urlEncodeRfc2396@UrlEncode@@SAXPBEIAAVStringBuffer@@@Z 0049badc f   ChilkatDbgDll:UrlEncode.obj
 0001:0009ad20       ??_EUrlEncode@@UAEPAXI@Z   0049bd20 f i ChilkatDbgDll:UrlEncode.obj
 0001:0009ad20       ??_GUrlEncode@@UAEPAXI@Z   0049bd20 f i ChilkatDbgDll:UrlEncode.obj
 0001:0009ad60       ?appendBase64@ContentCoding@@QAEXAAVStringBuffer@@PBD@Z 0049bd60 f   ChilkatDbgDll:ContentCoding.obj
 0001:0009ade2       ??0ContentCoding@@QAE@XZ   0049bde2 f   ChilkatDbgDll:ContentCoding.obj
 0001:0009ae11       ??1ContentCoding@@UAE@XZ   0049be11 f   ChilkatDbgDll:ContentCoding.obj
 0001:0009ae2c       ?computeBase64Size@ContentCoding@@CAIII@Z 0049be2c f   ChilkatDbgDll:ContentCoding.obj
 0001:0009ae78       ?computeBase32Size@ContentCoding@@CAII@Z 0049be78 f   ChilkatDbgDll:ContentCoding.obj
 0001:0009ae8f       ?isBase64@ContentCoding@@QAE_NPBDIAAVLogBase@@@Z 0049be8f f   ChilkatDbgDll:ContentCoding.obj
 0001:0009af69       ?isBase64_utf16LE@ContentCoding@@QAE_NPBDI@Z 0049bf69 f   ChilkatDbgDll:ContentCoding.obj
 0001:0009b062       ?encodeBase64@ContentCoding@@QBEXPBXIAAVStringBuffer@@@Z 0049c062 f   ChilkatDbgDll:ContentCoding.obj
 0001:0009b4e2       ?encodeBase64ToOutput@ContentCoding@@QBE_NPBXIAAVOutput@@PAVProgressMonitor@@AAVLogBase@@@Z 0049c4e2 f   ChilkatDbgDll:ContentCoding.obj
 0001:0009bad2       ?decodeBase32@ContentCoding@@SAXPBEIAAVDataBuffer@@@Z 0049cad2 f   ChilkatDbgDll:ContentCoding.obj
 0001:0009be05       ?encodeBase32_noCrLf@ContentCoding@@SAXPBEIAAVStringBuffer@@@Z 0049ce05 f   ChilkatDbgDll:ContentCoding.obj
 0001:0009c12d       ?encodeBase64_noCrLf@ContentCoding@@SAXPBXIAAVStringBuffer@@@Z 0049d12d f   ChilkatDbgDll:ContentCoding.obj
 0001:0009c152       ?encodeModBase64_noCrLf@ContentCoding@@SAXPBXIAAVStringBuffer@@@Z 0049d152 f   ChilkatDbgDll:ContentCoding.obj
 0001:0009c177       ?encodeBase64_noCrLf_inner@ContentCoding@@CAXPBXIPBDAAVStringBuffer@@@Z 0049d177 f   ChilkatDbgDll:ContentCoding.obj
 0001:0009c52c       ?encodeBase64@ContentCoding@@QBEPADPBXIPAI@Z 0049d52c f   ChilkatDbgDll:ContentCoding.obj
 0001:0009c901       ?encodeBase64_noCrLf@ContentCoding@@SAPADPBXIPAI@Z 0049d901 f   ChilkatDbgDll:ContentCoding.obj
 0001:0009c926       ?encodeModBase64_noCrLf@ContentCoding@@SAPADPBXIPAI@Z 0049d926 f   ChilkatDbgDll:ContentCoding.obj
 0001:0009c94b       ?encodeBase64_noCrLf_inner@ContentCoding@@CAPADPBXIPBDPAI@Z 0049d94b f   ChilkatDbgDll:ContentCoding.obj
 0001:0009cc56       ?decodeModBase64ToDb@ContentCoding@@QBE_NPBDIAAVDataBuffer@@@Z 0049dc56 f   ChilkatDbgDll:ContentCoding.obj
 0001:0009ccdd       ?decodeBase64ToDb@ContentCoding@@QBE_NPBDIAAVDataBuffer@@@Z 0049dcdd f   ChilkatDbgDll:ContentCoding.obj
 0001:0009cd64       ?decodeModBase64_2@ContentCoding@@QBEPADPBDIPAIAA_N@Z 0049dd64 f   ChilkatDbgDll:ContentCoding.obj
 0001:0009cd9f       ?decodeBase64_2@ContentCoding@@QBEPADPBDIPAIAA_N@Z 0049dd9f f   ChilkatDbgDll:ContentCoding.obj
 0001:0009cdda       ?decodeBase64_2a@ContentCoding@@ABEPADPBDIPBEPAIAA_N@Z 0049ddda f   ChilkatDbgDll:ContentCoding.obj
 0001:0009d024       ?decodeModBase64@ContentCoding@@SAPADPBDIPAI@Z 0049e024 f   ChilkatDbgDll:ContentCoding.obj
 0001:0009d049       ?decodeBase64@ContentCoding@@SAPADPBDIPAI@Z 0049e049 f   ChilkatDbgDll:ContentCoding.obj
 0001:0009d06e       ?decodeBase64a@ContentCoding@@CAPADPBDIPBEPAI@Z 0049e06e f   ChilkatDbgDll:ContentCoding.obj
 0001:0009d29d       ?validateBase64@ContentCoding@@QBE_NPBDI@Z 0049e29d f   ChilkatDbgDll:ContentCoding.obj
 0001:0009d343       ?encodeQuotedPrintable@ContentCoding@@QBEPADPBXIPAI@Z 0049e343 f   ChilkatDbgDll:ContentCoding.obj
 0001:0009deb7       ?decodeQuotedPrintable@ContentCoding@@QBE_NPBDIAAVDataBuffer@@@Z 0049eeb7 f   ChilkatDbgDll:ContentCoding.obj
 0001:0009e680       ?decodeDkimQuotedPrintable@ContentCoding@@SAXPBDIAAVDataBuffer@@@Z 0049f680 f   ChilkatDbgDll:ContentCoding.obj
 0001:0009e9b7       ?Q_Encode@ContentCoding@@QBEPADPBXIPAI@Z 0049f9b7 f   ChilkatDbgDll:ContentCoding.obj
 0001:0009ecdf       ?Q_EncodeCommaToo@ContentCoding@@QBEPADPBXIPAI@Z 0049fcdf f   ChilkatDbgDll:ContentCoding.obj
 0001:0009f0f7       ?B_Encode@ContentCoding@@QBEPADPBXIPAI@Z 004a00f7 f   ChilkatDbgDll:ContentCoding.obj
 0001:0009f40c       ?Q_Decode@ContentCoding@@CAPADPBDIPAI@Z 004a040c f   ChilkatDbgDll:ContentCoding.obj
 0001:0009f68d       ?Q_Decode2@ContentCoding@@CAXAAVStringBuffer@@AAVDataBuffer@@@Z 004a068d f   ChilkatDbgDll:ContentCoding.obj
 0001:0009fa23       ?Q_DecodeToUtf8_2@ContentCoding@@CAXAAVStringBuffer@@AAVLogBase@@@Z 004a0a23 f   ChilkatDbgDll:ContentCoding.obj
 0001:0009feaf       ?B_Decode2@ContentCoding@@CAXAAVStringBuffer@@AAVDataBuffer@@@Z 004a0eaf f   ChilkatDbgDll:ContentCoding.obj
 0001:000a0245       ?B_DecodeToUtf8_2@ContentCoding@@CAXAAVStringBuffer@@AAVLogBase@@@Z 004a1245 f   ChilkatDbgDll:ContentCoding.obj
 0001:000a06e3       ?encodeDkimQuotedPrintable@ContentCoding@@QBEXPBXIAAVStringBuffer@@@Z 004a16e3 f   ChilkatDbgDll:ContentCoding.obj
 0001:000a0a48       ?encodeQuotedPrintable@ContentCoding@@QBEXPBXIAAVStringBuffer@@@Z 004a1a48 f   ChilkatDbgDll:ContentCoding.obj
 0001:000a14e7       ?encodeQpToOutput@ContentCoding@@QBE_NPBXIAAVOutput@@PAVProgressMonitor@@AAVLogBase@@@Z 004a24e7 f   ChilkatDbgDll:ContentCoding.obj
 0001:000a2177       ?bEncodeData2@ContentCoding@@QBEXPBXIPBDAAVStringBuffer@@@Z 004a3177 f   ChilkatDbgDll:ContentCoding.obj
 0001:000a2228       ?qEncodeForMimeField@ContentCoding@@QBEXPBXIHPBDAAVStringBuffer@@@Z 004a3228 f   ChilkatDbgDll:ContentCoding.obj
 0001:000a25b4       ?setLineLength@ContentCoding@@QAEXI@Z 004a35b4 f   ChilkatDbgDll:ContentCoding.obj
 0001:000a25ef       ?bEncodeForMimeField@ContentCoding@@QBEXPBXIHPBDAAVStringBuffer@@@Z 004a35ef f   ChilkatDbgDll:ContentCoding.obj
 0001:000a2b3b       ?qEncodeData2@ContentCoding@@QBEXPBXIPBDAAVStringBuffer@@@Z 004a3b3b f   ChilkatDbgDll:ContentCoding.obj
 0001:000a2c7c       ?qbEncodeData@ContentCoding@@QBEXPBXIPBDAAVStringBuffer@@@Z 004a3c7c f   ChilkatDbgDll:ContentCoding.obj
 0001:000a310c       ?QB_DecodeToUtf8@ContentCoding@@QBEXAAVStringBuffer@@AAVLogBase@@@Z 004a410c f   ChilkatDbgDll:ContentCoding.obj
 0001:000a3727       ?QB_Decode@ContentCoding@@QBEXAAVStringBuffer@@AAVDataBuffer@@@Z 004a4727 f   ChilkatDbgDll:ContentCoding.obj
 0001:000a39dc       ?QB_DecodeToUtf8_ToCC@ContentCoding@@QBEXAAVStringBuffer@@AAVLogBase@@AA_N@Z 004a49dc f   ChilkatDbgDll:ContentCoding.obj
 0001:000a41d0       ?decodeStarEncoded@ContentCoding@@SAXAAVStringBuffer@@PBD00@Z 004a51d0 f   ChilkatDbgDll:ContentCoding.obj
 0001:000a44a0       ??_EContentCoding@@UAEPAXI@Z 004a54a0 f i ChilkatDbgDll:ContentCoding.obj
 0001:000a44a0       ??_GContentCoding@@UAEPAXI@Z 004a54a0 f i ChilkatDbgDll:ContentCoding.obj
 0001:000a44e0       ??0HtmlHelp@@QAE@XZ        004a54e0 f   ChilkatDbgDll:HtmlHelp.obj
 0001:000a44fe       ??1HtmlHelp@@UAE@XZ        004a54fe f   ChilkatDbgDll:HtmlHelp.obj
 0001:000a4519       ?convertHtml@HtmlHelp@@SA_NAAVDataBuffer@@PBD1AAVStringBuffer@@AAVLogBase@@@Z 004a5519 f   ChilkatDbgDll:HtmlHelp.obj
 0001:000a4b1f       ?removeCharsetMetaTag@HtmlHelp@@SAXAAVStringBuffer@@AAVLogBase@@@Z 004a5b1f f   ChilkatDbgDll:HtmlHelp.obj
 0001:000a4df8       ?removeBaseTag@HtmlHelp@@SAXAAVStringBuffer@@@Z 004a5df8 f   ChilkatDbgDll:HtmlHelp.obj
 0001:000a4f64       ?ensureStructure@HtmlHelp@@SAXAAVStringBuffer@@@Z 004a5f64 f   ChilkatDbgDll:HtmlHelp.obj
 0001:000a50c8       ?GetTitleX@HtmlHelp@@SAXAAVXString@@0@Z 004a60c8 f   ChilkatDbgDll:HtmlHelp.obj
 0001:000a5269       ?StripHtml@HtmlHelp@@SAXAAVStringBuffer@@@Z 004a6269 f   ChilkatDbgDll:HtmlHelp.obj
 0001:000a54d4       ?GetDescriptionX@HtmlHelp@@SAXAAVXString@@0@Z 004a64d4 f   ChilkatDbgDll:HtmlHelp.obj
 0001:000a5581       ?GetKeywordsX@HtmlHelp@@SAXAAVXString@@0@Z 004a6581 f   ChilkatDbgDll:HtmlHelp.obj
 0001:000a562e       ?GetDescription@HtmlHelp@@SAXABVStringBuffer@@AAV2@@Z 004a662e f   ChilkatDbgDll:HtmlHelp.obj
 0001:000a5654       ?GetKeywords@HtmlHelp@@SAXABVStringBuffer@@AAV2@@Z 004a6654 f   ChilkatDbgDll:HtmlHelp.obj
 0001:000a567a       ?DecodeEntities@HtmlHelp@@SAXABVStringBuffer@@AAVDataBuffer@@HAAVLogBase@@@Z 004a667a f   ChilkatDbgDll:HtmlHelp.obj
 0001:000a5d12       ?addCharsetMetaTag@HtmlHelp@@SA_NAAVStringBuffer@@PBDAAVLogBase@@@Z 004a6d12 f   ChilkatDbgDll:HtmlHelp.obj
 0001:000a5e8f       ?getBase@HtmlHelp@@SA_NAAVStringBuffer@@0@Z 004a6e8f f   ChilkatDbgDll:HtmlHelp.obj
 0001:000a5fbc       ?getCharset@HtmlHelp@@SAXABVStringBuffer@@AAV2@PAVLogBase@@@Z 004a6fbc f   ChilkatDbgDll:HtmlHelp.obj
 0001:000a5fe1       ?getCharset2@HtmlHelp@@SAXPBDAAVStringBuffer@@PAVLogBase@@@Z 004a6fe1 f   ChilkatDbgDll:HtmlHelp.obj
 0001:000a650a       ?getMeta@HtmlHelp@@SAXABVStringBuffer@@PBDAAV2@@Z 004a750a f   ChilkatDbgDll:HtmlHelp.obj
 0001:000a652f       ?getMeta2@HtmlHelp@@SAXPBD0AAVStringBuffer@@@Z 004a752f f   ChilkatDbgDll:HtmlHelp.obj
 0001:000a683a       ?CheckFixIsoToUtf8@HtmlHelp@@SAXAAVStringBuffer@@AAVLogBase@@@Z 004a783a f   ChilkatDbgDll:HtmlHelp.obj
 0001:000a69b8       ?getTitle@HtmlHelp@@SAXABVStringBuffer@@AAV2@@Z 004a79b8 f   ChilkatDbgDll:HtmlHelp.obj
 0001:000a6b0a       ?GetMetaRefreshUrl@HtmlHelp@@SA_NAAVXString@@0@Z 004a7b0a f   ChilkatDbgDll:HtmlHelp.obj
 0001:000a6c1f       ?getRefresh@HtmlHelp@@SA_NAAVDataBuffer@@AAVStringBuffer@@@Z 004a7c1f f   ChilkatDbgDll:HtmlHelp.obj
 0001:000a6fd3       ?getAttributeValue2@HtmlHelp@@SAXPBD0AAVStringBuffer@@@Z 004a7fd3 f   ChilkatDbgDll:HtmlHelp.obj
 0001:000a718a       ?getAttributeValue@HtmlHelp@@SAXPBD0AAVStringBuffer@@@Z 004a818a f   ChilkatDbgDll:HtmlHelp.obj
 0001:000a733a       ?cleanHtmlTag@HtmlHelp@@SAXPBDAAVStringBuffer@@PAVLogBase@@@Z 004a833a f   ChilkatDbgDll:HtmlHelp.obj
 0001:000a73f6       ?cleanHtmlTag2@HtmlHelp@@SAXAAVParseEngine@@AAVStringBuffer@@PAVLogBase@@@Z 004a83f6 f   ChilkatDbgDll:HtmlHelp.obj
 0001:000a7ae0       ??_EHtmlHelp@@UAEPAXI@Z    004a8ae0 f i ChilkatDbgDll:HtmlHelp.obj
 0001:000a7ae0       ??_GHtmlHelp@@UAEPAXI@Z    004a8ae0 f i ChilkatDbgDll:HtmlHelp.obj
 0001:000a7b20       ?protocolStrToInt@@YAHPBD@Z 004a8b20 f   ChilkatDbgDll:globalFunctions.obj
 0001:000a7d1a       ?protocolIntToStr@@YAXHAAVStringBuffer@@@Z 004a8d1a f   ChilkatDbgDll:globalFunctions.obj
 0001:000a7db1       ?ck_toupper@@YADD@Z        004a8db1 f   ChilkatDbgDll:globalFunctions.obj
 0001:000a7de8       ?ckStrEqualsIgnoreCase@@YA_NPBD0@Z 004a8de8 f   ChilkatDbgDll:globalFunctions.obj
 0001:000a7ed2       ?ckStrEqualsIgnoreCaseN@@YA_NPBD0H@Z 004a8ed2 f   ChilkatDbgDll:globalFunctions.obj
 0001:000a7fe8       ?ckMatchesAny@@YA_NAAVStringBuffer@@AAVExtPtrArray@@_N@Z 004a8fe8 f   ChilkatDbgDll:globalFunctions.obj
 0001:000a808b       ?ckIsBigEndian@@YA_NXZ     004a908b f   ChilkatDbgDll:globalFunctions.obj
 0001:000a80bb       ?ckIsLittleEndian@@YA_NXZ  004a90bb f   ChilkatDbgDll:globalFunctions.obj
 0001:000a80ee       ?ckWriteLittleEndian64@@YAX_N_JPAX@Z 004a90ee f   ChilkatDbgDll:globalFunctions.obj
 0001:000a81e8       ?ckWriteLittleEndian32@@YAX_NIPAX@Z 004a91e8 f   ChilkatDbgDll:globalFunctions.obj
 0001:000a827f       ?ckWriteLittleEndian16@@YAX_NGPAX@Z 004a927f f   ChilkatDbgDll:globalFunctions.obj
 0001:000a82e6       ?ckGetUnaligned32@@YAI_NPBX@Z 004a92e6 f   ChilkatDbgDll:globalFunctions.obj
 0001:000a8389       ?ckGetUnaligned64@@YA_J_NPBX@Z 004a9389 f   ChilkatDbgDll:globalFunctions.obj
 0001:000a8490       ?ckGetUnaligned16@@YAG_NPBX@Z 004a9490 f   ChilkatDbgDll:globalFunctions.obj
 0001:000a8505       ?stristr@@YAPBDPBD0@Z      004a9505 f   ChilkatDbgDll:globalFunctions.obj
 0001:000a8698       ?ck_binstrstr@@YAPBDPBDI0@Z 004a9698 f   ChilkatDbgDll:globalFunctions.obj
 0001:000a876d       ?wildcardMatch@@YA_NPBD0_N@Z 004a976d f   ChilkatDbgDll:globalFunctions.obj
 0001:000a8af4       ?ckStrCmp@@YAHPBD0@Z       004a9af4 f   ChilkatDbgDll:globalFunctions.obj
 0001:000a8b2a       ?ckStrCompareNoCase@@YAHPBD0@Z 004a9b2a f   ChilkatDbgDll:globalFunctions.obj
 0001:000a8c19       ?ckStrNCompareNoCase@@YAHPBD0H@Z 004a9c19 f   ChilkatDbgDll:globalFunctions.obj
 0001:000a8d34       ?ckStrICmp@@YAHPBD0@Z      004a9d34 f   ChilkatDbgDll:globalFunctions.obj
 0001:000a8d76       ?ckParseDecimalUInt32@@YAPBDPBD0AAI@Z 004a9d76 f   ChilkatDbgDll:globalFunctions.obj
 0001:000a8e33       ?ckParseDecimalInt64@@YAPBDPBD0AA_J@Z 004a9e33 f   ChilkatDbgDll:globalFunctions.obj
 0001:000a8fa1       ?ckStrNCmp@@YAHPBD0H@Z     004a9fa1 f   ChilkatDbgDll:globalFunctions.obj
 0001:000a8fe7       ?ckStrNICmp@@YAHPBD0H@Z    004a9fe7 f   ChilkatDbgDll:globalFunctions.obj
 0001:000a902d       ?ckStrChr@@YAPADPBDH@Z     004aa02d f   ChilkatDbgDll:globalFunctions.obj
 0001:000a905f       ?ckStrChr2@@YAPADPBDHH@Z   004aa05f f   ChilkatDbgDll:globalFunctions.obj
 0001:000a90c6       ?ckStrStr@@YAPADPBD0@Z     004aa0c6 f   ChilkatDbgDll:globalFunctions.obj
 0001:000a9108       ?ckStrLen@@YAIPBD@Z        004aa108 f   ChilkatDbgDll:globalFunctions.obj
 0001:000a9120       ?ckNewUnsignedChar@@YAPAEI@Z 004aa120 f   ChilkatDbgDll:globalFunctions.obj
 0001:000a91b7       ?ckNewChar@@YAPADI@Z       004aa1b7 f   ChilkatDbgDll:globalFunctions.obj
 0001:000a9250       ??0CaseMapping@@QAE@XZ     004aa250 f   ChilkatDbgDll:CaseMapping.obj
 0001:000a926e       ??1CaseMapping@@UAE@XZ     004aa26e f   ChilkatDbgDll:CaseMapping.obj
 0001:000a9289       ?upperToLower@CaseMapping@@SAGG@Z 004aa289 f   ChilkatDbgDll:CaseMapping.obj
 0001:000a93a6       ?lowerToUpper@CaseMapping@@SAGG@Z 004aa3a6 f   ChilkatDbgDll:CaseMapping.obj
 0001:000a94d0       ??_GCaseMapping@@UAEPAXI@Z 004aa4d0 f i ChilkatDbgDll:CaseMapping.obj
 0001:000a94d0       ??_ECaseMapping@@UAEPAXI@Z 004aa4d0 f i ChilkatDbgDll:CaseMapping.obj
 0001:000a9510       ??0EncodingUtf8@@QAE@XZ    004aa510 f   ChilkatDbgDll:EncodingUtf8.obj
 0001:000a952e       ??1EncodingUtf8@@UAE@XZ    004aa52e f   ChilkatDbgDll:EncodingUtf8.obj
 0001:000a9549       ?utf8_to_utf16@EncodingUtf8@@SAHPBEHAAG@Z 004aa549 f   ChilkatDbgDll:EncodingUtf8.obj
 0001:000a9b10       ??_EEncodingUtf8@@UAEPAXI@Z 004aab10 f i ChilkatDbgDll:EncodingUtf8.obj
 0001:000a9b10       ??_GEncodingUtf8@@UAEPAXI@Z 004aab10 f i ChilkatDbgDll:EncodingUtf8.obj
 0001:000a9b50       ?StringToInt64@ck64@@SA_JPBD@Z 004aab50 f   ChilkatDbgDll:ck64.obj
 0001:000a9b74       ?StringToDwords@ck64@@SAXPBDAAI1@Z 004aab74 f   ChilkatDbgDll:ck64.obj
 0001:000a9bcc       ?HexStrToInt64@ck64@@SA_JPBD@Z 004aabcc f   ChilkatDbgDll:ck64.obj
 0001:000a9dda       ?DwordsToInt64@ck64@@SA_JII@Z 004aadda f   ChilkatDbgDll:ck64.obj
 0001:000a9e37       ?LowWord@ck64@@SAI_J@Z     004aae37 f   ChilkatDbgDll:ck64.obj
 0001:000a9e61       ?HighWord@ck64@@SAI_J@Z    004aae61 f   ChilkatDbgDll:ck64.obj
 0001:000a9e9f       ?Int64ToDwords@ck64@@SAX_JAAI1@Z 004aae9f f   ChilkatDbgDll:ck64.obj
 0001:000a9efc       ?TooBigForUnsigned32@ck64@@SA_N_J@Z 004aaefc f   ChilkatDbgDll:ck64.obj
 0001:000a9f47       ?TooBigForSigned32@ck64@@SA_N_J@Z 004aaf47 f   ChilkatDbgDll:ck64.obj
 0001:000a9fcc       ?Int64ToString@ck64@@SAX_JAAVStringBuffer@@@Z 004aafcc f   ChilkatDbgDll:ck64.obj
 0001:000aa010       ??0ck64@@QAE@XZ            004ab010 f   ChilkatDbgDll:ck64.obj
 0001:000aa02e       ??1ck64@@UAE@XZ            004ab02e f   ChilkatDbgDll:ck64.obj
 0001:000aa049       ?xtoa@ck64@@CAX_JPADI_N@Z  004ab049 f   ChilkatDbgDll:ck64.obj
 0001:000aa195       ?itoa@ck64@@SAPAD_JPADH@Z  004ab195 f   ChilkatDbgDll:ck64.obj
 0001:000aa1ee       ?fromOctalString@ck64@@SA_JPBD@Z 004ab1ee f   ChilkatDbgDll:ck64.obj
 0001:000aa307       ?toUnsignedLong@ck64@@SAI_J@Z 004ab307 f   ChilkatDbgDll:ck64.obj
 0001:000aa340       ??_Eck64@@UAEPAXI@Z        004ab340 f i ChilkatDbgDll:ck64.obj
 0001:000aa340       ??_Gck64@@UAEPAXI@Z        004ab340 f i ChilkatDbgDll:ck64.obj
 0001:000aa380       ?isHandleOpen@ChilkatHandle@@QAE_NXZ 004ab380 f   ChilkatDbgDll:ChilkatHandle.obj
 0001:000aa3ae       ?createNewObject@ChilkatHandle@@SAPAV1@XZ 004ab3ae f   ChilkatDbgDll:ChilkatHandle.obj
 0001:000aa469       ??0ChilkatHandle@@QAE@XZ   004ab469 f   ChilkatDbgDll:ChilkatHandle.obj
 0001:000aa49b       ?takeHandle@ChilkatHandle@@QAEXAAV1@@Z 004ab49b f   ChilkatDbgDll:ChilkatHandle.obj
 0001:000aa4f7       ?takeWinHandle@ChilkatHandle@@QAEXPAX@Z 004ab4f7 f   ChilkatDbgDll:ChilkatHandle.obj
 0001:000aa526       ?takeFp@ChilkatHandle@@QAEXPAU_iobuf@@@Z 004ab526 f   ChilkatDbgDll:ChilkatHandle.obj
 0001:000aa555       ?logHandle@ChilkatHandle@@QAEXAAVLogBase@@@Z 004ab555 f   ChilkatDbgDll:ChilkatHandle.obj
 0001:000aa5b8       ?closeHandle2@ChilkatHandle@@QAEXAAVLogBase@@@Z 004ab5b8 f   ChilkatDbgDll:ChilkatHandle.obj
 0001:000aa61b       ?closeHandle@ChilkatHandle@@QAEXXZ 004ab61b f   ChilkatDbgDll:ChilkatHandle.obj
 0001:000aa68e       ??1ChilkatHandle@@UAE@XZ   004ab68e f   ChilkatDbgDll:ChilkatHandle.obj
 0001:000aa6bb       ?setFilePointerToEnd@ChilkatHandle@@QAE_NPAVLogBase@@@Z 004ab6bb f   ChilkatDbgDll:ChilkatHandle.obj
 0001:000aa7c7       ?ftell64@ChilkatHandle@@QAE_JPAVLogBase@@@Z 004ab7c7 f   ChilkatDbgDll:ChilkatHandle.obj
 0001:000aa8e5       ?ftell32@ChilkatHandle@@QAEIPAVLogBase@@@Z 004ab8e5 f   ChilkatDbgDll:ChilkatHandle.obj
 0001:000aa9e7       ?getFileCreateTime@ChilkatHandle@@QAE_NAAVChilkatFileTime@@PAVLogBase@@@Z 004ab9e7 f   ChilkatDbgDll:ChilkatHandle.obj
 0001:000aaa99       ?getFileLastModSysTime@ChilkatHandle@@QAE_NAAVChilkatSysTime@@PAVLogBase@@@Z 004aba99 f   ChilkatDbgDll:ChilkatHandle.obj
 0001:000aaaf9       ?getFileLastModTime@ChilkatHandle@@QAE_NAAVChilkatFileTime@@PAVLogBase@@@Z 004abaf9 f   ChilkatDbgDll:ChilkatHandle.obj
 0001:000aabab       ?getFileTime@ChilkatHandle@@QAE_NAAVChilkatFileTime@@00@Z 004abbab f   ChilkatDbgDll:ChilkatHandle.obj
 0001:000aac45       ?setFileTimeByHandle@ChilkatHandle@@QAE_NAAVChilkatFileTime@@PAVLogBase@@@Z 004abc45 f   ChilkatDbgDll:ChilkatHandle.obj
 0001:000aacfd       ?setFileTimeByHandle3@ChilkatHandle@@QAE_NAAVChilkatFileTime@@00PAVLogBase@@@Z 004abcfd f   ChilkatDbgDll:ChilkatHandle.obj
 0001:000aadff       ?truncate@ChilkatHandle@@QAE_N_JPAVLogBase@@@Z 004abdff f   ChilkatDbgDll:ChilkatHandle.obj
 0001:000aafe4       ?setFilePointerAbsolute@ChilkatHandle@@QAE_N_JPAVLogBase@@@Z 004abfe4 f   ChilkatDbgDll:ChilkatHandle.obj
 0001:000ab13c       ?setFilePointerRelative@ChilkatHandle@@QAE_N_JPAVLogBase@@@Z 004ac13c f   ChilkatDbgDll:ChilkatHandle.obj
 0001:000ab298       ?readBytesToBuf32@ChilkatHandle@@QAE_NPAXIAAIAA_NPAVLogBase@@@Z 004ac298 f   ChilkatDbgDll:ChilkatHandle.obj
 0001:000ab3a8       ?readBytesToBuf32_inner@ChilkatHandle@@AAE_NPAEIAAIAA_NPAVLogBase@@@Z 004ac3a8 f   ChilkatDbgDll:ChilkatHandle.obj
 0001:000ab522       ?writeFile64@ChilkatHandle@@QAE_NPBX_JPA_JPAVLogBase@@@Z 004ac522 f   ChilkatDbgDll:ChilkatHandle.obj
 0001:000ab71a       ?fileSize32@ChilkatHandle@@QAEIPAVLogBase@@@Z 004ac71a f   ChilkatDbgDll:ChilkatHandle.obj
 0001:000ab850       ?fileSize64@ChilkatHandle@@QAE_JPAVLogBase@@@Z 004ac850 f   ChilkatDbgDll:ChilkatHandle.obj
 0001:000ab9c0       ??_EChilkatHandle@@UAEPAXI@Z 004ac9c0 f i ChilkatDbgDll:ChilkatHandle.obj
 0001:000ab9c0       ??_GChilkatHandle@@UAEPAXI@Z 004ac9c0 f i ChilkatDbgDll:ChilkatHandle.obj
 0001:000aba00       ?toHex@Md5@@SAXPAEHAAVStringBuffer@@@Z 004aca00 f   ChilkatDbgDll:Md5.obj
 0001:000abab6       ?initialize@Md5@@QAEXXZ    004acab6 f   ChilkatDbgDll:Md5.obj
 0001:000abb04       ??0Md5@@QAE@XZ             004acb04 f   ChilkatDbgDll:Md5.obj
 0001:000abb34       ??1Md5@@UAE@XZ             004acb34 f   ChilkatDbgDll:Md5.obj
 0001:000abb4f       ?copyFrom@Md5@@QAEXABV1@@Z 004acb4f f   ChilkatDbgDll:Md5.obj
 0001:000abb85       ?update@Md5@@QAEXPBEI@Z    004acb85 f   ChilkatDbgDll:Md5.obj
 0001:000acc77       ?final@Md5@@QAEXPAE@Z      004adc77 f   ChilkatDbgDll:Md5.obj
 0001:000acdd1       ?digestString@Md5@@QAEXABVStringBuffer@@PAE@Z 004addd1 f   ChilkatDbgDll:Md5.obj
 0001:000ace1d       ?digestBytes@Md5@@QAEXPBEIPAE@Z 004ade1d f   ChilkatDbgDll:Md5.obj
 0001:000ace5f       ?digestData@Md5@@QAEXABVDataBuffer@@PAE@Z 004ade5f f   ChilkatDbgDll:Md5.obj
 0001:000aceab       ?digestDataSource@Md5@@QAE_NAAVDataSource@@PAVProgressMonitor@@AAVLogBase@@PAEPAVDataBuffer@@@Z 004adeab f   ChilkatDbgDll:Md5.obj
 0001:000acff0       ??_EMd5@@UAEPAXI@Z         004adff0 f i ChilkatDbgDll:Md5.obj
 0001:000acff0       ??_GMd5@@UAEPAXI@Z         004adff0 f i ChilkatDbgDll:Md5.obj
 0001:000ad030       ?setString@ParseEngine@@QAEXPBD@Z 004ae030 f   ChilkatDbgDll:ParseEngine.obj
 0001:000ad091       ?setStringSb@ParseEngine@@QAEXAAVStringBuffer@@@Z 004ae091 f   ChilkatDbgDll:ParseEngine.obj
 0001:000ad0ec       ??0ParseEngine@@QAE@XZ     004ae0ec f   ChilkatDbgDll:ParseEngine.obj
 0001:000ad16f       ??0ParseEngine@@QAE@PBDAA_NPAVLogBase@@@Z 004ae16f f   ChilkatDbgDll:ParseEngine.obj
 0001:000ad26b       ??0ParseEngine@@QAE@PBD@Z  004ae26b f   ChilkatDbgDll:ParseEngine.obj
 0001:000ad2ff       ??0ParseEngine@@QAE@ABVDataBuffer@@@Z 004ae2ff f   ChilkatDbgDll:ParseEngine.obj
 0001:000ad3a1       ??1ParseEngine@@UAE@XZ     004ae3a1 f   ChilkatDbgDll:ParseEngine.obj
 0001:000ad3d1       ?skipChars@ParseEngine@@QAEXPBD@Z 004ae3d1 f   ChilkatDbgDll:ParseEngine.obj
 0001:000ad498       ?skipUntilNotChar@ParseEngine@@QAEXD@Z 004ae498 f   ChilkatDbgDll:ParseEngine.obj
 0001:000ad50a       ?skipUntilNotChar4@ParseEngine@@QAEXDDDD@Z 004ae50a f   ChilkatDbgDll:ParseEngine.obj
 0001:000ad5a6       ?skipUntil@ParseEngine@@QAEXPBD@Z 004ae5a6 f   ChilkatDbgDll:ParseEngine.obj
 0001:000ad66d       ?skipUntilChar@ParseEngine@@QAEXD@Z 004ae66d f   ChilkatDbgDll:ParseEngine.obj
 0001:000ad6e7       ?skipUntilCloseParen@ParseEngine@@QAEXXZ 004ae6e7 f   ChilkatDbgDll:ParseEngine.obj
 0001:000ad77f       ?skipUntilChar2@ParseEngine@@QAE_NDD@Z 004ae77f f   ChilkatDbgDll:ParseEngine.obj
 0001:000ad7ff       ?lookaheadForChar@ParseEngine@@QBE_NDPBD@Z 004ae7ff f   ChilkatDbgDll:ParseEngine.obj
 0001:000ad8cd       ?captureChar@ParseEngine@@QAEXAAVStringBuffer@@@Z 004ae8cd f   ChilkatDbgDll:ParseEngine.obj
 0001:000ad947       ?captureInteger@ParseEngine@@QAE_NAAH@Z 004ae947 f   ChilkatDbgDll:ParseEngine.obj
 0001:000ada15       ?captureToNext@ParseEngine@@QAEHPBDAAVStringBuffer@@@Z 004aea15 f   ChilkatDbgDll:ParseEngine.obj
 0001:000adb1f       ?captureToNextSkipBackslash@ParseEngine@@QAEXPBDAAVStringBuffer@@@Z 004aeb1f f   ChilkatDbgDll:ParseEngine.obj
 0001:000adc2f       ?getBuffer@ParseEngine@@QAEAAVStringBuffer@@XZ 004aec2f f   ChilkatDbgDll:ParseEngine.obj
 0001:000adc47       ?eliminateChar@ParseEngine@@QAEXD@Z 004aec47 f   ChilkatDbgDll:ParseEngine.obj
 0001:000adc7e       ?atEnd@ParseEngine@@QBE_NXZ 004aec7e f   ChilkatDbgDll:ParseEngine.obj
 0001:000adcbc       ?consumeOneChar@ParseEngine@@QAEDXZ 004aecbc f   ChilkatDbgDll:ParseEngine.obj
 0001:000add19       ?append@ParseEngine@@QAEXPBD@Z 004aed19 f   ChilkatDbgDll:ParseEngine.obj
 0001:000add64       ?appendN@ParseEngine@@QAEXPBDH@Z 004aed64 f   ChilkatDbgDll:ParseEngine.obj
 0001:000addb9       ?captureToNext7@ParseEngine@@QAEXPBDAAVStringBuffer@@@Z 004aedb9 f   ChilkatDbgDll:ParseEngine.obj
 0001:000aded2       ?captureToNext5@ParseEngine@@QAEXPBDAAVStringBuffer@@@Z 004aeed2 f   ChilkatDbgDll:ParseEngine.obj
 0001:000adfbb       ?captureToNext4@ParseEngine@@QAEXPBDAAVStringBuffer@@@Z 004aefbb f   ChilkatDbgDll:ParseEngine.obj
 0001:000ae091       ?captureToNext2@ParseEngine@@QAEXPBDAAVStringBuffer@@@Z 004af091 f   ChilkatDbgDll:ParseEngine.obj
 0001:000ae141       ?captureToNextChar@ParseEngine@@QAEXDAAVStringBuffer@@@Z 004af141 f   ChilkatDbgDll:ParseEngine.obj
 0001:000ae1ec       ?captureToNextUnescapedChar@ParseEngine@@QAEXDAAVStringBuffer@@@Z 004af1ec f   ChilkatDbgDll:ParseEngine.obj
 0001:000ae2f5       ?captureToNextUnquotedChar@ParseEngine@@QAEXDAAVStringBuffer@@@Z 004af2f5 f   ChilkatDbgDll:ParseEngine.obj
 0001:000ae452       ?captureToEndOfHtmlTag@ParseEngine@@QAEXDAAVStringBuffer@@@Z 004af452 f   ChilkatDbgDll:ParseEngine.obj
 0001:000ae622       ?seek@ParseEngine@@QAE_NPBD@Z 004af622 f   ChilkatDbgDll:ParseEngine.obj
 0001:000ae69e       ?seekAndCopyToClosing@ParseEngine@@QAE_NDDHAAVStringBuffer@@@Z 004af69e f   ChilkatDbgDll:ParseEngine.obj
 0001:000ae7e6       ?seekAndCopy@ParseEngine@@QAE_NPBDAAVStringBuffer@@@Z 004af7e6 f   ChilkatDbgDll:ParseEngine.obj
 0001:000ae880       ?seekAndSkip@ParseEngine@@QAE_NPBD@Z 004af880 f   ChilkatDbgDll:ParseEngine.obj
 0001:000ae90c       ?seekAndSkipExact@ParseEngine@@QAE_NPBD@Z 004af90c f   ChilkatDbgDll:ParseEngine.obj
 0001:000ae9b0       ??_GParseEngine@@UAEPAXI@Z 004af9b0 f i ChilkatDbgDll:ParseEngine.obj
 0001:000ae9b0       ??_EParseEngine@@UAEPAXI@Z 004af9b0 f i ChilkatDbgDll:ParseEngine.obj
 0001:000ae9f0       ??0StringPair@@QAE@XZ      004af9f0 f   ChilkatDbgDll:StringPair.obj
 0001:000aea34       ??0StringPair@@QAE@PBD0@Z  004afa34 f   ChilkatDbgDll:StringPair.obj
 0001:000aeaeb       ?createNewObject@StringPair@@SAPAV1@XZ 004afaeb f   ChilkatDbgDll:StringPair.obj
 0001:000aeba6       ?createNewObject2@StringPair@@SAPAV1@PBD0@Z 004afba6 f   ChilkatDbgDll:StringPair.obj
 0001:000aec69       ??1StringPair@@UAE@XZ      004afc69 f   ChilkatDbgDll:StringPair.obj
 0001:000aed07       ?replaceValue@StringPair@@QAEXPBD@Z 004afd07 f   ChilkatDbgDll:StringPair.obj
 0001:000aed63       ?getKey@StringPair@@QBEPBDXZ 004afd63 f   ChilkatDbgDll:StringPair.obj
 0001:000aed9a       ?getValue@StringPair@@QBEPBDXZ 004afd9a f   ChilkatDbgDll:StringPair.obj
 0001:000aedd1       ?getKeyBuf@StringPair@@QAEAAVStringBuffer@@XZ 004afdd1 f   ChilkatDbgDll:StringPair.obj
 0001:000aee07       ?getValueBuf@StringPair@@QAEAAVStringBuffer@@XZ 004afe07 f   ChilkatDbgDll:StringPair.obj
 0001:000aee40       ??_EStringPair@@UAEPAXI@Z  004afe40 f i ChilkatDbgDll:StringPair.obj
 0001:000aee40       ??_GStringPair@@UAEPAXI@Z  004afe40 f i ChilkatDbgDll:StringPair.obj
 0001:000aee80       ??0EasyAes@@QAE@XZ         004afe80 f   ChilkatDbgDll:EasyAes.obj
 0001:000aee9e       ??1EasyAes@@UAE@XZ         004afe9e f   ChilkatDbgDll:EasyAes.obj
 0001:000aeeb9       ?aesEncryptString@EasyAes@@SAXHPBDAAVStringBuffer@@AAVLogBase@@@Z 004afeb9 f   ChilkatDbgDll:EasyAes.obj
 0001:000aefc3       ?aesDecryptString@EasyAes@@SAXHPBDAAVStringBuffer@@AAVLogBase@@@Z 004affc3 f   ChilkatDbgDll:EasyAes.obj
 0001:000af113       ?decryptData@EasyAes@@SA_NHPBDAAVDataBuffer@@PBEI1AAVLogBase@@@Z 004b0113 f   ChilkatDbgDll:EasyAes.obj
 0001:000af2dc       ?encryptData@EasyAes@@SA_NHPBDAAVDataBuffer@@PBEI1AAVLogBase@@@Z 004b02dc f   ChilkatDbgDll:EasyAes.obj
 0001:000af4d0       ??_GEasyAes@@UAEPAXI@Z     004b04d0 f i ChilkatDbgDll:EasyAes.obj
 0001:000af4d0       ??_EEasyAes@@UAEPAXI@Z     004b04d0 f i ChilkatDbgDll:EasyAes.obj
 0001:000af510       ?isLegalUtf8@Utf@@SA_NPBEH@Z 004b0510 f   ChilkatDbgDll:Utf.obj
 0001:000af6af       ?toObjcSafeUtf8@Utf@@SAXPBDIPAD@Z 004b06af f   ChilkatDbgDll:Utf.obj
 0001:000af952       ?NumUtf8Bytes@Utf@@SAHPBEH@Z 004b0952 f   ChilkatDbgDll:Utf.obj
 0001:000af9f9       ?Utf8toUtf32@Utf@@SA_N_NABVDataBuffer@@AAV2@@Z 004b09f9 f   ChilkatDbgDll:Utf.obj
 0001:000afd37       ?Utf32ToUtf8@Utf@@SA_NABVDataBuffer@@AAV2@@Z 004b0d37 f   ChilkatDbgDll:Utf.obj
 0001:000afd9d       ?utf32ToUtf8@Utf@@SA_NPBEIAAVDataBuffer@@@Z 004b0d9d f   ChilkatDbgDll:Utf.obj
 0001:000affb0       ?put_IsLowerAscii@HashConvert@@QAEX_N@Z 004b0fb0 f   ChilkatDbgDll:HashConvert.obj
 0001:000affcd       ?get_IsLowerAscii@HashConvert@@QBE_NXZ 004b0fcd f   ChilkatDbgDll:HashConvert.obj
 0001:000affe5       ?createNewObject@HashConvert@@SAPAV1@XZ 004b0fe5 f   ChilkatDbgDll:HashConvert.obj
 0001:000b00a0       ??0HashConvert@@QAE@XZ     004b10a0 f   ChilkatDbgDll:HashConvert.obj
 0001:000b00d9       ??1HashConvert@@UAE@XZ     004b10d9 f   ChilkatDbgDll:HashConvert.obj
 0001:000b0106       ?Clear@HashConvert@@QAEXXZ 004b1106 f   ChilkatDbgDll:HashConvert.obj
 0001:000b01b9       ?Initialize@HashConvert@@QAEXH@Z 004b11b9 f   ChilkatDbgDll:HashConvert.obj
 0001:000b0224       ?getSlotSize@HashConvert@@AAEHH@Z 004b1224 f   ChilkatDbgDll:HashConvert.obj
 0001:000b02bf       ?getSlotCount@HashConvert@@AAEHH@Z 004b12bf f   ChilkatDbgDll:HashConvert.obj
 0001:000b033e       ?HashRemove@HashConvert@@QAEXPBEH@Z 004b133e f   ChilkatDbgDll:HashConvert.obj
 0001:000b05a1       ?HashInsert@HashConvert@@QAEXPBEH0H@Z 004b15a1 f   ChilkatDbgDll:HashConvert.obj
 0001:000b076d       ?BuildReverse@HashConvert@@QAEXAAV1@@Z 004b176d f   ChilkatDbgDll:HashConvert.obj
 0001:000b0866       ?HashLookup@HashConvert@@QAEXPBEHPAEAAH@Z 004b1866 f   ChilkatDbgDll:HashConvert.obj
 0001:000b09d1       ?Serialize@HashConvert@@QAEXAAVDataBuffer@@@Z 004b19d1 f   ChilkatDbgDll:HashConvert.obj
 0001:000b0b36       ?SaveStats@HashConvert@@QAEXPBD@Z 004b1b36 f   ChilkatDbgDll:HashConvert.obj
 0001:000b0cf0       ??_EHashConvert@@UAEPAXI@Z 004b1cf0 f i ChilkatDbgDll:HashConvert.obj
 0001:000b0cf0       ??_GHashConvert@@UAEPAXI@Z 004b1cf0 f i ChilkatDbgDll:HashConvert.obj
 0001:000b0d30       ??0CharsetNaming@@QAE@XZ   004b1d30 f   ChilkatDbgDll:CharsetNaming.obj
 0001:000b0d4e       ??1CharsetNaming@@UAE@XZ   004b1d4e f   ChilkatDbgDll:CharsetNaming.obj
 0001:000b0d69       ?GetCharsetName@CharsetNaming@@SA_NHAAVStringBuffer@@@Z 004b1d69 f   ChilkatDbgDll:CharsetNaming.obj
 0001:000b1e78       ?GetAnsiCharset@CharsetNaming@@SAXAAVStringBuffer@@@Z 004b2e78 f   ChilkatDbgDll:CharsetNaming.obj
 0001:000b1ea9       ?CharsetValid@CharsetNaming@@SA_NAAVStringBuffer@@@Z 004b2ea9 f   ChilkatDbgDll:CharsetNaming.obj
 0001:000b1ecb       ?CharsetValid_p@CharsetNaming@@SA_NPBD@Z 004b2ecb f   ChilkatDbgDll:CharsetNaming.obj
 0001:000b1f81       ?GetCodePage_p@CharsetNaming@@SAHPBD@Z 004b2f81 f   ChilkatDbgDll:CharsetNaming.obj
 0001:000b2011       ?GetCodePage@CharsetNaming@@SAHAAVStringBuffer@@@Z 004b3011 f   ChilkatDbgDll:CharsetNaming.obj
 0001:000b5880       ??_GCharsetNaming@@UAEPAXI@Z 004b6880 f i ChilkatDbgDll:CharsetNaming.obj
 0001:000b5880       ??_ECharsetNaming@@UAEPAXI@Z 004b6880 f i ChilkatDbgDll:CharsetNaming.obj
 0001:000b58c0       ??0Korean@@QAE@XZ          004b68c0 f   ChilkatDbgDll:Korean.obj
 0001:000b58de       ??1Korean@@UAE@XZ          004b68de f   ChilkatDbgDll:Korean.obj
 0001:000b58f9       ?Iso2022ToKsc@Korean@@QAEXPBEHAAVDataBuffer@@@Z 004b68f9 f   ChilkatDbgDll:Korean.obj
 0001:000b5b5f       ?KscToIso2022@Korean@@QAEXPBEHAAVDataBuffer@@@Z 004b6b5f f   ChilkatDbgDll:Korean.obj
 0001:000b5e20       ??_EKorean@@UAEPAXI@Z      004b6e20 f i ChilkatDbgDll:Korean.obj
 0001:000b5e20       ??_GKorean@@UAEPAXI@Z      004b6e20 f i ChilkatDbgDll:Korean.obj
 0001:000b5e60       ??0Japanese@@QAE@XZ        004b6e60 f   ChilkatDbgDll:Japanese.obj
 0001:000b5e7e       ??1Japanese@@UAE@XZ        004b6e7e f   ChilkatDbgDll:Japanese.obj
 0001:000b5e99       ?HanToZen@Japanese@@AAEHPBEHPAH1H@Z 004b6e99 f   ChilkatDbgDll:Japanese.obj
 0001:000b6207       ?ShiftJisToIso2022@Japanese@@QAEXPBEHAAVDataBuffer@@AAVLogBase@@@Z 004b7207 f   ChilkatDbgDll:Japanese.obj
 0001:000b7408       ?Iso2022ToShiftJis@Japanese@@QAEXPBEHAAVDataBuffer@@AAVLogBase@@@Z 004b8408 f   ChilkatDbgDll:Japanese.obj
 0001:000b7a55       ?ShiftJisToEuc@Japanese@@QAEXPBEHAAVDataBuffer@@_NAAVLogBase@@@Z 004b8a55 f   ChilkatDbgDll:Japanese.obj
 0001:000b7f2a       ?EucToShiftJis@Japanese@@QAEXPBEHAAVDataBuffer@@_NAAVLogBase@@@Z 004b8f2a f   ChilkatDbgDll:Japanese.obj
 0001:000b8410       ??_EJapanese@@UAEPAXI@Z    004b9410 f i ChilkatDbgDll:Japanese.obj
 0001:000b8410       ??_GJapanese@@UAEPAXI@Z    004b9410 f i ChilkatDbgDll:Japanese.obj
 0001:000b8450       ?Utf16XEToUtf7@Utf@@SA_NAAVDataBuffer@@0@Z 004b9450 f   ChilkatDbgDll:Ucs7.obj
 0001:000b88d5       ?ImapUtf16XEToUtf7@Utf@@SA_NAAVDataBuffer@@0@Z 004b98d5 f   ChilkatDbgDll:Ucs7.obj
 0001:000b8d5a       ?Utf7ToUtf16_xe@Utf@@SA_NAAVDataBuffer@@0@Z 004b9d5a f   ChilkatDbgDll:Ucs7.obj
 0001:000b9210       ?ImapUtf7ToUtf16_xe@Utf@@SA_NAAVDataBuffer@@0@Z 004ba210 f   ChilkatDbgDll:Ucs7.obj
 0001:000b94f0       ?bzipWithHeader@ChilkatBzip2@@QAE_NAAVDataBuffer@@0@Z 004ba4f0 f   ChilkatDbgDll:ChilkatBzip2.obj
 0001:000b96a8       ?unBzipWithHeader@ChilkatBzip2@@QAE_NAAVDataBuffer@@0PAVLogBase@@@Z 004ba6a8 f   ChilkatDbgDll:ChilkatBzip2.obj
 0001:000b97f6       ?BeginCompress@ChilkatBzip2@@QAE_NPBEIAAVDataBuffer@@AAVLogBase@@PAVProgressMonitor@@@Z 004ba7f6 f   ChilkatDbgDll:ChilkatBzip2.obj
 0001:000b98cd       ?MoreCompress@ChilkatBzip2@@QAE_NPBEIAAVDataBuffer@@AAVLogBase@@PAVProgressMonitor@@@Z 004ba8cd f   ChilkatDbgDll:ChilkatBzip2.obj
 0001:000b99a4       ?BeginCompress@ChilkatBzip2@@QAE_NAAVDataBuffer@@0AAVLogBase@@PAVProgressMonitor@@@Z 004ba9a4 f   ChilkatDbgDll:ChilkatBzip2.obj
 0001:000b9a85       ?MoreCompress@ChilkatBzip2@@QAE_NAAVDataBuffer@@0AAVLogBase@@PAVProgressMonitor@@@Z 004baa85 f   ChilkatDbgDll:ChilkatBzip2.obj
 0001:000b9b66       ?EndCompress@ChilkatBzip2@@QAE_NAAVDataBuffer@@AAVLogBase@@PAVProgressMonitor@@@Z 004bab66 f   ChilkatDbgDll:ChilkatBzip2.obj
 0001:000b9c0b       ?BeginDecompress@ChilkatBzip2@@QAE_NAAVDataBuffer@@0AAVLogBase@@PAVProgressMonitor@@@Z 004bac0b f   ChilkatDbgDll:ChilkatBzip2.obj
 0001:000b9ce6       ?MoreDecompress@ChilkatBzip2@@QAE_NAAVDataBuffer@@0AAVLogBase@@PAVProgressMonitor@@@Z 004bace6 f   ChilkatDbgDll:ChilkatBzip2.obj
 0001:000b9dc1       ?EndDecompress@ChilkatBzip2@@QAE_NAAVDataBuffer@@AAVLogBase@@PAVProgressMonitor@@@Z 004badc1 f   ChilkatDbgDll:ChilkatBzip2.obj
 0001:000b9e66       ?bzipNoHeader@ChilkatBzip2@@QAE_NAAVDataBuffer@@0AAVLogBase@@PAVProgressMonitor@@@Z 004bae66 f   ChilkatDbgDll:ChilkatBzip2.obj
 0001:000b9f54       ?unBzipNoHeader@ChilkatBzip2@@QAE_NAAVDataBuffer@@0AAVLogBase@@PAVProgressMonitor@@@Z 004baf54 f   ChilkatDbgDll:ChilkatBzip2.obj
 0001:000ba042       ??0ChilkatBzip2@@QAE@XZ    004bb042 f   ChilkatDbgDll:ChilkatBzip2.obj
 0001:000ba08f       ??1ChilkatBzip2@@UAE@XZ    004bb08f f   ChilkatDbgDll:ChilkatBzip2.obj
 0001:000ba120       ??_EChilkatBzip2@@UAEPAXI@Z 004bb120 f i ChilkatDbgDll:ChilkatBzip2.obj
 0001:000ba120       ??_GChilkatBzip2@@UAEPAXI@Z 004bb120 f i ChilkatDbgDll:ChilkatBzip2.obj
 0001:000ba160       ??0UnicodeLookup@@QAE@XZ   004bb160 f   ChilkatDbgDll:UnicodeLookup.obj
 0001:000ba19e       ??1UnicodeLookup@@UAE@XZ   004bb19e f   ChilkatDbgDll:UnicodeLookup.obj
 0001:000ba1b9       ?createNewObject@UnicodeLookup@@SAPAV1@XZ 004bb1b9 f   ChilkatDbgDll:UnicodeLookup.obj
 0001:000ba280       ??_GUnicodeLookup@@UAEPAXI@Z 004bb280 f i ChilkatDbgDll:UnicodeLookup.obj
 0001:000ba280       ??_EUnicodeLookup@@UAEPAXI@Z 004bb280 f i ChilkatDbgDll:UnicodeLookup.obj
 0001:000ba2c0       ?newPm@ProgressMonitorPtr@@QAEPAVProgressMonitor@@PAVProgressEvent@@I_J@Z 004bb2c0 f   ChilkatDbgDll:ProgressMonitor.obj
 0001:000ba35a       ??0ProgressMonitorPtr@@QAE@XZ 004bb35a f   ChilkatDbgDll:ProgressMonitor.obj
 0001:000ba378       ?getPm@ProgressMonitorPtr@@QAEPAVProgressMonitor@@XZ 004bb378 f   ChilkatDbgDll:ProgressMonitor.obj
 0001:000ba38f       ??0ProgressMonitorPtr@@QAE@PAVProgressEvent@@I_J@Z 004bb38f f   ChilkatDbgDll:ProgressMonitor.obj
 0001:000ba3fa       ??1ProgressMonitorPtr@@QAE@XZ 004bb3fa f   ChilkatDbgDll:ProgressMonitor.obj
 0001:000ba46a       ?clearAsyncAbort@ProgressMonitorPtr@@QAEXXZ 004bb46a f   ChilkatDbgDll:ProgressMonitor.obj
 0001:000ba498       ?forceAsyncAbort@ProgressMonitorPtr@@QAEXXZ 004bb498 f   ChilkatDbgDll:ProgressMonitor.obj
 0001:000ba4c6       ?get_Aborted@ProgressMonitorPtr@@QBE_NXZ 004bb4c6 f   ChilkatDbgDll:ProgressMonitor.obj
 0001:000ba4f8       ?consumeRemaining@ProgressMonitorPtr@@QAEXAAVLogBase@@@Z 004bb4f8 f   ChilkatDbgDll:ProgressMonitor.obj
 0001:000ba52c       ??0ProgressMonitor@@QAE@XZ 004bb52c f   ChilkatDbgDll:ProgressMonitor.obj
 0001:000ba610       ?createNewObject@ProgressMonitorPtr@@SAPAV1@PAVProgressEvent@@I_J@Z 004bb610 f   ChilkatDbgDll:ProgressMonitor.obj
 0001:000ba6db       ?createNewObject@ProgressMonitor@@SAPAV1@PAVProgressEvent@@I_J@Z 004bb6db f   ChilkatDbgDll:ProgressMonitor.obj
 0001:000ba7a6       ??0ProgressMonitor@@QAE@PAVProgressEvent@@I_J@Z 004bb7a6 f   ChilkatDbgDll:ProgressMonitor.obj
 0001:000ba8b4       ??1ProgressMonitor@@UAE@XZ 004bb8b4 f   ChilkatDbgDll:ProgressMonitor.obj
 0001:000ba8e4       ?getProgEvent_CAREFUL@ProgressMonitor@@QAEPAVProgressEvent@@XZ 004bb8e4 f   ChilkatDbgDll:ProgressMonitor.obj
 0001:000ba8fc       ?forceAsyncAbort@ProgressMonitor@@QAEXXZ 004bb8fc f   ChilkatDbgDll:ProgressMonitor.obj
 0001:000ba915       ?clearAsyncAbort@ProgressMonitor@@QAEXXZ 004bb915 f   ChilkatDbgDll:ProgressMonitor.obj
 0001:000ba935       ?get_Aborted@ProgressMonitor@@QBE_NXZ 004bb935 f   ChilkatDbgDll:ProgressMonitor.obj
 0001:000ba94d       ?amountRemaining_64@ProgressMonitor@@QBE_JXZ 004bb94d f   ChilkatDbgDll:ProgressMonitor.obj
 0001:000ba977       ?amountRemaining_32@ProgressMonitor@@QBEIXZ 004bb977 f   ChilkatDbgDll:ProgressMonitor.obj
 0001:000ba9e3       ?amountConsumed_32@ProgressMonitor@@QBEIXZ 004bb9e3 f   ChilkatDbgDll:ProgressMonitor.obj
 0001:000baa3b       ?percentConsumed64@ProgressMonitor@@AAEI_J0@Z 004bba3b f   ChilkatDbgDll:ProgressMonitor.obj
 0001:000baaf3       ?currentPercentDone@ProgressMonitor@@QAEIXZ 004bbaf3 f   ChilkatDbgDll:ProgressMonitor.obj
 0001:000bab2d       ?consumeRemaining@ProgressMonitor@@QAEXAAVLogBase@@@Z 004bbb2d f   ChilkatDbgDll:ProgressMonitor.obj
 0001:000babee       ?progressInfo@ProgressMonitor@@QAEXPBD0@Z 004bbbee f   ChilkatDbgDll:ProgressMonitor.obj
 0001:000bac39       ?progressInfoInt@ProgressMonitor@@QAEXPBDH@Z 004bbc39 f   ChilkatDbgDll:ProgressMonitor.obj
 0001:000bacb1       ?progressInfoInt64@ProgressMonitor@@QAEXPBD_J@Z 004bbcb1 f   ChilkatDbgDll:ProgressMonitor.obj
 0001:000bad81       ?fireAbortCheck@ProgressMonitor@@AAEXXZ 004bbd81 f   ChilkatDbgDll:ProgressMonitor.obj
 0001:000badee       ?abortCheck@ProgressMonitor@@QAE_NXZ 004bbdee f   ChilkatDbgDll:ProgressMonitor.obj
 0001:000bae93       ?consumeProgressA@ProgressMonitor@@QAE_N_JAAVLogBase@@@Z 004bbe93 f   ChilkatDbgDll:ProgressMonitor.obj
 0001:000baef4       ?consumeProgress@ProgressMonitor@@QAE_N_JAAVLogBase@@@Z 004bbef4 f   ChilkatDbgDll:ProgressMonitor.obj
 0001:000bb156       ?consumeProgressNoAbort@ProgressMonitor@@QAEX_JAAVLogBase@@@Z 004bc156 f   ChilkatDbgDll:ProgressMonitor.obj
 0001:000bb1d2       ?setAmountConsumed@ProgressMonitor@@QAEX_JAA_NAAVLogBase@@@Z 004bc1d2 f   ChilkatDbgDll:ProgressMonitor.obj
 0001:000bb33c       ?addToTotal_32@ProgressMonitor@@QAEXI@Z 004bc33c f   ChilkatDbgDll:ProgressMonitor.obj
 0001:000bb36d       ?progressReset@ProgressMonitor@@QAEX_JAAVLogBase@@@Z 004bc36d f   ChilkatDbgDll:ProgressMonitor.obj
 0001:000bb4a0       ??_EProgressMonitor@@UAEPAXI@Z 004bc4a0 f i ChilkatDbgDll:ProgressMonitor.obj
 0001:000bb4a0       ??_GProgressMonitor@@UAEPAXI@Z 004bc4a0 f i ChilkatDbgDll:ProgressMonitor.obj
 0001:000bb4e0       ??0Entropy@@QAE@XZ         004bc4e0 f   ChilkatDbgDll:Entropy.obj
 0001:000bb4fe       ??1Entropy@@UAE@XZ         004bc4fe f   ChilkatDbgDll:Entropy.obj
 0001:000bb519       ?getRandomBytes2@Entropy@@SA_NHPAE@Z 004bc519 f   ChilkatDbgDll:Entropy.obj
 0001:000bb5b0       ??_GEntropy@@UAEPAXI@Z     004bc5b0 f i ChilkatDbgDll:Entropy.obj
 0001:000bb5b0       ??_EEntropy@@UAEPAXI@Z     004bc5b0 f i ChilkatDbgDll:Entropy.obj
 0001:000bb5f0       ??0WindowsVersion@@QAE@XZ  004bc5f0 f   ChilkatDbgDll:WindowsVersion.obj
 0001:000bb63a       ??1WindowsVersion@@UAE@XZ  004bc63a f   ChilkatDbgDll:WindowsVersion.obj
 0001:000bb655       ?isWindows9598ME@WindowsVersion@@QAE_NXZ 004bc655 f   ChilkatDbgDll:WindowsVersion.obj
 0001:000bb675       ?isWindows2003@WindowsVersion@@QAE_NXZ 004bc675 f   ChilkatDbgDll:WindowsVersion.obj
 0001:000bb6c0       ??_EWindowsVersion@@UAEPAXI@Z 004bc6c0 f i ChilkatDbgDll:WindowsVersion.obj
 0001:000bb6c0       ??_GWindowsVersion@@UAEPAXI@Z 004bc6c0 f i ChilkatDbgDll:WindowsVersion.obj
 0001:000bb700       ??0CF@@QAE@XZ              004bc700 f   ChilkatDbgDll:CF.obj
 0001:000bb71e       ??1CF@@UAE@XZ              004bc71e f   ChilkatDbgDll:CF.obj
 0001:000bb739       ?cffopen@CF@@SAPAU_iobuf@@HPBD0PAVLogBase@@@Z 004bc739 f   ChilkatDbgDll:CF.obj
 0001:000bb894       ?cffclose@CF@@SAXPAU_iobuf@@PAVLogBase@@@Z 004bc894 f   ChilkatDbgDll:CF.obj
 0001:000bb8be       ?cfCloseHandle@CF@@SAXAAVChilkatHandle@@PAVLogBase@@@Z 004bc8be f   ChilkatDbgDll:CF.obj
 0001:000bb8e6       ?cfCreateFileAnsi2@CF@@SAPAVChilkatHandle@@HPBDIIPAU_SECURITY_ATTRIBUTES@@IIPAXAAIPAVLogBase@@@Z 004bc8e6 f   ChilkatDbgDll:CF.obj
 0001:000bbbcb       ?cfCreateFileUnicode2@CF@@SAPAVChilkatHandle@@HPBGIIPAU_SECURITY_ATTRIBUTES@@IIPAXAAIPAVLogBase@@@Z 004bcbcb f   ChilkatDbgDll:CF.obj
 0001:000bbe90       ??_GCF@@UAEPAXI@Z          004bce90 f i ChilkatDbgDll:CF.obj
 0001:000bbe90       ??_ECF@@UAEPAXI@Z          004bce90 f i ChilkatDbgDll:CF.obj
 0001:000bbed0       ?hashFunc@HashMap@@QBEIABVStringBuffer@@@Z 004bced0 f   ChilkatDbgDll:HashMap.obj
 0001:000bbf8b       ?hashClear@HashMap@@QAEXXZ 004bcf8b f   ChilkatDbgDll:HashMap.obj
 0001:000bc0db       ?createNewObject@HashMap@@SAPAV1@H@Z 004bd0db f   ChilkatDbgDll:HashMap.obj
 0001:000bc19a       ??0HashMap@@QAE@H@Z        004bd19a f   ChilkatDbgDll:HashMap.obj
 0001:000bc2a8       ??1HashMap@@UAE@XZ         004bd2a8 f   ChilkatDbgDll:HashMap.obj
 0001:000bc32e       ?hashLookup2@HashMap@@QBEPAVChilkatObject@@PBD@Z 004bd32e f   ChilkatDbgDll:HashMap.obj
 0001:000bc3e0       ?hashLookupString@HashMap@@QBE_NPBDAAVStringBuffer@@@Z 004bd3e0 f   ChilkatDbgDll:HashMap.obj
 0001:000bc4da       ?hashLookup@HashMap@@QBEPAVChilkatObject@@ABVStringBuffer@@@Z 004bd4da f   ChilkatDbgDll:HashMap.obj
 0001:000bc56f       ?hashContains@HashMap@@QBE_NPBD@Z 004bd56f f   ChilkatDbgDll:HashMap.obj
 0001:000bc698       ?internalLookup@HashMap@@ABEPAVNamedObject@@ABVStringBuffer@@AAI@Z 004bd698 f   ChilkatDbgDll:HashMap.obj
 0001:000bc730       ?hashInsert2@HashMap@@QAE_NPBDPAVChilkatObject@@@Z 004bd730 f   ChilkatDbgDll:HashMap.obj
 0001:000bc7e6       ?hashInsertString@HashMap@@QAE_NPBD0@Z 004bd7e6 f   ChilkatDbgDll:HashMap.obj
 0001:000bc838       ?hashInsert3@HashMap@@QAE_NPBD@Z 004bd838 f   ChilkatDbgDll:HashMap.obj
 0001:000bc92a       ?hashInsert@HashMap@@QAE_NABVStringBuffer@@PAVChilkatObject@@@Z 004bd92a f   ChilkatDbgDll:HashMap.obj
 0001:000bc9c3       ?hashDelete2@HashMap@@QAEXPBD@Z 004bd9c3 f   ChilkatDbgDll:HashMap.obj
 0001:000bca67       ?hashDelete@HashMap@@QAEXABVStringBuffer@@@Z 004bda67 f   ChilkatDbgDll:HashMap.obj
 0001:000bcb09       ?hashExtract2@HashMap@@QAEPAVChilkatObject@@PBD@Z 004bdb09 f   ChilkatDbgDll:HashMap.obj
 0001:000bcbbb       ?hashExtract@HashMap@@QAEPAVChilkatObject@@ABVStringBuffer@@@Z 004bdbbb f   ChilkatDbgDll:HashMap.obj
 0001:000bcc70       ?toParallelArrays@HashMap@@QAEXAAVExtPtrArray@@0@Z 004bdc70 f   ChilkatDbgDll:HashMap.obj
 0001:000bcd1f       ?toArray@HashMap@@QAEXAAVExtPtrArray@@@Z 004bdd1f f   ChilkatDbgDll:HashMap.obj
 0001:000bcdbd       ?hashTraverse@HashMap@@QAEXP6AXPBDPAVChilkatObject@@@Z@Z 004bddbd f   ChilkatDbgDll:HashMap.obj
 0001:000bce70       ??_ECK_List@@UAEPAXI@Z     004bde70 f i ChilkatDbgDll:HashMap.obj
 0001:000bcf00       ??_GHashMap@@UAEPAXI@Z     004bdf00 f i ChilkatDbgDll:HashMap.obj
 0001:000bcf00       ??_EHashMap@@UAEPAXI@Z     004bdf00 f i ChilkatDbgDll:HashMap.obj
 0001:000bcf40       ??0StringConsumer@@QAE@XZ  004bdf40 f   ChilkatDbgDll:StringConsumer.obj
 0001:000bcf5e       ??1StringConsumer@@UAE@XZ  004bdf5e f   ChilkatDbgDll:StringConsumer.obj
 0001:000bcf79       ?consume@StringConsumer@@UAEXPBD@Z 004bdf79 f   ChilkatDbgDll:StringConsumer.obj
 0001:000bcf90       ??_GStringConsumer@@UAEPAXI@Z 004bdf90 f i ChilkatDbgDll:StringConsumer.obj
 0001:000bcf90       ??_EStringConsumer@@UAEPAXI@Z 004bdf90 f i ChilkatDbgDll:StringConsumer.obj
 0001:000bcfd0       ?numRows@_ckGrid@@QAEHXZ   004bdfd0 f   ChilkatDbgDll:Grid.obj
 0001:000bcffa       ??0_ckGrid@@QAE@XZ         004bdffa f   ChilkatDbgDll:Grid.obj
 0001:000bd0c3       ?clear@_ckGrid@@QAEXXZ     004be0c3 f   ChilkatDbgDll:Grid.obj
 0001:000bd114       ??1_ckGrid@@UAE@XZ         004be114 f   ChilkatDbgDll:Grid.obj
 0001:000bd1b5       ?getNumColumnNames@_ckGrid@@QAEHXZ 004be1b5 f   ChilkatDbgDll:Grid.obj
 0001:000bd1ea       ?addNewRow@_ckGrid@@QAEXXZ 004be1ea f   ChilkatDbgDll:Grid.obj
 0001:000bd23f       ?appendToLastRow@_ckGrid@@QAEXPBD@Z 004be23f f   ChilkatDbgDll:Grid.obj
 0001:000bd319       ?decNumColumns@_ckGrid@@AAEHH@Z 004be319 f   ChilkatDbgDll:Grid.obj
 0001:000bd387       ?numColumns@_ckGrid@@QAEHH@Z 004be387 f   ChilkatDbgDll:Grid.obj
 0001:000bd430       ?saveToSb@_ckGrid@@QAEXPBDAAVStringBuffer@@@Z 004be430 f   ChilkatDbgDll:Grid.obj
 0001:000bd5ef       ?setDelimiter@_ckGrid@@QAEXD@Z 004be5ef f   ChilkatDbgDll:Grid.obj
 0001:000bd619       ?getDelimiter@_ckGrid@@QBEDXZ 004be619 f   ChilkatDbgDll:Grid.obj
 0001:000bd634       ?indexOfColumnName@_ckGrid@@QAEHABVStringBuffer@@@Z 004be634 f   ChilkatDbgDll:Grid.obj
 0001:000bd681       ?rebuildColumnNamesHashMap@_ckGrid@@AAEXXZ 004be681 f   ChilkatDbgDll:Grid.obj
 0001:000bd81b       ?loadSbUtf8@_ckGrid@@QAEHAAVStringBuffer@@DAAVLogBase@@@Z 004be81b f   ChilkatDbgDll:Grid.obj
 0001:000bdc74       ?loadCsv@_ckGrid@@QAEHPBDDAAVLogBase@@@Z 004bec74 f   ChilkatDbgDll:Grid.obj
 0001:000bdd1d       ?prepIncoming@_ckGrid@@AAEXAAVStringBuffer@@@Z 004bed1d f   ChilkatDbgDll:Grid.obj
 0001:000bddf2       ?setCell@_ckGrid@@QAE_NHHAAVXString@@@Z 004bedf2 f   ChilkatDbgDll:Grid.obj
 0001:000bdea7       ?setCell@_ckGrid@@QAE_NHHAAVStringBuffer@@@Z 004beea7 f   ChilkatDbgDll:Grid.obj
 0001:000bdf91       ?rowMatches@_ckGrid@@QAE_NHPBD_N@Z 004bef91 f   ChilkatDbgDll:Grid.obj
 0001:000bdffb       ?getCellInt@_ckGrid@@QAE_NHHAAH@Z 004beffb f   ChilkatDbgDll:Grid.obj
 0001:000be12a       ?setCellInt@_ckGrid@@QAE_NHHH@Z 004bf12a f   ChilkatDbgDll:Grid.obj
 0001:000be1ea       ?setColumnName@_ckGrid@@QAE_NHPBD@Z 004bf1ea f   ChilkatDbgDll:Grid.obj
 0001:000be3df       ?rowCompare@_ckGrid@@AAEHHHAAVStringBuffer@@0_N1@Z 004bf3df f   ChilkatDbgDll:Grid.obj
 0001:000be489       ?quickSort@_ckGrid@@AAEXHHHAAVStringBuffer@@0_N1@Z 004bf489 f   ChilkatDbgDll:Grid.obj
 0001:000be5e0       ?sortByColumn@_ckGrid@@QAE_NH_N0@Z 004bf5e0 f   ChilkatDbgDll:Grid.obj
 0001:000be700       ?getColumnName@_ckGrid@@QAE_NHAAVStringBuffer@@@Z 004bf700 f   ChilkatDbgDll:Grid.obj
 0001:000be76f       ?getCell@_ckGrid@@QAE_NHHAAVStringBuffer@@@Z 004bf76f f   ChilkatDbgDll:Grid.obj
 0001:000be811       ?deleteCell@_ckGrid@@QAE_NHH@Z 004bf811 f   ChilkatDbgDll:Grid.obj
 0001:000be8ba       ?deleteColumn@_ckGrid@@QAE_NH@Z 004bf8ba f   ChilkatDbgDll:Grid.obj
 0001:000be965       ?deleteRow@_ckGrid@@QAE_NH@Z 004bf965 f   ChilkatDbgDll:Grid.obj
 0001:000be9f0       ??_E_ckGrid@@UAEPAXI@Z     004bf9f0 f i ChilkatDbgDll:Grid.obj
 0001:000be9f0       ??_G_ckGrid@@UAEPAXI@Z     004bf9f0 f i ChilkatDbgDll:Grid.obj
 0001:000bea30       ?checkCreateFinalUtf8@DirAutoCreate@@SA_NPBDAA_NAAVLogBase@@@Z 004bfa30 f   ChilkatDbgDll:DirAutoCreate.obj
 0001:000beb4a       ?ensureFileUtf8@DirAutoCreate@@SA_NPBDAAVStringBuffer@@AAVLogBase@@@Z 004bfb4a f   ChilkatDbgDll:DirAutoCreate.obj
 0001:000beb6c       ?ensureFileUtf8_2@DirAutoCreate@@SA_NPBDAAVStringBuffer@@PAVExtPtrArray@@AAVLogBase@@@Z 004bfb6c f   ChilkatDbgDll:DirAutoCreate.obj
 0001:000becf9       ?ensureDirUtf8@DirAutoCreate@@SA_NPBDAAVLogBase@@@Z 004bfcf9 f   ChilkatDbgDll:DirAutoCreate.obj
 0001:000bed17       ?ensureDirUtf8_2@DirAutoCreate@@SA_NPBDPAVExtPtrArray@@AAVLogBase@@@Z 004bfd17 f   ChilkatDbgDll:DirAutoCreate.obj
 0001:000bf5c0       ??0SshChannel@@QAE@XZ      004c05c0 f   ChilkatDbgDll:SshTransport.obj
 0001:000bf766       ?rsaVerifySig@SshTransport@@SA_NAAVrsa_key@@PBEI1IAAVLogBase@@@Z 004c0766 f   ChilkatDbgDll:SshTransport.obj
 0001:000bfc69       ?dssVerifySig@SshTransport@@SA_NAAUdsa_key@@PBEI1IAAVLogBase@@@Z 004c0c69 f   ChilkatDbgDll:SshTransport.obj
 0001:000c0045       ?parseDssKey@SshTransport@@SA_NAAVDataBuffer@@AAUdsa_key@@AAVLogBase@@@Z 004c1045 f   ChilkatDbgDll:SshTransport.obj
 0001:000c0362       ?parseRsaKey@SshTransport@@SA_NAAVDataBuffer@@AAVrsa_key@@AAVLogBase@@@Z 004c1362 f   ChilkatDbgDll:SshTransport.obj
 0001:000c0520       ??0SshTransport@@QAE@XZ    004c1520 f   ChilkatDbgDll:SshTransport.obj
 0001:000c091f       ??1SshTransport@@UAE@XZ    004c191f f   ChilkatDbgDll:SshTransport.obj
 0001:000c0c10       ?parseBinaryStringToOutput@SshTransport@@SA_NAAVDataBuffer@@AAIAAVOutput@@1PAVProgressMonitor@@AAVLogBase@@@Z 004c1c10 f   ChilkatDbgDll:SshTransport.obj
 0001:000c0e24       ?macSizeInBytes@SshTransport@@SAHH@Z 004c1e24 f   ChilkatDbgDll:SshTransport.obj
 0001:000c0e6c       ?build_kexInit@SshTransport@@AAEXAAVDataBuffer@@@Z 004c1e6c f   ChilkatDbgDll:SshTransport.obj
 0001:000c106c       ?parseNameList@SshTransport@@SA_NAAVDataBuffer@@AAIAAVExtPtrArray@@@Z 004c206c f   ChilkatDbgDll:SshTransport.obj
 0001:000c1146       ?parseNameList3@SshTransport@@SA_NAAVDataBuffer@@AAIAAVExtPtrArray@@AAVStringBuffer@@@Z 004c2146 f   ChilkatDbgDll:SshTransport.obj
 0001:000c11a2       ?parseNameList2@SshTransport@@SA_NAAVDataBuffer@@AAIAAVClsStringArray@@@Z 004c21a2 f   ChilkatDbgDll:SshTransport.obj
 0001:000c12b1       ?parseBignum@SshTransport@@SAPAIAAVDataBuffer@@AAIAAVLogBase@@@Z 004c22b1 f   ChilkatDbgDll:SshTransport.obj
 0001:000c1376       ?readRawPacket@SshTransport@@AAE_NAAVDataBuffer@@IAAVSocketParams@@AAVLogBase@@@Z 004c2376 f   ChilkatDbgDll:SshTransport.obj
 0001:000c2008       ?sendMessage@SshTransport@@AAE_NPBDAAVDataBuffer@@AAVSocketParams@@AAVLogBase@@@Z 004c3008 f   ChilkatDbgDll:SshTransport.obj
 0001:000c204b       ?sendMessageInOnePacket@SshTransport@@AAE_NPBDAAVDataBuffer@@AAIAAVSocketParams@@AAVLogBase@@@Z 004c304b f   ChilkatDbgDll:SshTransport.obj
 0001:000c26b5       ?msgType@SshTransport@@CAIAAVDataBuffer@@@Z 004c36b5 f   ChilkatDbgDll:SshTransport.obj
 0001:000c26f5       ?isSupportedByServer@SshTransport@@AAE_NPBDAAVExtPtrArray@@@Z 004c36f5 f   ChilkatDbgDll:SshTransport.obj
 0001:000c2770       ?choose_crypt_algorithm@SshTransport@@AAE_NAAHAAVExtPtrArray@@AAVLogBase@@@Z 004c3770 f   ChilkatDbgDll:SshTransport.obj
 0001:000c2f6d       ?choose_mac_algorithm@SshTransport@@AAE_NAAHAAVExtPtrArray@@AAVLogBase@@@Z 004c3f6d f   ChilkatDbgDll:SshTransport.obj
 0001:000c311b       ?choose_compression@SshTransport@@AAE_NAAHAAVExtPtrArray@@AAVLogBase@@@Z 004c411b f   ChilkatDbgDll:SshTransport.obj
 0001:000c3227       ?choose_hostkey_algorithm@SshTransport@@AAE_NAAVExtPtrArray@@AAVLogBase@@@Z 004c4227 f   ChilkatDbgDll:SshTransport.obj
 0001:000c3336       ?choose_kex_algorithm@SshTransport@@AAE_NAAVExtPtrArray@@AAVLogBase@@@Z 004c4336 f   ChilkatDbgDll:SshTransport.obj
 0001:000c346e       ?getKeySizes@SshTransport@@AAEXAAH00000@Z 004c446e f   ChilkatDbgDll:SshTransport.obj
 0001:000c36ca       ?calculateKey@SshTransport@@AAE_NHEAAVDataBuffer@@AAVLogBase@@@Z 004c46ca f   ChilkatDbgDll:SshTransport.obj
 0001:000c3799       ?getClientIp@SshTransport@@QAEXAAVStringBuffer@@@Z 004c4799 f   ChilkatDbgDll:SshTransport.obj
 0001:000c37c8       ?setClientIp@SshTransport@@QAEXPBDH@Z 004c47c8 f   ChilkatDbgDll:SshTransport.obj
 0001:000c37fc       ?calculateKey2@SshTransport@@SA_N_NHAAVDataBuffer@@1E11AAVLogBase@@@Z 004c47fc f   ChilkatDbgDll:SshTransport.obj
 0001:000c3bd9       ?calculateKeys@SshTransport@@AAE_NAAVLogBase@@@Z 004c4bd9 f   ChilkatDbgDll:SshTransport.obj
 0001:000c3cd6       ?readServerVersion@SshTransport@@AAE_NPAVProgressMonitor@@AAVLogBase@@@Z 004c4cd6 f   ChilkatDbgDll:SshTransport.obj
 0001:000c3fc8       ?toSessionLogFile@SshTransport@@QAEXXZ 004c4fc8 f   ChilkatDbgDll:SshTransport.obj
 0001:000c3fda       ?toSessionLog@SshTransport@@QAEXPBD00@Z 004c4fda f   ChilkatDbgDll:SshTransport.obj
 0001:000c4205       ?toSessionLog@SshTransport@@QAEXPBDH0@Z 004c5205 f   ChilkatDbgDll:SshTransport.obj
 0001:000c42a4       ?sendKexInit@SshTransport@@AAE_NPAVProgressMonitor@@AAVLogBase@@@Z 004c52a4 f   ChilkatDbgDll:SshTransport.obj
 0001:000c43a1       ?parseKexInit@SshTransport@@AAE_NAAVDataBuffer@@AAVLogBase@@@Z 004c53a1 f   ChilkatDbgDll:SshTransport.obj
 0001:000c4fa6       ?calcKeyExchangeNumBits@SshTransport@@AAEXAAI0@Z 004c5fa6 f   ChilkatDbgDll:SshTransport.obj
 0001:000c508f       ?computeExchangeHash@SshTransport@@AAEXIIAAVLogBase@@@Z 004c608f f   ChilkatDbgDll:SshTransport.obj
 0001:000c5390       ?sshConnect@SshTransport@@QAE_N_NAAVClsSocksClient@@PAVClsHttpProxyClient@@IAAVSocketParams@@AAVLogBase@@@Z 004c6390 f   ChilkatDbgDll:SshTransport.obj
 0001:000c6f43       ?installNewKeys@SshTransport@@AAEXAAVLogBase@@@Z 004c7f43 f   ChilkatDbgDll:SshTransport.obj
 0001:000c7b07       ?sendIgnoreMsg@SshTransport@@QAE_NAAVDataBuffer@@PAVProgressMonitor@@AAVLogBase@@@Z 004c8b07 f   ChilkatDbgDll:SshTransport.obj
 0001:000c7c25       ?sendChannelFailure@SshTransport@@AAE_NAAUSshChannel@@PAVProgressMonitor@@AAVLogBase@@@Z 004c8c25 f   ChilkatDbgDll:SshTransport.obj
 0001:000c7d1d       ?sendServiceRequest@SshTransport@@QAE_NPBDPAVProgressMonitor@@AAVLogBase@@@Z 004c8d1d f   ChilkatDbgDll:SshTransport.obj
 0001:000c7e83       ?msgTypeName@SshTransport@@CAPBDH@Z 004c8e83 f   ChilkatDbgDll:SshTransport.obj
 0001:000c80e1       ?generalizedRead@SshTransport@@AAE_NHIIPAUSshChannel@@AA_N1AAVDataBuffer@@AAI1AAVSocketParams@@AAVLogBase@@1@Z 004c90e1 f   ChilkatDbgDll:SshTransport.obj
 0001:000ca69d       ?readServiceAccept@SshTransport@@AAE_NAAVDataBuffer@@AAVSocketParams@@AAVLogBase@@@Z 004cb69d f   ChilkatDbgDll:SshTransport.obj
 0001:000ca7d7       ?reKey@SshTransport@@QAE_NAAVSocketParams@@AAVLogBase@@@Z 004cb7d7 f   ChilkatDbgDll:SshTransport.obj
 0001:000ca957       ?sshKeyboardInteractive@SshTransport@@AAE_NAAVExtPtrArray@@AAVSocketParams@@AAVLogBase@@AAIAAVStringBuffer@@AA_N5@Z 004cb957 f   ChilkatDbgDll:SshTransport.obj
 0001:000caf22       ?sshAuthenticatePw@SshTransport@@QAE_NAAVXString@@0AAVSocketParams@@AAVLogBase@@AA_N@Z 004cbf22 f   ChilkatDbgDll:SshTransport.obj
 0001:000cce38       ?sshAuthenticatePk@SshTransport@@QAE_NAAVXString@@PBDAAVClsSshKey@@AAVSocketParams@@AAVLogBase@@@Z 004cde38 f   ChilkatDbgDll:SshTransport.obj
 0001:000ce949       ?setIdleTimeoutMs@SshTransport@@QAEXI@Z 004cf949 f   ChilkatDbgDll:SshTransport.obj
 0001:000ce969       ?parseBannerMsg@SshTransport@@CA_NAAVDataBuffer@@AAVXString@@1AAVLogBase@@@Z 004cf969 f   ChilkatDbgDll:SshTransport.obj
 0001:000cea74       ?parseGlobalRequest@SshTransport@@CA_NAAVDataBuffer@@AAVXString@@AA_NAAVLogBase@@@Z 004cfa74 f   ChilkatDbgDll:SshTransport.obj
 0001:000ceb8c       ?parseUserAuthInfoRequest@SshTransport@@CA_NAAVDataBuffer@@AAIAAVStringBuffer@@AAVLogBase@@AA_N@Z 004cfb8c f   ChilkatDbgDll:SshTransport.obj
 0001:000cf18c       ?parseUserAuthFailMsg@SshTransport@@CA_NAAVDataBuffer@@AAVClsStringArray@@AA_NAAVLogBase@@@Z 004d018c f   ChilkatDbgDll:SshTransport.obj
 0001:000cf297       ?parseChannelNum@SshTransport@@CAHAAVDataBuffer@@@Z 004d0297 f   ChilkatDbgDll:SshTransport.obj
 0001:000cf33f       ?parseExtendedData@SshTransport@@CA_NAAVDataBuffer@@AAI10AAVLogBase@@@Z 004d033f f   ChilkatDbgDll:SshTransport.obj
 0001:000cf407       ?parseData@SshTransport@@CA_NAAVDataBuffer@@AAI0AAVLogBase@@@Z 004d0407 f   ChilkatDbgDll:SshTransport.obj
 0001:000cf4cb       ?parseChannelRequest2@SshTransport@@SA_NAAVDataBuffer@@AAIAAVStringBuffer@@AA_N@Z 004d04cb f   ChilkatDbgDll:SshTransport.obj
 0001:000cf58e       ?parseExitStatus2@SshTransport@@SA_NAAVDataBuffer@@AAIAAVStringBuffer@@1@Z 004d058e f   ChilkatDbgDll:SshTransport.obj
 0001:000cf679       ?queuePayload@SshTransport@@AAEXAAVDataBuffer@@AAVLogBase@@H@Z 004d0679 f   ChilkatDbgDll:SshTransport.obj
 0001:000cf757       ?checkQueuedChannelResponse@SshTransport@@AAE_NAAUSshChannel@@AAVDataBuffer@@PAVProgressMonitor@@AAVLogBase@@@Z 004d0757 f   ChilkatDbgDll:SshTransport.obj
 0001:000cf8aa       ?readChannelResponse@SshTransport@@AAE_NAAUSshChannel@@AAVDataBuffer@@AAVSocketParams@@AAVLogBase@@AA_N@Z 004d08aa f   ChilkatDbgDll:SshTransport.obj
 0001:000cf9a3       ?readChannelToClose@SshTransport@@QAE_NAAUSshChannel@@AAVDataBuffer@@1AAVSocketParams@@AAVLogBase@@AA_N@Z 004d09a3 f   ChilkatDbgDll:SshTransport.obj
 0001:000cfae0       ?checkQueuedChannelData@SshTransport@@AAE_NAAUSshChannel@@_N1AAVDataBuffer@@2AA_N3PAVProgressMonitor@@AAVLogBase@@3@Z 004d0ae0 f   ChilkatDbgDll:SshTransport.obj
 0001:000cffc0       ?checkQueuedWindowAdjust@SshTransport@@AAE_NAAUSshChannel@@AA_N1PAVProgressMonitor@@AAVLogBase@@1@Z 004d0fc0 f   ChilkatDbgDll:SshTransport.obj
 0001:000d0368       ?readWindowAdjust@SshTransport@@QAE_NAAUSshChannel@@_NAA_N2AAVSocketParams@@AAVLogBase@@2@Z 004d1368 f   ChilkatDbgDll:SshTransport.obj
 0001:000d0568       ?readChannelData@SshTransport@@QAE_NAAUSshChannel@@I_N11IAAVDataBuffer@@2AA_N3AAVSocketParams@@AAVLogBase@@31@Z 004d1568 f   ChilkatDbgDll:SshTransport.obj
 0001:000d0cbc       ?parseDisconnect@SshTransport@@CA_NAAVDataBuffer@@AAIAAVStringBuffer@@AAVLogBase@@@Z 004d1cbc f   ChilkatDbgDll:SshTransport.obj
 0001:000d0dd7       ?parseChannelOpenFailure@SshTransport@@CA_NAAVDataBuffer@@AAIAAVStringBuffer@@AAVLogBase@@@Z 004d1dd7 f   ChilkatDbgDll:SshTransport.obj
 0001:000d0f31       ?parseChannelOpenSuccess@SshTransport@@CA_NAAVDataBuffer@@AAUSshChannel@@AAVLogBase@@@Z 004d1f31 f   ChilkatDbgDll:SshTransport.obj
 0001:000d113d       ?isValidTtyMode@SshTransport@@SA_NAAVStringBuffer@@@Z 004d213d f   ChilkatDbgDll:SshTransport.obj
 0001:000d1197       ?encodeTerminalModes@SshTransport@@CAXAAVExtPtrArray@@AAVExtIntArray@@AAVDataBuffer@@@Z 004d2197 f   ChilkatDbgDll:SshTransport.obj
 0001:000d128a       ?sendReqSetEnv@SshTransport@@QAE_NAAUSshChannel@@AAVXString@@1AAVSocketParams@@AAVLogBase@@AA_N@Z 004d228a f   ChilkatDbgDll:SshTransport.obj
 0001:000d14f0       ?sendReqWindowAdjust@SshTransport@@QAE_NAAUSshChannel@@PAVProgressMonitor@@AAVLogBase@@@Z 004d24f0 f   ChilkatDbgDll:SshTransport.obj
 0001:000d161b       ?sendReqShell@SshTransport@@QAE_NAAUSshChannel@@AAVSocketParams@@AAVLogBase@@AA_N@Z 004d261b f   ChilkatDbgDll:SshTransport.obj
 0001:000d18d5       ?sendReqExec@SshTransport@@QAE_NAAUSshChannel@@AAVXString@@AAVSocketParams@@AAVLogBase@@AA_N@Z 004d28d5 f   ChilkatDbgDll:SshTransport.obj
 0001:000d1b3d       ?sendReqSubsystem@SshTransport@@QAE_NAAUSshChannel@@AAVXString@@AAVSocketParams@@AAVLogBase@@AA_N@Z 004d2b3d f   ChilkatDbgDll:SshTransport.obj
 0001:000d1d8f       ?sendReqSignal@SshTransport@@QAE_NJJAAVXString@@PAVProgressMonitor@@AAVLogBase@@@Z 004d2d8f f   ChilkatDbgDll:SshTransport.obj
 0001:000d1ec9       ?forcefulClose@SshTransport@@QAEXAAVLogBase@@@Z 004d2ec9 f   ChilkatDbgDll:SshTransport.obj
 0001:000d1f00       ?isConnected@SshTransport@@QAE_NAAVLogBase@@@Z 004d2f00 f   ChilkatDbgDll:SshTransport.obj
 0001:000d1f30       ?isInvalidSocket@SshTransport@@QAE_NXZ 004d2f30 f   ChilkatDbgDll:SshTransport.obj
 0001:000d1f5a       ?isBitvise@SshTransport@@QAE_NXZ 004d2f5a f   ChilkatDbgDll:SshTransport.obj
 0001:000d201c       ?isWeOnlyDo@SshTransport@@QAE_NXZ 004d301c f   ChilkatDbgDll:SshTransport.obj
 0001:000d20fe       ?logSocketOptions@SshTransport@@QAEXAAVLogBase@@@Z 004d30fe f   ChilkatDbgDll:SshTransport.obj
 0001:000d212e       ?setNoDelay@SshTransport@@QAEX_NAAVLogBase@@@Z 004d312e f   ChilkatDbgDll:SshTransport.obj
 0001:000d2162       ?setSoRcvBuf@SshTransport@@QAEXIAAVLogBase@@@Z 004d3162 f   ChilkatDbgDll:SshTransport.obj
 0001:000d2196       ?setSoSndBuf@SshTransport@@QAEXIAAVLogBase@@@Z 004d3196 f   ChilkatDbgDll:SshTransport.obj
 0001:000d21ca       ?channelSendData2@SshTransport@@QAE_NAAUSshChannel@@PBEIIAAVSocketParams@@AAVLogBase@@@Z 004d31ca f   ChilkatDbgDll:SshTransport.obj
 0001:000d2490       ?channelSendEof@SshTransport@@QAE_NJPAVProgressMonitor@@AAVLogBase@@@Z 004d3490 f   ChilkatDbgDll:SshTransport.obj
 0001:000d25cc       ?checkDataAvailable@SshTransport@@QAE_NAAVSocketParams@@AAVLogBase@@@Z 004d35cc f   ChilkatDbgDll:SshTransport.obj
 0001:000d2600       ?CheckWriteable@SshTransport@@QAEHIAAVLogBase@@AAVSocketParams@@@Z 004d3600 f   ChilkatDbgDll:SshTransport.obj
 0001:000d2638       ?closeChannel@SshTransport@@QAE_NAAUSshChannel@@AA_NAAVSocketParams@@AAVLogBase@@@Z 004d3638 f   ChilkatDbgDll:SshTransport.obj
 0001:000d272d       ?getUnderlyingSocketHandle@SshTransport@@QAEIXZ 004d372d f   ChilkatDbgDll:SshTransport.obj
 0001:000d2757       ?getUnderlyingChilkatSocket2@SshTransport@@QAEAAVChilkatSocket@@XZ 004d3757 f   ChilkatDbgDll:SshTransport.obj
 0001:000d2771       ?channelSendClose@SshTransport@@QAE_NAAUSshChannel@@PAVProgressMonitor@@AAVLogBase@@@Z 004d3771 f   ChilkatDbgDll:SshTransport.obj
 0001:000d28fd       ?sendReqWindowChange@SshTransport@@QAE_NJJJJJJPAVProgressMonitor@@AAVLogBase@@@Z 004d38fd f   ChilkatDbgDll:SshTransport.obj
 0001:000d2a63       ?sendDisconnect@SshTransport@@QAE_NPAVProgressMonitor@@AAVLogBase@@@Z 004d3a63 f   ChilkatDbgDll:SshTransport.obj
 0001:000d2b8a       ?sendReqX11Forwarding@SshTransport@@QAE_NAAUSshChannel@@_NAAVXString@@2JAAVSocketParams@@AAVLogBase@@AA_N@Z 004d3b8a f   ChilkatDbgDll:SshTransport.obj
 0001:000d2e11       ?sendReqPty@SshTransport@@QAE_NAAUSshChannel@@AAVXString@@JJJJAAVExtPtrArray@@AAVExtIntArray@@AAVSocketParams@@AAVLogBase@@AA_N@Z 004d3e11 f   ChilkatDbgDll:SshTransport.obj
 0001:000d3129       ?openChannel@SshTransport@@QAE_NAAUSshChannel@@AAHAAIAAVStringBuffer@@AAVSocketParams@@AAVLogBase@@AA_N@Z 004d4129 f   ChilkatDbgDll:SshTransport.obj
 0001:000d3608       ?waitForDataHB@SshTransport@@QAE_NIAAVSocketParams@@AAVLogBase@@@Z 004d4608 f   ChilkatDbgDll:SshTransport.obj
 0001:000d3640       ?waitWriteable@SshTransport@@QAE_NI_NAAVSocketParams@@AAVLogBase@@@Z 004d4640 f   ChilkatDbgDll:SshTransport.obj
 0001:000d3680       ??_ESshChannel@@UAEPAXI@Z  004d4680 f i ChilkatDbgDll:SshTransport.obj
 0001:000d3680       ??_GSshChannel@@UAEPAXI@Z  004d4680 f i ChilkatDbgDll:SshTransport.obj
 0001:000d36c0       ??1SshChannel@@UAE@XZ      004d46c0 f i ChilkatDbgDll:SshTransport.obj
 0001:000d3790       ??_GSshTransport@@UAEPAXI@Z 004d4790 f i ChilkatDbgDll:SshTransport.obj
 0001:000d3790       ??_ESshTransport@@UAEPAXI@Z 004d4790 f i ChilkatDbgDll:SshTransport.obj
 0001:000d37d0       ??1rsa_key@@QAE@XZ         004d47d0 f i ChilkatDbgDll:SshTransport.obj
 0001:000d3890       ?createNewObject@ExtIntArray@@SAPAV1@XZ 004d4890 f   ChilkatDbgDll:extintarray.obj
 0001:000d394b       ?getExtendSize@ExtIntArray@@QBEHXZ 004d494b f   ChilkatDbgDll:extintarray.obj
 0001:000d3963       ?setExtendSize@ExtIntArray@@QAEXH@Z 004d4963 f   ChilkatDbgDll:extintarray.obj
 0001:000d3980       ?getSize@ExtIntArray@@QBEHXZ 004d4980 f   ChilkatDbgDll:extintarray.obj
 0001:000d3998       ?getMemoryPtr_careful@ExtIntArray@@QAEPAHXZ 004d4998 f   ChilkatDbgDll:extintarray.obj
 0001:000d39b0       ?copyIntArray@ExtIntArray@@QAE_NABV1@@Z 004d49b0 f   ChilkatDbgDll:extintarray.obj
 0001:000d3ac9       ??0ExtIntArray@@QAE@XZ     004d4ac9 f   ChilkatDbgDll:extintarray.obj
 0001:000d3b0f       ?initAfterConstruct@ExtIntArray@@QAE_NHH@Z 004d4b0f f   ChilkatDbgDll:extintarray.obj
 0001:000d3bee       ??1ExtIntArray@@UAE@XZ     004d4bee f   ChilkatDbgDll:extintarray.obj
 0001:000d3c59       ?addToValue@ExtIntArray@@QAE_NHH@Z 004d4c59 f   ChilkatDbgDll:extintarray.obj
 0001:000d3cab       ?setAt@ExtIntArray@@QAE_NHH@Z 004d4cab f   ChilkatDbgDll:extintarray.obj
 0001:000d3cf1       ?elementAt@ExtIntArray@@QBEHH@Z 004d4cf1 f   ChilkatDbgDll:extintarray.obj
 0001:000d3d33       ?incrementSize2@ExtIntArray@@AAE_NXZ 004d4d33 f   ChilkatDbgDll:extintarray.obj
 0001:000d3f11       ?insertAt@ExtIntArray@@QAE_NHH@Z 004d4f11 f   ChilkatDbgDll:extintarray.obj
 0001:000d3fdd       ?clear@ExtIntArray@@QAEXXZ 004d4fdd f   ChilkatDbgDll:extintarray.obj
 0001:000d3ff9       ?findNext@ExtIntArray@@QAEHHH@Z 004d4ff9 f   ChilkatDbgDll:extintarray.obj
 0001:000d4069       ?deleteAt@ExtIntArray@@QAEXH@Z 004d5069 f   ChilkatDbgDll:extintarray.obj
 0001:000d4126       ?append@ExtIntArray@@QAE_NH@Z 004d5126 f   ChilkatDbgDll:extintarray.obj
 0001:000d419a       ?lastElement@ExtIntArray@@QBEHXZ 004d519a f   ChilkatDbgDll:extintarray.obj
 0001:000d41d6       ?pop@ExtIntArray@@QAEHXZ   004d51d6 f   ChilkatDbgDll:extintarray.obj
 0001:000d423d       ?peek@ExtIntArray@@QAEHXZ  004d523d f   ChilkatDbgDll:extintarray.obj
 0001:000d4288       ?numGreaterThan@ExtIntArray@@QAEHH@Z 004d5288 f   ChilkatDbgDll:extintarray.obj
 0001:000d42fc       ?firstOccurance@ExtIntArray@@QBEHH@Z 004d52fc f   ChilkatDbgDll:extintarray.obj
 0001:000d435f       ?removeVal@ExtIntArray@@QAEXH@Z 004d535f f   ChilkatDbgDll:extintarray.obj
 0001:000d43f1       ?copyTo@ExtIntArray@@QBEXPAH@Z 004d53f1 f   ChilkatDbgDll:extintarray.obj
 0001:000d4450       ??_EExtIntArray@@UAEPAXI@Z 004d5450 f i ChilkatDbgDll:extintarray.obj
 0001:000d4450       ??_GExtIntArray@@UAEPAXI@Z 004d5450 f i ChilkatDbgDll:extintarray.obj
 0001:000d4490       ??0mp_int@@QAE@ABV0@@Z     004d5490 f   ChilkatDbgDll:ChilkatMp.obj
 0001:000d4584       ??4mp_int@@QAEAAV0@ABV0@@Z 004d5584 f   ChilkatDbgDll:ChilkatMp.obj
 0001:000d46b8       ??0mp_int@@QAE@XZ          004d56b8 f   ChilkatDbgDll:ChilkatMp.obj
 0001:000d4736       ??0mp_int@@QAE@H@Z         004d5736 f   ChilkatDbgDll:ChilkatMp.obj
 0001:000d47d8       ?grow@mp_int@@QAEXH@Z      004d57d8 f   ChilkatDbgDll:ChilkatMp.obj
 0001:000d48bb       ??1mp_int@@UAE@XZ          004d58bb f   ChilkatDbgDll:ChilkatMp.obj
 0001:000d4953       ?dp_beware@mp_int@@QAEPAIXZ 004d5953 f   ChilkatDbgDll:ChilkatMp.obj
 0001:000d496b       ??0ChilkatMp@@QAE@XZ       004d596b f   ChilkatDbgDll:ChilkatMp.obj
 0001:000d4989       ??1ChilkatMp@@UAE@XZ       004d5989 f   ChilkatDbgDll:ChilkatMp.obj
 0001:000d49a4       ?bn_reverse@ChilkatMp@@SAXPAEH@Z 004d59a4 f   ChilkatDbgDll:ChilkatMp.obj
 0001:000d4a15       ?mp_zero@ChilkatMp@@SAXAAVmp_int@@@Z 004d5a15 f   ChilkatDbgDll:ChilkatMp.obj
 0001:000d4a87       ?mp_set@ChilkatMp@@SAXAAVmp_int@@I@Z 004d5a87 f   ChilkatDbgDll:ChilkatMp.obj
 0001:000d4ac8       ?mp_set_int@ChilkatMp@@SAHAAVmp_int@@I@Z 004d5ac8 f   ChilkatDbgDll:ChilkatMp.obj
 0001:000d4b7d       ?mp_get_int@ChilkatMp@@SAIAAVmp_int@@@Z 004d5b7d f   ChilkatDbgDll:ChilkatMp.obj
 0001:000d4c05       ?mp_copy@ChilkatMp@@SAHABVmp_int@@AAV2@@Z 004d5c05 f   ChilkatDbgDll:ChilkatMp.obj
 0001:000d4ced       ?mp_clamp@ChilkatMp@@SAXAAVmp_int@@@Z 004d5ced f   ChilkatDbgDll:ChilkatMp.obj
 0001:000d4d32       ?mp_exch@ChilkatMp@@SAXAAVmp_int@@0@Z 004d5d32 f   ChilkatDbgDll:ChilkatMp.obj
 0001:000d4dbb       ?mp_expt_d@ChilkatMp@@SAHAAVmp_int@@I0@Z 004d5dbb f   ChilkatDbgDll:ChilkatMp.obj
 0001:000d4ee5       ?mp_exptmod@ChilkatMp@@SAHAAVmp_int@@000@Z 004d5ee5 f   ChilkatDbgDll:ChilkatMp.obj
 0001:000d50f3       ?mp_exptmod_fast@ChilkatMp@@SAHAAVmp_int@@000H@Z 004d60f3 f   ChilkatDbgDll:ChilkatMp.obj
 0001:000d57dd       ?mp_div@ChilkatMp@@SAHABVmp_int@@0PAV2@1@Z 004d67dd f   ChilkatDbgDll:ChilkatMp.obj
 0001:000d6272       ?mp_div_2@ChilkatMp@@SAHAAVmp_int@@0@Z 004d7272 f   ChilkatDbgDll:ChilkatMp.obj
 0001:000d63b2       ?mp_div_2d@ChilkatMp@@SAHAAVmp_int@@H0PAV2@@Z 004d73b2 f   ChilkatDbgDll:ChilkatMp.obj
 0001:000d65bd       ?mp_div_3@ChilkatMp@@SAHAAVmp_int@@PAV2@PAI@Z 004d75bd f   ChilkatDbgDll:ChilkatMp.obj
 0001:000d677c       ?mp_div_d@ChilkatMp@@SAHAAVmp_int@@IPAV2@PAI@Z 004d777c f   ChilkatDbgDll:ChilkatMp.obj
 0001:000d6a1f       ?mp_info@ChilkatMp@@SAXABVmp_int@@AAHAAVStringBuffer@@@Z 004d7a1f f   ChilkatDbgDll:ChilkatMp.obj
 0001:000d6a78       ?mp_count_bits_1@ChilkatMp@@SAHABVmp_int@@@Z 004d7a78 f   ChilkatDbgDll:ChilkatMp.obj
 0001:000d6adb       ?mp_abs@ChilkatMp@@SAHAAVmp_int@@0@Z 004d7adb f   ChilkatDbgDll:ChilkatMp.obj
 0001:000d6b26       ?mp_add@ChilkatMp@@SAHABVmp_int@@0AAV2@@Z 004d7b26 f   ChilkatDbgDll:ChilkatMp.obj
 0001:000d6be5       ?mp_add_d@ChilkatMp@@SAHAAVmp_int@@I0@Z 004d7be5 f   ChilkatDbgDll:ChilkatMp.obj
 0001:000d6e07       ?mp_addmod@ChilkatMp@@SAHAAVmp_int@@000@Z 004d7e07 f   ChilkatDbgDll:ChilkatMp.obj
 0001:000d6ecc       ?mp_and@ChilkatMp@@SAHAAVmp_int@@00@Z 004d7ecc f   ChilkatDbgDll:ChilkatMp.obj
 0001:000d700c       ?mp_cmp@ChilkatMp@@SAHABVmp_int@@0@Z 004d800c f   ChilkatDbgDll:ChilkatMp.obj
 0001:000d7066       ?mp_cmp_d@ChilkatMp@@SAHABVmp_int@@I@Z 004d8066 f   ChilkatDbgDll:ChilkatMp.obj
 0001:000d70b1       ?mp_cmp_mag@ChilkatMp@@SAHABVmp_int@@0@Z 004d80b1 f   ChilkatDbgDll:ChilkatMp.obj
 0001:000d7178       ?mp_cnt_lsb@ChilkatMp@@SAHABVmp_int@@@Z 004d8178 f   ChilkatDbgDll:ChilkatMp.obj
 0001:000d7227       ?mp_2expt@ChilkatMp@@SAHAAVmp_int@@H@Z 004d8227 f   ChilkatDbgDll:ChilkatMp.obj
 0001:000d729c       ?mp_dr_is_modulus@ChilkatMp@@SAHAAVmp_int@@@Z 004d829c f   ChilkatDbgDll:ChilkatMp.obj
 0001:000d72f2       ?mp_dr_reduce@ChilkatMp@@SAHAAVmp_int@@0I@Z 004d82f2 f   ChilkatDbgDll:ChilkatMp.obj
 0001:000d746c       ?mp_dr_setup@ChilkatMp@@SAXAAVmp_int@@AAI@Z 004d846c f   ChilkatDbgDll:ChilkatMp.obj
 0001:000d748e       ?mp_exteuclid@ChilkatMp@@SAHAAVmp_int@@0000@Z 004d848e f   ChilkatDbgDll:ChilkatMp.obj
 0001:000d78e6       ?mp_fread@ChilkatMp@@SAHAAVmp_int@@HPAU_iobuf@@@Z 004d88e6 f   ChilkatDbgDll:ChilkatMp.obj
 0001:000d7a19       ?mp_fwrite@ChilkatMp@@SAHABVmp_int@@HPAU_iobuf@@@Z 004d8a19 f   ChilkatDbgDll:ChilkatMp.obj
 0001:000d7b78       ?mp_gcd@ChilkatMp@@SAHAAVmp_int@@00@Z 004d8b78 f   ChilkatDbgDll:ChilkatMp.obj
 0001:000d7f4d       ?mp_invmod@ChilkatMp@@SAHABVmp_int@@AAV2@1@Z 004d8f4d f   ChilkatDbgDll:ChilkatMp.obj
 0001:000d7fe0       ?mp_invmod_slow@ChilkatMp@@SAHABVmp_int@@AAV2@1@Z 004d8fe0 f   ChilkatDbgDll:ChilkatMp.obj
 0001:000d8704       ?mp_is_square@ChilkatMp@@SAHAAVmp_int@@PAH@Z 004d9704 f   ChilkatDbgDll:ChilkatMp.obj
 0001:000d8a0e       ?mp_jacobi@ChilkatMp@@SAHAAVmp_int@@0AAH@Z 004d9a0e f   ChilkatDbgDll:ChilkatMp.obj
 0001:000d8ce5       ?mp_karatsuba_mul@ChilkatMp@@SAHABVmp_int@@0AAV2@@Z 004d9ce5 f   ChilkatDbgDll:ChilkatMp.obj
 0001:000d962d       ?mp_karatsuba_sqr@ChilkatMp@@SAHAAVmp_int@@0@Z 004da62d f   ChilkatDbgDll:ChilkatMp.obj
 0001:000d9d23       ?mp_lcm@ChilkatMp@@SAHAAVmp_int@@00@Z 004dad23 f   ChilkatDbgDll:ChilkatMp.obj
 0001:000d9e59       ?mp_lshd@ChilkatMp@@SAHAAVmp_int@@H@Z 004dae59 f   ChilkatDbgDll:ChilkatMp.obj
 0001:000d9f69       ?mp_mod@ChilkatMp@@SAHABVmp_int@@0AAV2@@Z 004daf69 f   ChilkatDbgDll:ChilkatMp.obj
 0001:000da054       ?mp_mod_2d@ChilkatMp@@SAHABVmp_int@@HAAV2@@Z 004db054 f   ChilkatDbgDll:ChilkatMp.obj
 0001:000da17c       ?mp_mod_d@ChilkatMp@@SAHAAVmp_int@@IPAI@Z 004db17c f   ChilkatDbgDll:ChilkatMp.obj
 0001:000da19e       ?mp_mod_i@ChilkatMp@@SAIAAVmp_int@@I@Z 004db19e f   ChilkatDbgDll:ChilkatMp.obj
 0001:000da1d7       ?mp_montgomery_calc_normalization@ChilkatMp@@SAHAAVmp_int@@0@Z 004db1d7 f   ChilkatDbgDll:ChilkatMp.obj
 0001:000da2db       ?mp_montgomery_reduce@ChilkatMp@@SAHAAVmp_int@@0I@Z 004db2db f   ChilkatDbgDll:ChilkatMp.obj
 0001:000da4e5       ?mp_montgomery_setup@ChilkatMp@@SAHAAVmp_int@@PAI@Z 004db4e5 f   ChilkatDbgDll:ChilkatMp.obj
 0001:000da592       ?mp_mul@ChilkatMp@@SAHABVmp_int@@0AAV2@@Z 004db592 f   ChilkatDbgDll:ChilkatMp.obj
 0001:000da708       ?mp_mul_2@ChilkatMp@@SAHAAVmp_int@@0@Z 004db708 f   ChilkatDbgDll:ChilkatMp.obj
 0001:000da84c       ?mp_mul_2d@ChilkatMp@@SAHAAVmp_int@@H0@Z 004db84c f   ChilkatDbgDll:ChilkatMp.obj
 0001:000da9e2       ?mp_mul_d@ChilkatMp@@SAHAAVmp_int@@I0@Z 004db9e2 f   ChilkatDbgDll:ChilkatMp.obj
 0001:000dab43       ?mp_mulmod@ChilkatMp@@SAHABVmp_int@@00AAV2@@Z 004dbb43 f   ChilkatDbgDll:ChilkatMp.obj
 0001:000dac08       ?mp_n_root@ChilkatMp@@SAHAAVmp_int@@I0@Z 004dbc08 f   ChilkatDbgDll:ChilkatMp.obj
 0001:000db04a       ?mp_neg@ChilkatMp@@SAHAAVmp_int@@0@Z 004dc04a f   ChilkatDbgDll:ChilkatMp.obj
 0001:000db0ba       ?mp_or@ChilkatMp@@SAHAAVmp_int@@00@Z 004dc0ba f   ChilkatDbgDll:ChilkatMp.obj
 0001:000db1d3       ?mp_prime_fermat@ChilkatMp@@SAHAAVmp_int@@0PAH@Z 004dc1d3 f   ChilkatDbgDll:ChilkatMp.obj
 0001:000db2c8       ?mp_prime_is_divisible@ChilkatMp@@SAHAAVmp_int@@PAH@Z 004dc2c8 f   ChilkatDbgDll:ChilkatMp.obj
 0001:000db355       ?prime_is_prime@ChilkatMp@@SA_NAAVmp_int@@HAA_N@Z 004dc355 f   ChilkatDbgDll:ChilkatMp.obj
 0001:000db528       ?prime_millerRabin@ChilkatMp@@SA_NAAVmp_int@@HHAA_N@Z 004dc528 f   ChilkatDbgDll:ChilkatMp.obj
 0001:000db63f       ?prime_fermat@ChilkatMp@@SA_NAAVmp_int@@HHAA_N@Z 004dc63f f   ChilkatDbgDll:ChilkatMp.obj
 0001:000db756       ?mp_prime_miller_rabin@ChilkatMp@@SAHAAVmp_int@@0PAH@Z 004dc756 f   ChilkatDbgDll:ChilkatMp.obj
 0001:000db989       ?mp_prime_next_prime@ChilkatMp@@SAHAAVmp_int@@HH@Z 004dc989 f   ChilkatDbgDll:ChilkatMp.obj
 0001:000dbe63       ?mp_prime_rabin_miller_trials@ChilkatMp@@SAHH@Z 004dce63 f   ChilkatDbgDll:ChilkatMp.obj
 0001:000dbeee       ?mp_radix_size@ChilkatMp@@SAHABVmp_int@@HPAH@Z 004dceee f   ChilkatDbgDll:ChilkatMp.obj
 0001:000dc098       ?mp_rand@ChilkatMp@@SAHAAVmp_int@@H@Z 004dd098 f   ChilkatDbgDll:ChilkatMp.obj
 0001:000dc183       ?read_base64@ChilkatMp@@SA_NAAVmp_int@@PBD@Z 004dd183 f   ChilkatDbgDll:ChilkatMp.obj
 0001:000dc28e       ?read_radix@ChilkatMp@@SA_NAAVmp_int@@PBDH@Z 004dd28e f   ChilkatDbgDll:ChilkatMp.obj
 0001:000dc3f0       ?read_signed_bin_2@ChilkatMp@@SA_NAAVmp_int@@PBEH@Z 004dd3f0 f   ChilkatDbgDll:ChilkatMp.obj
 0001:000dc446       ?generateRandomUnsigned@ChilkatMp@@SAXAAVmp_int@@I@Z 004dd446 f   ChilkatDbgDll:ChilkatMp.obj
 0001:000dc4d6       ?read_unsigned_bin@ChilkatMp@@SA_NAAVmp_int@@PBEH@Z 004dd4d6 f   ChilkatDbgDll:ChilkatMp.obj
 0001:000dc58c       ?mp_reduce@ChilkatMp@@SAHAAVmp_int@@00@Z 004dd58c f   ChilkatDbgDll:ChilkatMp.obj
 0001:000dc79c       ?mp_reduce_2k@ChilkatMp@@SAHAAVmp_int@@0I@Z 004dd79c f   ChilkatDbgDll:ChilkatMp.obj
 0001:000dc8b7       ?mp_reduce_2k_l@ChilkatMp@@SAHAAVmp_int@@00@Z 004dd8b7 f   ChilkatDbgDll:ChilkatMp.obj
 0001:000dc9cc       ?mp_reduce_2k_setup@ChilkatMp@@SAHAAVmp_int@@PAI@Z 004dd9cc f   ChilkatDbgDll:ChilkatMp.obj
 0001:000dcabb       ?mp_reduce_2k_setup_l@ChilkatMp@@SAHAAVmp_int@@0@Z 004ddabb f   ChilkatDbgDll:ChilkatMp.obj
 0001:000dcb6a       ?mp_reduce_is_2k@ChilkatMp@@SAHAAVmp_int@@@Z 004ddb6a f   ChilkatDbgDll:ChilkatMp.obj
 0001:000dcc2e       ?mp_reduce_is_2k_l@ChilkatMp@@SAHAAVmp_int@@@Z 004ddc2e f   ChilkatDbgDll:ChilkatMp.obj
 0001:000dccc5       ?mp_reduce_setup@ChilkatMp@@SAHAAVmp_int@@0@Z 004ddcc5 f   ChilkatDbgDll:ChilkatMp.obj
 0001:000dcd1a       ?mp_rshd@ChilkatMp@@SAXAAVmp_int@@H@Z 004ddd1a f   ChilkatDbgDll:ChilkatMp.obj
 0001:000dcdfb       ?mp_signed_bin_size@ChilkatMp@@SAHAAVmp_int@@@Z 004dddfb f   ChilkatDbgDll:ChilkatMp.obj
 0001:000dce16       ?mp_sqr@ChilkatMp@@SAHAAVmp_int@@0@Z 004dde16 f   ChilkatDbgDll:ChilkatMp.obj
 0001:000dcec8       ?mp_sqrmod@ChilkatMp@@SAHAAVmp_int@@00@Z 004ddec8 f   ChilkatDbgDll:ChilkatMp.obj
 0001:000dcf89       ?mp_sqrt@ChilkatMp@@SAHAAVmp_int@@0@Z 004ddf89 f   ChilkatDbgDll:ChilkatMp.obj
 0001:000dd279       ?mp_sub@ChilkatMp@@SAHAAVmp_int@@00@Z 004de279 f   ChilkatDbgDll:ChilkatMp.obj
 0001:000dd33e       ?mp_to_signed_bin@ChilkatMp@@SAHAAVmp_int@@PAE@Z 004de33e f   ChilkatDbgDll:ChilkatMp.obj
 0001:000dd38b       ?mp_sub_d@ChilkatMp@@SAHAAVmp_int@@I0@Z 004de38b f   ChilkatDbgDll:ChilkatMp.obj
 0001:000dd597       ?mp_submod@ChilkatMp@@SAHAAVmp_int@@000@Z 004de597 f   ChilkatDbgDll:ChilkatMp.obj
 0001:000dd65c       ?mp_to_signed_bin_n@ChilkatMp@@SAHAAVmp_int@@PAEPAI@Z 004de65c f   ChilkatDbgDll:ChilkatMp.obj
 0001:000dd6a3       ?mp_to_unsigned_bin@ChilkatMp@@SAHABVmp_int@@PAE@Z 004de6a3 f   ChilkatDbgDll:ChilkatMp.obj
 0001:000dd79a       ?append_to_db@ChilkatMp@@SA_NABVmp_int@@AAVDataBuffer@@@Z 004de79a f   ChilkatDbgDll:ChilkatMp.obj
 0001:000dd926       ?mp_to_unsigned_bin_n@ChilkatMp@@SAHABVmp_int@@PAEPAI@Z 004de926 f   ChilkatDbgDll:ChilkatMp.obj
 0001:000dd96d       ?mp_toom_mul@ChilkatMp@@SAHABVmp_int@@0AAV2@@Z 004de96d f   ChilkatDbgDll:ChilkatMp.obj
 0001:000e1212       ?mp_toom_sqr@ChilkatMp@@SAHAAVmp_int@@0@Z 004e2212 f   ChilkatDbgDll:ChilkatMp.obj
 0001:000e32e5       ?to_base64@ChilkatMp@@SA_NABVmp_int@@HAAVStringBuffer@@_NAAVLogBase@@@Z 004e42e5 f   ChilkatDbgDll:ChilkatMp.obj
 0001:000e345f       ?mp_toradix@ChilkatMp@@SAHABVmp_int@@AAVStringBuffer@@H@Z 004e445f f   ChilkatDbgDll:ChilkatMp.obj
 0001:000e366b       ?mp_toradix_n@ChilkatMp@@SAHAAVmp_int@@PADHH@Z 004e466b f   ChilkatDbgDll:ChilkatMp.obj
 0001:000e3829       ?mp_unsigned_bin_size@ChilkatMp@@SAHABVmp_int@@@Z 004e4829 f   ChilkatDbgDll:ChilkatMp.obj
 0001:000e386b       ?mp_xor@ChilkatMp@@SAHAAVmp_int@@00@Z 004e486b f   ChilkatDbgDll:ChilkatMp.obj
 0001:000e3984       ?fast_mp_invmod@ChilkatMp@@SAHABVmp_int@@AAV2@1@Z 004e4984 f   ChilkatDbgDll:ChilkatMp.obj
 0001:000e443a       ?fast_mp_montgomery_reduce@ChilkatMp@@SAHAAVmp_int@@0I@Z 004e543a f   ChilkatDbgDll:ChilkatMp.obj
 0001:000e4806       ?fast_s_mp_mul_digs@ChilkatMp@@SAHABVmp_int@@0AAV2@H@Z 004e5806 f   ChilkatDbgDll:ChilkatMp.obj
 0001:000e4acd       ?fast_s_mp_mul_high_digs@ChilkatMp@@SAHAAVmp_int@@00H@Z 004e5acd f   ChilkatDbgDll:ChilkatMp.obj
 0001:000e4d85       ?fast_s_mp_sqr@ChilkatMp@@SAHAAVmp_int@@0@Z 004e5d85 f   ChilkatDbgDll:ChilkatMp.obj
 0001:000e50fc       ?s_mp_add@ChilkatMp@@SAHABVmp_int@@0AAV2@@Z 004e60fc f   ChilkatDbgDll:ChilkatMp.obj
 0001:000e52ce       ?s_mp_exptmod@ChilkatMp@@SAHAAVmp_int@@000H@Z 004e62ce f   ChilkatDbgDll:ChilkatMp.obj
 0001:000e5931       ?s_mp_mul_digs@ChilkatMp@@SAHABVmp_int@@0AAV2@H@Z 004e6931 f   ChilkatDbgDll:ChilkatMp.obj
 0001:000e5b33       ?s_mp_mul_high_digs@ChilkatMp@@SAHAAVmp_int@@00H@Z 004e6b33 f   ChilkatDbgDll:ChilkatMp.obj
 0001:000e5d3f       ?s_mp_sqr@ChilkatMp@@SAHAAVmp_int@@0@Z 004e6d3f f   ChilkatDbgDll:ChilkatMp.obj
 0001:000e5f7f       ?s_mp_sub@ChilkatMp@@SAHABVmp_int@@0AAV2@@Z 004e6f7f f   ChilkatDbgDll:ChilkatMp.obj
 0001:000e6100       ??_Emp_int@@UAEPAXI@Z      004e7100 f i ChilkatDbgDll:ChilkatMp.obj
 0001:000e6100       ??_Gmp_int@@UAEPAXI@Z      004e7100 f i ChilkatDbgDll:ChilkatMp.obj
 0001:000e6140       ??_EChilkatMp@@UAEPAXI@Z   004e7140 f i ChilkatDbgDll:ChilkatMp.obj
 0001:000e6140       ??_GChilkatMp@@UAEPAXI@Z   004e7140 f i ChilkatDbgDll:ChilkatMp.obj
 0001:000e6180       ??0SocketParams@@AAE@XZ    004e7180 f   ChilkatDbgDll:SocketParams.obj
 0001:000e61dc       ??0SocketParams@@QAE@PAVProgressMonitor@@@Z 004e71dc f   ChilkatDbgDll:SocketParams.obj
 0001:000e6239       ??1SocketParams@@UAE@XZ    004e7239 f   ChilkatDbgDll:SocketParams.obj
 0001:000e6292       ?hasNonTimeoutError@SocketParams@@QAE_NXZ 004e7292 f   ChilkatDbgDll:SocketParams.obj
 0001:000e62e4       ?hasAnyError@SocketParams@@QAE_NXZ 004e72e4 f   ChilkatDbgDll:SocketParams.obj
 0001:000e6342       ?hasOnlyTimeout@SocketParams@@QAE_NXZ 004e7342 f   ChilkatDbgDll:SocketParams.obj
 0001:000e63a0       ?initFlags@SocketParams@@QAEXXZ 004e73a0 f   ChilkatDbgDll:SocketParams.obj
 0001:000e63e6       ?spAbortCheck@SocketParams@@QAE_NXZ 004e73e6 f   ChilkatDbgDll:SocketParams.obj
 0001:000e642b       ?logSocketResults@SocketParams@@QAEXPBDAAVLogBase@@@Z 004e742b f   ChilkatDbgDll:SocketParams.obj
 0001:000e6550       ??_ESocketParams@@UAEPAXI@Z 004e7550 f i ChilkatDbgDll:SocketParams.obj
 0001:000e6550       ??_GSocketParams@@UAEPAXI@Z 004e7550 f i ChilkatDbgDll:SocketParams.obj
 0001:000e6590       ??0CK_Registry@@QAE@XZ     004e7590 f   ChilkatDbgDll:CK_Registry.obj
 0001:000e65ae       ??1CK_Registry@@UAE@XZ     004e75ae f   ChilkatDbgDll:CK_Registry.obj
 0001:000e65c9       ?GetIEProxySetting@CK_Registry@@SA_NPBDAAVStringBuffer@@AA_NAAVLogBase@@@Z 004e75c9 f   ChilkatDbgDll:CK_Registry.obj
 0001:000e67a3       ?locFromName@CK_Registry@@SA_NPBDAAVStringBuffer@@KAAVLogBase@@@Z 004e77a3 f   ChilkatDbgDll:CK_Registry.obj
 0001:000e694f       ?locFromCLSID@CK_Registry@@SA_NPBDAAVStringBuffer@@KAAVLogBase@@@Z 004e794f f   ChilkatDbgDll:CK_Registry.obj
 0001:000e6aa9       ?getCreateProductKey@CK_Registry@@CAPAUHKEY__@@PBD0KPAVLogBase@@@Z 004e7aa9 f   ChilkatDbgDll:CK_Registry.obj
 0001:000e6bb5       ?setProductInfo@CK_Registry@@SA_NPBD000KPAVLogBase@@@Z 004e7bb5 f   ChilkatDbgDll:CK_Registry.obj
 0001:000e6c38       ?removeProductInfo@CK_Registry@@SA_NPBD00KPAVLogBase@@@Z 004e7c38 f   ChilkatDbgDll:CK_Registry.obj
 0001:000e6cba       ?getProductInfo@CK_Registry@@SA_NPBD00AAVStringBuffer@@KPAVLogBase@@@Z 004e7cba f   ChilkatDbgDll:CK_Registry.obj
 0001:000e6da3       ?getProductInfoReadOnly@CK_Registry@@SA_NPBD00AAVStringBuffer@@PAVLogBase@@@Z 004e7da3 f   ChilkatDbgDll:CK_Registry.obj
 0001:000e6e9e       ?getAllProductInfoReadOnly@CK_Registry@@SA_NPBD0AAVExtPtrArray@@AAVLogBase@@@Z 004e7e9e f   ChilkatDbgDll:CK_Registry.obj
 0001:000e6f22       ?createCompanyKey@CK_Registry@@SAPAUHKEY__@@PBDKPAVLogBase@@@Z 004e7f22 f   ChilkatDbgDll:CK_Registry.obj
 0001:000e6fe9       ?closeKey@CK_Registry@@SAXPAUHKEY__@@@Z 004e7fe9 f   ChilkatDbgDll:CK_Registry.obj
 0001:000e702e       ?openKey@CK_Registry@@CAPAUHKEY__@@PAU2@PBD_NPAVLogBase@@@Z 004e802e f   ChilkatDbgDll:CK_Registry.obj
 0001:000e72ad       ?createKey@CK_Registry@@CAPAUHKEY__@@PAU2@PBD_NPAVLogBase@@@Z 004e82ad f   ChilkatDbgDll:CK_Registry.obj
 0001:000e75ac       ?createCurrentUserKey@CK_Registry@@SAPAUHKEY__@@PBDPAVLogBase@@@Z 004e85ac f   ChilkatDbgDll:CK_Registry.obj
 0001:000e75e2       ?createLocalMachineKey@CK_Registry@@SAPAUHKEY__@@PBDPAVLogBase@@@Z 004e85e2 f   ChilkatDbgDll:CK_Registry.obj
 0001:000e7618       ?openLocalMachineKey@CK_Registry@@SAPAUHKEY__@@PBD_NPAVLogBase@@@Z 004e8618 f   ChilkatDbgDll:CK_Registry.obj
 0001:000e763d       ?openClassesRootKey@CK_Registry@@SAPAUHKEY__@@PBD_NPAVLogBase@@@Z 004e863d f   ChilkatDbgDll:CK_Registry.obj
 0001:000e7662       ?openCurrentUserKey@CK_Registry@@SAPAUHKEY__@@PBD_NPAVLogBase@@@Z 004e8662 f   ChilkatDbgDll:CK_Registry.obj
 0001:000e7687       ?openCompanyKey@CK_Registry@@SAPAUHKEY__@@PBDPAVLogBase@@@Z 004e8687 f   ChilkatDbgDll:CK_Registry.obj
 0001:000e7799       ?createCompanySubKey@CK_Registry@@SAPAUHKEY__@@PAU2@PBDPAVLogBase@@@Z 004e8799 f   ChilkatDbgDll:CK_Registry.obj
 0001:000e7810       ?createSubKey@CK_Registry@@SAPAUHKEY__@@PAU2@PBDPAVLogBase@@@Z 004e8810 f   ChilkatDbgDll:CK_Registry.obj
 0001:000e7887       ?getAll@CK_Registry@@SA_NPAUHKEY__@@AAVExtPtrArray@@AAVLogBase@@@Z 004e8887 f   ChilkatDbgDll:CK_Registry.obj
 0001:000e7a68       ?openSubKey@CK_Registry@@SAPAUHKEY__@@PAU2@PBDPAVLogBase@@@Z 004e8a68 f   ChilkatDbgDll:CK_Registry.obj
 0001:000e7ae5       ?openCompanySubKey@CK_Registry@@SAPAUHKEY__@@PAU2@PBDPAVLogBase@@@Z 004e8ae5 f   ChilkatDbgDll:CK_Registry.obj
 0001:000e7b62       ?releaseKey@CK_Registry@@SAXPAUHKEY__@@@Z 004e8b62 f   ChilkatDbgDll:CK_Registry.obj
 0001:000e7b83       ?setValueAnsi@CK_Registry@@SAHPAUHKEY__@@PBD1PAVLogBase@@@Z 004e8b83 f   ChilkatDbgDll:CK_Registry.obj
 0001:000e7be1       ?setValueDwordAnsi@CK_Registry@@SAHPAUHKEY__@@PBDAAKPAVLogBase@@@Z 004e8be1 f   ChilkatDbgDll:CK_Registry.obj
 0001:000e7cd2       ?getValueSb@CK_Registry@@SA_NPAUHKEY__@@PBDAAVStringBuffer@@AAVLogBase@@@Z 004e8cd2 f   ChilkatDbgDll:CK_Registry.obj
 0001:000e7f4a       ?getCurrentUserValue@CK_Registry@@SA_NPBD0AAVStringBuffer@@PAVLogBase@@@Z 004e8f4a f   ChilkatDbgDll:CK_Registry.obj
 0001:000e80b5       ?setLocalMachineValue@CK_Registry@@SA_NPBD00PAVLogBase@@@Z 004e90b5 f   ChilkatDbgDll:CK_Registry.obj
 0001:000e813c       ?getActiveXDllPath@CK_Registry@@SA_NPBDAAVStringBuffer@@AAVLogBase@@@Z 004e913c f   ChilkatDbgDll:CK_Registry.obj
 0001:000e8174       ?getLocalMachineValue@CK_Registry@@SA_NPBD0AAVStringBuffer@@PAVLogBase@@@Z 004e9174 f   ChilkatDbgDll:CK_Registry.obj
 0001:000e8247       ?getSystemRegisteredUser@CK_Registry@@SA_NAAVStringBuffer@@PAVLogBase@@@Z 004e9247 f   ChilkatDbgDll:CK_Registry.obj
 0001:000e8362       ?getSystemRegisteredCompany@CK_Registry@@SA_NAAVStringBuffer@@PAVLogBase@@@Z 004e9362 f   ChilkatDbgDll:CK_Registry.obj
 0001:000e8480       ??_ECK_Registry@@UAEPAXI@Z 004e9480 f i ChilkatDbgDll:CK_Registry.obj
 0001:000e8480       ??_GCK_Registry@@UAEPAXI@Z 004e9480 f i ChilkatDbgDll:CK_Registry.obj
 0001:000e84c0       ??0_ckHash@@QAE@XZ         004e94c0 f   ChilkatDbgDll:Hash.obj
 0001:000e84de       ??1_ckHash@@UAE@XZ         004e94de f   ChilkatDbgDll:Hash.obj
 0001:000e84f9       ?hashId@_ckHash@@SAHPBD@Z  004e94f9 f   ChilkatDbgDll:Hash.obj
 0001:000e8795       ?hashName@_ckHash@@SAXHAAVStringBuffer@@@Z 004e9795 f   ChilkatDbgDll:Hash.obj
 0001:000e882c       ?getPkcs1Oid@_ckHash@@SA_NHAAVOid@@@Z 004e982c f   ChilkatDbgDll:Hash.obj
 0001:000e8a07       ?hashLen@_ckHash@@SAHH@Z   004e9a07 f   ChilkatDbgDll:Hash.obj
 0001:000e8a5f       ?oidToHashAlg@_ckHash@@SAHAAVStringBuffer@@@Z 004e9a5f f   ChilkatDbgDll:Hash.obj
 0001:000e8b21       ?doHash@_ckHash@@SAXPBEHHAAVDataBuffer@@@Z 004e9b21 f   ChilkatDbgDll:Hash.obj
 0001:000e8c8b       ?hashDataSource@_ckHash@@SA_NAAVDataSource@@HPAVDataBuffer@@AAV3@PAVProgressMonitor@@AAVLogBase@@@Z 004e9c8b f   ChilkatDbgDll:Hash.obj
 0001:000e9070       ??_G_ckHash@@UAEPAXI@Z     004ea070 f i ChilkatDbgDll:Hash.obj
 0001:000e9070       ??_E_ckHash@@UAEPAXI@Z     004ea070 f i ChilkatDbgDll:Hash.obj
 0001:000e90b0       ?GetCombinedSizesOfProcessHeaps@Heap@@SAIXZ 004ea0b0 f   ChilkatDbgDll:Heap.obj
 0001:000e90c1       ?ValidateAllHeaps@Heap@@SA_NXZ 004ea0c1 f   ChilkatDbgDll:Heap.obj
 0001:000e9174       ?ValidateHeap@Heap@@SA_NPAX@Z 004ea174 f   ChilkatDbgDll:Heap.obj
 0001:000e91a3       ?getCombinedSizesOfProcessHeaps@Heap@@CAIXZ 004ea1a3 f   ChilkatDbgDll:Heap.obj
 0001:000e9265       ?GetHeapSize@Heap@@SAIPAX@Z 004ea265 f   ChilkatDbgDll:Heap.obj
 0001:000e930c       ??0Heap@@QAE@XZ            004ea30c f   ChilkatDbgDll:Heap.obj
 0001:000e932a       ??1Heap@@UAE@XZ            004ea32a f   ChilkatDbgDll:Heap.obj
 0001:000e9350       ??_EHeap@@UAEPAXI@Z        004ea350 f i ChilkatDbgDll:Heap.obj
 0001:000e9350       ??_GHeap@@UAEPAXI@Z        004ea350 f i ChilkatDbgDll:Heap.obj
 0001:000e9390       ??1ZipCRC@@UAE@XZ          004ea390 f   ChilkatDbgDll:zipCRC.obj
 0001:000e93ab       ?initCrcTable@ZipCRC@@SAXXZ 004ea3ab f   ChilkatDbgDll:zipCRC.obj
 0001:000e951c       ??0ZipCRC@@QAE@XZ          004ea51c f   ChilkatDbgDll:zipCRC.obj
 0001:000e9549       ?beginStream@ZipCRC@@QAEXXZ 004ea549 f   ChilkatDbgDll:zipCRC.obj
 0001:000e9565       ?moreData@ZipCRC@@QAEXPBEI@Z 004ea565 f   ChilkatDbgDll:zipCRC.obj
 0001:000e98ce       ?endStream@ZipCRC@@QAEIXZ  004ea8ce f   ChilkatDbgDll:zipCRC.obj
 0001:000e98e9       ?cleanupMemory@ZipCRC@@SAXXZ 004ea8e9 f   ChilkatDbgDll:zipCRC.obj
 0001:000e993f       ?fileCRC@ZipCRC@@QAEIAAVXString@@@Z 004ea93f f   ChilkatDbgDll:zipCRC.obj
 0001:000e99c1       ?fileCRC@ZipCRC@@QAEIAAVXString@@PAVProgressMonitor@@AAVLogBase@@@Z 004ea9c1 f   ChilkatDbgDll:zipCRC.obj
 0001:000e9b62       ?getCRC@ZipCRC@@SAIPBEIPAG@Z 004eab62 f   ChilkatDbgDll:zipCRC.obj
 0001:000e9d50       ??_EZipCRC@@UAEPAXI@Z      004ead50 f i ChilkatDbgDll:zipCRC.obj
 0001:000e9d50       ??_GZipCRC@@UAEPAXI@Z      004ead50 f i ChilkatDbgDll:zipCRC.obj
 0001:000e9d90       ?reflect@ZipCRC@@CAIID@Z   004ead90 f i ChilkatDbgDll:zipCRC.obj
 0001:000e9e00       ?createSingleLevelDecodeTable@InflateState@@SAPAUHuffDecodeTbl@@PAHPAEHHHH@Z 004eae00 f   ChilkatDbgDll:InflateState.obj
 0001:000ea0e5       ?createHuffDecodeTable@InflateState@@SAPAUHuffDecodeTbl@@PAEH@Z 004eb0e5 f   ChilkatDbgDll:InflateState.obj
 0001:000ea34d       ?freeHuffDecodeTable@InflateState@@SAXPAPAUHuffDecodeTbl@@@Z 004eb34d f   ChilkatDbgDll:InflateState.obj
 0001:000ea418       ?deallocateFixedTables@InflateState@@SAXXZ 004eb418 f   ChilkatDbgDll:InflateState.obj
 0001:000ea43e       ??0InflateState@@QAE@XZ    004eb43e f   ChilkatDbgDll:InflateState.obj
 0001:000ea5da       ??1InflateState@@UAE@XZ    004eb5da f   ChilkatDbgDll:InflateState.obj
 0001:000ea69d       ?huffLookup@InflateState@@SAHPAIPAHPAUHuffDecodeTbl@@@Z 004eb69d f   ChilkatDbgDll:InflateState.obj
 0001:000ea75e       ?inflateSource@InflateState@@QAE_NAAVDataSource@@IAAVOutput@@PAVProgressMonitor@@AAVLogBase@@@Z 004eb75e f   ChilkatDbgDll:InflateState.obj
 0001:000ea9ca       ?inflateBlock@InflateState@@QAE_NPBEHAAHAAVOutput@@PAVProgressMonitor@@AAVLogBase@@@Z 004eb9ca f   ChilkatDbgDll:InflateState.obj
 0001:000eb9d0       ??_EInflateState@@UAEPAXI@Z 004ec9d0 f i ChilkatDbgDll:InflateState.obj
 0001:000eb9d0       ??_GInflateState@@UAEPAXI@Z 004ec9d0 f i ChilkatDbgDll:InflateState.obj
 0001:000eba10       ??0TrustedRoots@@QAE@XZ    004eca10 f   ChilkatDbgDll:TrustedRoots.obj
 0001:000eba2e       ??1TrustedRoots@@UAE@XZ    004eca2e f   ChilkatDbgDll:TrustedRoots.obj
 0001:000eba49       ?checkInitialize@TrustedRoots@@SAXXZ 004eca49 f   ChilkatDbgDll:TrustedRoots.obj
 0001:000ebacf       ?isTrustedRoot@TrustedRoots@@SA_NPBDAAVDataBuffer@@AA_NAAVLogBase@@@Z 004ecacf f   ChilkatDbgDll:TrustedRoots.obj
 0001:000ebc6d       ?setTrustedRoots@TrustedRoots@@SA_NAAVExtPtrArray@@AAVLogBase@@@Z 004ecc6d f   ChilkatDbgDll:TrustedRoots.obj
 0001:000ebdab       ?cleanupMemory@TrustedRoots@@SAXXZ 004ecdab f   ChilkatDbgDll:TrustedRoots.obj
 0001:000ebeda       ??0SysTrustedRoots@@QAE@XZ 004eceda f   ChilkatDbgDll:TrustedRoots.obj
 0001:000ebef8       ??1SysTrustedRoots@@UAE@XZ 004ecef8 f   ChilkatDbgDll:TrustedRoots.obj
 0001:000ebf13       ?checkInitialize@SysTrustedRoots@@SAXXZ 004ecf13 f   ChilkatDbgDll:TrustedRoots.obj
 0001:000ebf99       ?getTrustedRootDer@SysTrustedRoots@@SA_NPBDAAVDataBuffer@@AAVLogBase@@@Z 004ecf99 f   ChilkatDbgDll:TrustedRoots.obj
 0001:000ec105       ?setTrustedRoots@SysTrustedRoots@@SA_NAAVExtPtrArray@@AAVLogBase@@@Z 004ed105 f   ChilkatDbgDll:TrustedRoots.obj
 0001:000ec24a       ?cleanupMemory@SysTrustedRoots@@SAXXZ 004ed24a f   ChilkatDbgDll:TrustedRoots.obj
 0001:000ec380       ??_ETrustedRoots@@UAEPAXI@Z 004ed380 f i ChilkatDbgDll:TrustedRoots.obj
 0001:000ec380       ??_GTrustedRoots@@UAEPAXI@Z 004ed380 f i ChilkatDbgDll:TrustedRoots.obj
 0001:000ec3c0       ??_ESysTrustedRoots@@UAEPAXI@Z 004ed3c0 f i ChilkatDbgDll:TrustedRoots.obj
 0001:000ec3c0       ??_GSysTrustedRoots@@UAEPAXI@Z 004ed3c0 f i ChilkatDbgDll:TrustedRoots.obj
 0001:000ec400       ??0DnsCache@@QAE@XZ        004ed400 f   ChilkatDbgDll:DnsCache.obj
 0001:000ec41e       ??1DnsCache@@UAE@XZ        004ed41e f   ChilkatDbgDll:DnsCache.obj
 0001:000ec439       ?checkInitialize@DnsCache@@SAXXZ 004ed439 f   ChilkatDbgDll:DnsCache.obj
 0001:000ec4a2       ?dnsCacheClear@DnsCache@@SAXXZ 004ed4a2 f   ChilkatDbgDll:DnsCache.obj
 0001:000ec4ba       ?dnsCacheInsert@DnsCache@@SAXPBD0@Z 004ed4ba f   ChilkatDbgDll:DnsCache.obj
 0001:000ec5d9       ?cleanupMemory@DnsCache@@SAXXZ 004ed5d9 f   ChilkatDbgDll:DnsCache.obj
 0001:000ec710       ??_GDnsCache@@UAEPAXI@Z    004ed710 f i ChilkatDbgDll:DnsCache.obj
 0001:000ec710       ??_EDnsCache@@UAEPAXI@Z    004ed710 f i ChilkatDbgDll:DnsCache.obj
 0001:000ec750       ?delete2@ClsCache@@AAEXHAAVStringBuffer@@AAVChilkatSysTime@@AAHAAVLogBase@@@Z 004ed750 f   ChilkatDbgDll:ClsCache.obj
 0001:000ecae4       ?deleteInDir@ClsCache@@AAEXHPBDAAVChilkatSysTime@@AAHAAVLogBase@@@Z 004edae4 f   ChilkatDbgDll:ClsCache.obj
 0001:000eceac       ?lockCacheFile@ClsCache@@CA_NPBDAAVLogBase@@@Z 004edeac f   ChilkatDbgDll:ClsCache.obj
 0001:000ed0a8       ?saveToCache@ClsCache@@AAE_NAAVXString@@AAVChilkatSysTime@@0AAVDataBuffer@@AAVLogBase@@@Z 004ee0a8 f   ChilkatDbgDll:ClsCache.obj
 0001:000ed590       ?unlockCacheFile@ClsCache@@CA_NPBDAAVLogBase@@@Z 004ee590 f   ChilkatDbgDll:ClsCache.obj
 0001:000ed621       ?get_LastKeyFetched@ClsCache@@QAE_NAAVXString@@@Z 004ee621 f   ChilkatDbgDll:ClsCache.obj
 0001:000ed6fa       ?get_LastExpirationFetched@ClsCache@@QAE_NAAVChilkatSysTime@@@Z 004ee6fa f   ChilkatDbgDll:ClsCache.obj
 0001:000ed805       ?get_LastEtagFetched@ClsCache@@QAE_NAAVXString@@@Z 004ee805 f   ChilkatDbgDll:ClsCache.obj
 0001:000ed8de       ?get_LastEtagFetchedSb@ClsCache@@QAE_NAAVStringBuffer@@@Z 004ee8de f   ChilkatDbgDll:ClsCache.obj
 0001:000ed9b2       ?get_Compression@ClsCache@@QBE_NXZ 004ee9b2 f   ChilkatDbgDll:ClsCache.obj
 0001:000ed9cd       ?put_Compression@ClsCache@@QAEX_N@Z 004ee9cd f   ChilkatDbgDll:ClsCache.obj
 0001:000eda2f       ?get_Encryption@ClsCache@@QBE_NXZ 004eea2f f   ChilkatDbgDll:ClsCache.obj
 0001:000eda4a       ?put_Encryption@ClsCache@@QAEX_N@Z 004eea4a f   ChilkatDbgDll:ClsCache.obj
 0001:000edaac       ?put_Password@ClsCache@@QAEXAAVXString@@@Z 004eeaac f   ChilkatDbgDll:ClsCache.obj
 0001:000edb50       ?get_Password@ClsCache@@QAEXAAVXString@@@Z 004eeb50 f   ChilkatDbgDll:ClsCache.obj
 0001:000edbf4       ?ClearRoots@ClsCache@@QAEXXZ 004eebf4 f   ChilkatDbgDll:ClsCache.obj
 0001:000edcaa       ??0ClsCache@@AAE@ABV0@@Z   004eecaa f   ChilkatDbgDll:ClsCache.obj
 0001:000edd70       ??4ClsCache@@AAEAAV0@ABV0@@Z 004eed70 f   ChilkatDbgDll:ClsCache.obj
 0001:000edd87       ?CopyFrom@ClsCache@@QAE_NABV1@@Z 004eed87 f   ChilkatDbgDll:ClsCache.obj
 0001:000edef6       ?checkInitialize@ClsCache@@CAXXZ 004eeef6 f   ChilkatDbgDll:ClsCache.obj
 0001:000edf51       ?cleanupMemory@ClsCache@@SAXXZ 004eef51 f   ChilkatDbgDll:ClsCache.obj
 0001:000ee037       ?createNewCls@ClsCache@@SAPAV1@XZ 004ef037 f   ChilkatDbgDll:ClsCache.obj
 0001:000ee0f5       ??0ClsCache@@QAE@XZ        004ef0f5 f   ChilkatDbgDll:ClsCache.obj
 0001:000ee1e4       ??1ClsCache@@UAE@XZ        004ef1e4 f   ChilkatDbgDll:ClsCache.obj
 0001:000ee2d5       ?put_Level@ClsCache@@QAEXH@Z 004ef2d5 f   ChilkatDbgDll:ClsCache.obj
 0001:000ee351       ?get_Level@ClsCache@@QBEHXZ 004ef351 f   ChilkatDbgDll:ClsCache.obj
 0001:000ee36c       ?get_NumRoots@ClsCache@@QAEHXZ 004ef36c f   ChilkatDbgDll:ClsCache.obj
 0001:000ee40d       ?GetRoot@ClsCache@@QAE_NHAAVXString@@@Z 004ef40d f   ChilkatDbgDll:ClsCache.obj
 0001:000ee55c       ?AddRoot@ClsCache@@QAEXAAVXString@@@Z 004ef55c f   ChilkatDbgDll:ClsCache.obj
 0001:000ee7b2       ?getFilenameUtf8_noLog@ClsCache@@QAE_NPBDAAVXString@@@Z 004ef7b2 f   ChilkatDbgDll:ClsCache.obj
 0001:000ee836       ?getFilenameUtf8@ClsCache@@QAE_NPBDAAVXString@@AAVLogBase@@@Z 004ef836 f   ChilkatDbgDll:ClsCache.obj
 0001:000eebf4       ?GetFilename@ClsCache@@QAE_NAAVXString@@0@Z 004efbf4 f   ChilkatDbgDll:ClsCache.obj
 0001:000eecd4       ?SaveText@ClsCache@@QAE_NAAVXString@@AAVChilkatSysTime@@00@Z 004efcd4 f   ChilkatDbgDll:ClsCache.obj
 0001:000eeddc       ?SaveToCache@ClsCache@@QAE_NAAVXString@@AAVChilkatSysTime@@0AAVDataBuffer@@@Z 004efddc f   ChilkatDbgDll:ClsCache.obj
 0001:000eeeb7       ?saveToCache2@ClsCache@@QAE_NAAVXString@@AAVChilkatSysTime@@0AAVDataBuffer@@AAVLogBase@@@Z 004efeb7 f   ChilkatDbgDll:ClsCache.obj
 0001:000eef9d       ?saveToCacheNoExpireSb@ClsCache@@QAE_NAAVXString@@ABVStringBuffer@@AAVLogBase@@@Z 004eff9d f   ChilkatDbgDll:ClsCache.obj
 0001:000ef02c       ?saveToCacheNoExpire2@ClsCache@@QAE_NAAVXString@@AAVDataBuffer@@AAVLogBase@@@Z 004f002c f   ChilkatDbgDll:ClsCache.obj
 0001:000ef164       ?SaveToCacheNoExpire@ClsCache@@QAE_NAAVXString@@0AAVDataBuffer@@@Z 004f0164 f   ChilkatDbgDll:ClsCache.obj
 0001:000ef243       ?SaveTextNoExpire@ClsCache@@QAE_NAAVXString@@00@Z 004f0243 f   ChilkatDbgDll:ClsCache.obj
 0001:000ef35b       ?IsCached@ClsCache@@QAE_NAAVXString@@@Z 004f035b f   ChilkatDbgDll:ClsCache.obj
 0001:000ef38a       ?isCachedUtf8@ClsCache@@QAE_NPBD@Z 004f038a f   ChilkatDbgDll:ClsCache.obj
 0001:000ef52b       ?fetchFromCache@ClsCache@@QAE_NPBDAAVDataBuffer@@AAVLogBase@@@Z 004f052b f   ChilkatDbgDll:ClsCache.obj
 0001:000efaa7       ?get_LastHitExpired@ClsCache@@QAE_NXZ 004f0aa7 f   ChilkatDbgDll:ClsCache.obj
 0001:000efbfd       ?FetchFromCache@ClsCache@@QAE_NAAVXString@@AAVDataBuffer@@@Z 004f0bfd f   ChilkatDbgDll:ClsCache.obj
 0001:000efd51       ?FetchText@ClsCache@@QAE_NAAVXString@@0@Z 004f0d51 f   ChilkatDbgDll:ClsCache.obj
 0001:000efea7       ?fetchText@ClsCache@@QAE_NAAVXString@@0AAVLogBase@@@Z 004f0ea7 f   ChilkatDbgDll:ClsCache.obj
 0001:000effff       ?DeleteFromCache@ClsCache@@QAE_NAAVXString@@@Z 004f0fff f   ChilkatDbgDll:ClsCache.obj
 0001:000f0352       ?DeleteAllExpired@ClsCache@@QAEHXZ 004f1352 f   ChilkatDbgDll:ClsCache.obj
 0001:000f048d       ?GetExpirationDt@ClsCache@@QAEPAVClsDateTime@@AAVXString@@@Z 004f148d f   ChilkatDbgDll:ClsCache.obj
 0001:000f0513       ?SaveToCacheDt@ClsCache@@QAE_NAAVXString@@AAVClsDateTime@@0AAVDataBuffer@@@Z 004f1513 f   ChilkatDbgDll:ClsCache.obj
 0001:000f054e       ?UpdateExpirationDt@ClsCache@@QAE_NAAVXString@@AAVClsDateTime@@@Z 004f154e f   ChilkatDbgDll:ClsCache.obj
 0001:000f0581       ?SaveTextDt@ClsCache@@QAE_NAAVXString@@AAVClsDateTime@@00@Z 004f1581 f   ChilkatDbgDll:ClsCache.obj
 0001:000f05bc       ?DeleteOlderDt@ClsCache@@QAEHAAVClsDateTime@@@Z 004f15bc f   ChilkatDbgDll:ClsCache.obj
 0001:000f05eb       ?DeleteOlder@ClsCache@@QAEHAAVChilkatSysTime@@@Z 004f15eb f   ChilkatDbgDll:ClsCache.obj
 0001:000f06ba       ?DeleteAll@ClsCache@@QAEHXZ 004f16ba f   ChilkatDbgDll:ClsCache.obj
 0001:000f07f5       ?UpdateExpiration@ClsCache@@QAE_NAAVXString@@AAVChilkatSysTime@@@Z 004f17f5 f   ChilkatDbgDll:ClsCache.obj
 0001:000f08cd       ?updateExpiration@ClsCache@@QAE_NPBDAAVChilkatSysTime@@AAVLogBase@@@Z 004f18cd f   ChilkatDbgDll:ClsCache.obj
 0001:000f0df0       ?GetEtag@ClsCache@@QAE_NAAVXString@@0@Z 004f1df0 f   ChilkatDbgDll:ClsCache.obj
 0001:000f12b6       ?GetExpiration@ClsCache@@QAE_NAAVXString@@AAVChilkatSysTime@@@Z 004f22b6 f   ChilkatDbgDll:ClsCache.obj
 0001:000f1395       ?getExpiration@ClsCache@@QAE_NAAVXString@@AAVChilkatSysTime@@AAVLogBase@@@Z 004f2395 f   ChilkatDbgDll:ClsCache.obj
 0001:000f1727       ?get_LastExpirationFetchedStr@ClsCache@@QAEXAAVXString@@@Z 004f2727 f   ChilkatDbgDll:ClsCache.obj
 0001:000f184d       ?DeleteOlderStr@ClsCache@@QAEHAAVXString@@@Z 004f284d f   ChilkatDbgDll:ClsCache.obj
 0001:000f194e       ?deleteOlder@ClsCache@@QAEHAAVChilkatSysTime@@AAVLogBase@@@Z 004f294e f   ChilkatDbgDll:ClsCache.obj
 0001:000f1a29       ?GetExpirationStr@ClsCache@@QAE_NAAVXString@@0@Z 004f2a29 f   ChilkatDbgDll:ClsCache.obj
 0001:000f1b2d       ?SaveToCacheStr@ClsCache@@QAE_NAAVXString@@00AAVDataBuffer@@@Z 004f2b2d f   ChilkatDbgDll:ClsCache.obj
 0001:000f1c3f       ?UpdateExpirationStr@ClsCache@@QAE_NAAVXString@@0@Z 004f2c3f f   ChilkatDbgDll:ClsCache.obj
 0001:000f1d4e       ?SaveTextStr@ClsCache@@QAE_NAAVXString@@000@Z 004f2d4e f   ChilkatDbgDll:ClsCache.obj
 0001:000f1ea0       ??_GClsCache@@UAEPAXI@Z    004f2ea0 f i ChilkatDbgDll:ClsCache.obj
 0001:000f1ea0       ??_EClsCache@@UAEPAXI@Z    004f2ea0 f i ChilkatDbgDll:ClsCache.obj
 0001:000f1ee0       ??_EClsCache@@W7AEPAXI@Z   004f2ee0 f i ChilkatDbgDll:ClsCache.obj
 0001:000f1ef0       ??_EClsCache@@WHA@AEPAXI@Z 004f2ef0 f i ChilkatDbgDll:ClsCache.obj
 0001:000f1f00       ?put_DebugLogFilePath@Logger@@QAEXAAVXString@@@Z 004f2f00 f   ChilkatDbgDll:Logger.obj
 0001:000f2011       ?get_DebugLogFilePath@Logger@@QAEXAAVXString@@@Z 004f3011 f   ChilkatDbgDll:Logger.obj
 0001:000f20b6       ??0Logger@@QAE@XZ          004f30b6 f   ChilkatDbgDll:Logger.obj
 0001:000f214b       ??1Logger@@UAE@XZ          004f314b f   ChilkatDbgDll:Logger.obj
 0001:000f223c       ?SaveXML@Logger@@UAE_N_NPBD@Z 004f323c f   ChilkatDbgDll:Logger.obj
 0001:000f2347       ?getXml@Logger@@UAEXAAVStringBuffer@@@Z 004f3347 f   ChilkatDbgDll:Logger.obj
 0001:000f23e1       ?getHtml@Logger@@UAEXAAVStringBuffer@@@Z 004f33e1 f   ChilkatDbgDll:Logger.obj
 0001:000f247b       ?getText@Logger@@UAEXAAVStringBuffer@@@Z 004f347b f   ChilkatDbgDll:Logger.obj
 0001:000f2515       ?LogError@Logger@@UAE_NPBD@Z 004f3515 f   ChilkatDbgDll:Logger.obj
 0001:000f268d       ?LogInfo@Logger@@UAE_NPBD@Z 004f368d f   ChilkatDbgDll:Logger.obj
 0001:000f2805       ?ClearLog@Logger@@UAE_NXZ  004f3805 f   ChilkatDbgDll:Logger.obj
 0001:000f28a5       ?EnterContext@Logger@@UAE_NPBD_N@Z 004f38a5 f   ChilkatDbgDll:Logger.obj
 0001:000f2a33       ?LeaveContext@Logger@@UAE_NXZ 004f3a33 f   ChilkatDbgDll:Logger.obj
 0001:000f2bc3       ?LogData@Logger@@UAE_NPBD0@Z 004f3bc3 f   ChilkatDbgDll:Logger.obj
 0001:000f2df1       ?LogXml@Logger@@UAE_NPBD@Z 004f3df1 f   ChilkatDbgDll:Logger.obj
 0001:000f2e90       ??_ELogger@@UAEPAXI@Z      004f3e90 f i ChilkatDbgDll:Logger.obj
 0001:000f2e90       ??_GLogger@@UAEPAXI@Z      004f3e90 f i ChilkatDbgDll:Logger.obj
 0001:000f2ed0       ??_ELogger@@WM@AEPAXI@Z    004f3ed0 f i ChilkatDbgDll:Logger.obj
 0001:000f2ee0       ??0_ckStringTable@@QAE@XZ  004f3ee0 f   ChilkatDbgDll:StringTable.obj
 0001:000f2f6a       ??1_ckStringTable@@UAE@XZ  004f3f6a f   ChilkatDbgDll:StringTable.obj
 0001:000f2fe7       ?createNewObject@_ckStringTable@@SAPAV1@XZ 004f3fe7 f   ChilkatDbgDll:StringTable.obj
 0001:000f30a5       ?loadFromFile@_ckStringTable@@QAE_NAAVXString@@@Z 004f40a5 f   ChilkatDbgDll:StringTable.obj
 0001:000f323e       ?numStrings@_ckStringTable@@QBEIXZ 004f423e f   ChilkatDbgDll:StringTable.obj
 0001:000f3256       ?preAllocate@_ckStringTable@@QAEXII@Z 004f4256 f   ChilkatDbgDll:StringTable.obj
 0001:000f32a7       ?appendToTable@_ckStringTable@@QAEXABVStringBuffer@@@Z 004f42a7 f   ChilkatDbgDll:StringTable.obj
 0001:000f3341       ?findSubstring@_ckStringTable@@QAE_NABVStringBuffer@@_NAAV2@@Z 004f4341 f   ChilkatDbgDll:StringTable.obj
 0001:000f34e0       ?getString@_ckStringTable@@QAE_NIAAVStringBuffer@@@Z 004f44e0 f   ChilkatDbgDll:StringTable.obj
 0001:000f3574       ?getStringPtrN@_ckStringTable@@QAEPBDIAAI@Z 004f4574 f   ChilkatDbgDll:StringTable.obj
 0001:000f35f6       ?saveToFile@_ckStringTable@@QAE_NAAVXString@@@Z 004f45f6 f   ChilkatDbgDll:StringTable.obj
 0001:000f374b       ?splitToTable@_ckStringTable@@QAEXPBDD_N1@Z 004f474b f   ChilkatDbgDll:StringTable.obj
 0001:000f3ad0       ??_E_ckStringTable@@UAEPAXI@Z 004f4ad0 f i ChilkatDbgDll:StringTable.obj
 0001:000f3ad0       ??_G_ckStringTable@@UAEPAXI@Z 004f4ad0 f i ChilkatDbgDll:StringTable.obj
 0001:000f3b10       ?createNewObject@AttributeSet@@SAPAV1@XZ 004f4b10 f   ChilkatDbgDll:AttributeSet.obj
 0001:000f3bcb       ??0AttributeSet@@QAE@XZ    004f4bcb f   ChilkatDbgDll:AttributeSet.obj
 0001:000f3bfd       ?setPreventDuplicates@AttributeSet@@SAX_N@Z 004f4bfd f   ChilkatDbgDll:AttributeSet.obj
 0001:000f3c0a       ?setLowercaseNames@AttributeSet@@SAX_N@Z 004f4c0a f   ChilkatDbgDll:AttributeSet.obj
 0001:000f3c17       ?appendAttrValue@AttributeSet@@AAEXAAVStringBuffer@@PBDH@Z 004f4c17 f   ChilkatDbgDll:AttributeSet.obj
 0001:000f4106       ??1AttributeSet@@UAE@XZ    004f5106 f   ChilkatDbgDll:AttributeSet.obj
 0001:000f41d4       ?getAttributeName@AttributeSet@@QBEXHAAVStringBuffer@@@Z 004f51d4 f   ChilkatDbgDll:AttributeSet.obj
 0001:000f42ab       ?getAttributeValue@AttributeSet@@QBE_NHAAVStringBuffer@@@Z 004f52ab f   ChilkatDbgDll:AttributeSet.obj
 0001:000f43a6       ?getAttributeValue@AttributeSet@@QBE_NPBDAAVStringBuffer@@@Z 004f53a6 f   ChilkatDbgDll:AttributeSet.obj
 0001:000f4501       ?hasAttribute@AttributeSet@@QAE_NPBD@Z 004f5501 f   ChilkatDbgDll:AttributeSet.obj
 0001:000f460c       ?hasAttrWithValue@AttributeSet@@QAE_NPBD0@Z 004f560c f   ChilkatDbgDll:AttributeSet.obj
 0001:000f47b9       ?hasMatchingAttribute@AttributeSet@@QAE_NPBD0@Z 004f57b9 f   ChilkatDbgDll:AttributeSet.obj
 0001:000f4a8c       ?numAttributes@AttributeSet@@QAEHXZ 004f5a8c f   ChilkatDbgDll:AttributeSet.obj
 0001:000f4ac5       ?getSize@AttributeSet@@QAEHXZ 004f5ac5 f   ChilkatDbgDll:AttributeSet.obj
 0001:000f4afe       ?appendXml@AttributeSet@@QAEXAAVStringBuffer@@@Z 004f5afe f   ChilkatDbgDll:AttributeSet.obj
 0001:000f4c16       ?clear@AttributeSet@@QAEXXZ 004f5c16 f   ChilkatDbgDll:AttributeSet.obj
 0001:000f4cdb       ?getAttribute@AttributeSet@@QAE_NHAAVStringBuffer@@0@Z 004f5cdb f   ChilkatDbgDll:AttributeSet.obj
 0001:000f4df2       ?addAttributeSb@AttributeSet@@QAE_NAAVStringBuffer@@PBDI@Z 004f5df2 f   ChilkatDbgDll:AttributeSet.obj
 0001:000f4f2e       ?addAttribute2@AttributeSet@@QAE_NPBDI0I@Z 004f5f2e f   ChilkatDbgDll:AttributeSet.obj
 0001:000f5118       ?removeAttribute@AttributeSet@@QAEXPBD@Z 004f6118 f   ChilkatDbgDll:AttributeSet.obj
 0001:000f516e       ?removeAttributeInner@AttributeSet@@AAE_NPBD@Z 004f616e f   ChilkatDbgDll:AttributeSet.obj
 0001:000f52e0       ??_GAttributeSet@@UAEPAXI@Z 004f62e0 f i ChilkatDbgDll:AttributeSet.obj
 0001:000f52e0       ??_EAttributeSet@@UAEPAXI@Z 004f62e0 f i ChilkatDbgDll:AttributeSet.obj
 0001:000f5320       ?dropEncoder@Output@@QAEXXZ 004f6320 f   ChilkatDbgDll:Output.obj
 0001:000f533c       ?setEncoder@Output@@QAEXPAVDataTransform@@@Z 004f633c f   ChilkatDbgDll:Output.obj
 0001:000f53bb       ??0Output@@QAE@XZ          004f63bb f   ChilkatDbgDll:Output.obj
 0001:000f5460       ??1Output@@UAE@XZ          004f6460 f   ChilkatDbgDll:Output.obj
 0001:000f551f       ?resetOutput@Output@@UAE_NAAVLogBase@@@Z 004f651f f   ChilkatDbgDll:Output.obj
 0001:000f5535       ?seekToEnd@Output@@UAE_NAAVLogBase@@@Z 004f6535 f   ChilkatDbgDll:Output.obj
 0001:000f554b       ?rtPerfMonBegin@Output@@QAEXPAVProgressMonitor@@AAVLogBase@@@Z 004f654b f   ChilkatDbgDll:Output.obj
 0001:000f55d8       ?rtPerfMonUpdate@Output@@AAEXIPAVProgressMonitor@@AAVLogBase@@@Z 004f65d8 f   ChilkatDbgDll:Output.obj
 0001:000f57a7       ?rtPerfMonEnd@Output@@QAEXPAVProgressMonitor@@AAVLogBase@@@Z 004f67a7 f   ChilkatDbgDll:Output.obj
 0001:000f57e7       ?fseekAbsolute64@Output@@UAE_N_JAAVLogBase@@@Z 004f67e7 f   ChilkatDbgDll:Output.obj
 0001:000f57fd       ?ftell64@Output@@UAE_JXZ   004f67fd f   ChilkatDbgDll:Output.obj
 0001:000f5813       ?_writeBytes@Output@@MAE_NPBDIPAVProgressMonitor@@AAVLogBase@@@Z 004f6813 f   ChilkatDbgDll:Output.obj
 0001:000f5829       ?putChar@Output@@QAEHHPAVProgressMonitor@@AAVLogBase@@@Z 004f6829 f   ChilkatDbgDll:Output.obj
 0001:000f58e2       ?writeLittleEndianInt64@Output@@QAE_N_JPAVProgressMonitor@@AAVLogBase@@@Z 004f68e2 f   ChilkatDbgDll:Output.obj
 0001:000f5a85       ?writeLittleEndianUInt32@Output@@QAE_NIPAVProgressMonitor@@AAVLogBase@@@Z 004f6a85 f   ChilkatDbgDll:Output.obj
 0001:000f5bf5       ?writeLittleEndianUInt16@Output@@QAE_NGPAVProgressMonitor@@AAVLogBase@@@Z 004f6bf5 f   ChilkatDbgDll:Output.obj
 0001:000f5d54       ?writeStringN@Output@@QAE_NPBDIPAVProgressMonitor@@AAVLogBase@@@Z 004f6d54 f   ChilkatDbgDll:Output.obj
 0001:000f5d9a       ?writeString@Output@@QAE_NPBDPAVProgressMonitor@@AAVLogBase@@@Z 004f6d9a f   ChilkatDbgDll:Output.obj
 0001:000f5df2       ?writeEncodedBytes@Output@@AAE_NPBDIPAVProgressMonitor@@AAVLogBase@@@Z 004f6df2 f   ChilkatDbgDll:Output.obj
 0001:000f5f55       ?writeBytes@Output@@QAE_NPBDIPAVProgressMonitor@@AAVLogBase@@@Z 004f6f55 f   ChilkatDbgDll:Output.obj
 0001:000f6200       ?writeUBytes@Output@@QAE_NPBEIPAVProgressMonitor@@AAVLogBase@@@Z 004f7200 f   ChilkatDbgDll:Output.obj
 0001:000f6236       ?writeSb@Output@@QAE_NABVStringBuffer@@PAVProgressMonitor@@AAVLogBase@@@Z 004f7236 f   ChilkatDbgDll:Output.obj
 0001:000f628f       ?writeDb@Output@@QAE_NABVDataBuffer@@PAVProgressMonitor@@AAVLogBase@@@Z 004f728f f   ChilkatDbgDll:Output.obj
 0001:000f62f0       ??_EOutput@@UAEPAXI@Z      004f72f0 f i ChilkatDbgDll:Output.obj
 0001:000f62f0       ??_GOutput@@UAEPAXI@Z      004f72f0 f i ChilkatDbgDll:Output.obj
 0001:000f6330       ?_fseekAbsolute64@DataSource@@MAE_N_JAAVLogBase@@@Z 004f7330 f   ChilkatDbgDll:DataSource.obj
 0001:000f6346       ?_fseekRelative64@DataSource@@MAE_N_JAAVLogBase@@@Z 004f7346 f   ChilkatDbgDll:DataSource.obj
 0001:000f635c       ?_discard64@DataSource@@MAE_N_JPAVProgressMonitor@@AAVLogBase@@@Z 004f735c f   ChilkatDbgDll:DataSource.obj
 0001:000f64b6       ?disposeSrc@DataSource@@QAEXXZ 004f74b6 f   ChilkatDbgDll:DataSource.obj
 0001:000f64e7       ?copyToOutput@DataSource@@QAE_NAAVOutput@@AA_JPAVProgressMonitor@@AAVLogBase@@@Z 004f74e7 f   ChilkatDbgDll:DataSource.obj
 0001:000f6743       ?scanForCrc@DataSource@@QAE_NAAIAA_JPAVProgressMonitor@@AAVLogBase@@@Z 004f7743 f   ChilkatDbgDll:DataSource.obj
 0001:000f68e0       ?copyNToOutput@DataSource@@QAE_NAAVOutput@@_JPAVProgressMonitor@@AAVLogBase@@@Z 004f78e0 f   ChilkatDbgDll:DataSource.obj
 0001:000f6961       ?copyNToOutput2@DataSource@@QAE_NAAVOutput@@_JPADIPAVProgressMonitor@@AAVLogBase@@@Z 004f7961 f   ChilkatDbgDll:DataSource.obj
 0001:000f6bcf       ?_endOfStream@DataSource@@MAE_NXZ 004f7bcf f   ChilkatDbgDll:DataSource.obj
 0001:000f6be3       ?_readSource@DataSource@@MAE_NPADIAAIAA_NPAVProgressMonitor@@AAVLogBase@@@Z 004f7be3 f   ChilkatDbgDll:DataSource.obj
 0001:000f6c08       ?getChar@DataSource@@QAEHPAVProgressMonitor@@AAVLogBase@@@Z 004f7c08 f   ChilkatDbgDll:DataSource.obj
 0001:000f6cef       ?scanForLong@DataSource@@QAE_NIAAVLogBase@@@Z 004f7cef f   ChilkatDbgDll:DataSource.obj
 0001:000f6d2b       ?endOfStream@DataSource@@QAE_NXZ 004f7d2b f   ChilkatDbgDll:DataSource.obj
 0001:000f6d5d       ?discard64@DataSource@@QAE_N_JPAVProgressMonitor@@AAVLogBase@@@Z 004f7d5d f   ChilkatDbgDll:DataSource.obj
 0001:000f6da1       ?fseekAbsolute64@DataSource@@QAE_N_JAAVLogBase@@@Z 004f7da1 f   ChilkatDbgDll:DataSource.obj
 0001:000f6de1       ?fseekRelative64@DataSource@@QAE_N_JAAVLogBase@@@Z 004f7de1 f   ChilkatDbgDll:DataSource.obj
 0001:000f6e21       ?rewindDataSource@DataSource@@QAEXXZ 004f7e21 f   ChilkatDbgDll:DataSource.obj
 0001:000f6e53       ??0DataSource@@QAE@XZ      004f7e53 f   ChilkatDbgDll:DataSource.obj
 0001:000f6ef1       ?_scanForLong@DataSource@@MAE_NIAAVLogBase@@@Z 004f7ef1 f   ChilkatDbgDll:DataSource.obj
 0001:000f6f07       ??1DataSource@@UAE@XZ      004f7f07 f   ChilkatDbgDll:DataSource.obj
 0001:000f6fbb       ?readBytes@DataSource@@QAEIPADIPAVProgressMonitor@@AAVLogBase@@@Z 004f7fbb f   ChilkatDbgDll:DataSource.obj
 0001:000f711e       ?readSource@DataSource@@QAE_NPADIAAIPAVProgressMonitor@@AAVLogBase@@@Z 004f811e f   ChilkatDbgDll:DataSource.obj
 0001:000f7165       ?readSource2@DataSource@@QAE_NPADIAAIAA_NPAVProgressMonitor@@AAVLogBase@@@Z 004f8165 f   ChilkatDbgDll:DataSource.obj
 0001:000f72c8       ?getByteCount64@DataSource@@QBE_JXZ 004f82c8 f   ChilkatDbgDll:DataSource.obj
 0001:000f72e3       ?getFinalCrc@DataSource@@QAEIXZ 004f82e3 f   ChilkatDbgDll:DataSource.obj
 0001:000f730a       ?_getCurIdx64@DataSource@@MAE_JXZ 004f830a f   ChilkatDbgDll:DataSource.obj
 0001:000f7320       ?_rewindDataSource@DataSource@@MAEXXZ 004f8320 f   ChilkatDbgDll:DataSource.obj
 0001:000f7332       ?_disposeSrc@DataSource@@MAEXXZ 004f8332 f   ChilkatDbgDll:DataSource.obj
 0001:000f7344       ?setDecoder@DataSource@@QAEXPAVDataTransform@@@Z 004f8344 f   ChilkatDbgDll:DataSource.obj
 0001:000f73c3       ?dropDecoder@DataSource@@QAEXXZ 004f83c3 f   ChilkatDbgDll:DataSource.obj
 0001:000f73df       ??0ReadUntilMatchSrc@@QAE@XZ 004f83df f   ChilkatDbgDll:DataSource.obj
 0001:000f73fd       ??1ReadUntilMatchSrc@@UAE@XZ 004f83fd f   ChilkatDbgDll:DataSource.obj
 0001:000f7418       ?rumGetBuffer@ReadUntilMatchSrc@@UAEPAVDataBuffer@@XZ 004f8418 f   ChilkatDbgDll:DataSource.obj
 0001:000f742c       ?rumReceiveBytes@ReadUntilMatchSrc@@UAE_NAAVDataBuffer@@IIAAVSocketParams@@AAVLogBase@@@Z 004f842c f   ChilkatDbgDll:DataSource.obj
 0001:000f7442       ?rumIsConnected@ReadUntilMatchSrc@@UAE_NAAVLogBase@@@Z 004f8442 f   ChilkatDbgDll:DataSource.obj
 0001:000f7458       ?rumReceiveUntilMatchSb@ReadUntilMatchSrc@@SA_NAAV1@AAVStringBuffer@@1IIAAVSocketParams@@AAVLogBase@@@Z 004f8458 f   ChilkatDbgDll:DataSource.obj
 0001:000f752e       ?rumReceiveUntilMatchDb@ReadUntilMatchSrc@@SA_NAAV1@PBDIAAVDataBuffer@@IIAAVSocketParams@@AAVLogBase@@@Z 004f852e f   ChilkatDbgDll:DataSource.obj
 0001:000f7b80       ??_GDataSource@@UAEPAXI@Z  004f8b80 f i ChilkatDbgDll:DataSource.obj
 0001:000f7b80       ??_EDataSource@@UAEPAXI@Z  004f8b80 f i ChilkatDbgDll:DataSource.obj
 0001:000f7bc0       ??_GReadUntilMatchSrc@@UAEPAXI@Z 004f8bc0 f i ChilkatDbgDll:DataSource.obj
 0001:000f7bc0       ??_EReadUntilMatchSrc@@UAEPAXI@Z 004f8bc0 f i ChilkatDbgDll:DataSource.obj
 0001:000f7c00       ?setIV@Rijndael2@@QAEXABVDataBuffer@@@Z 004f8c00 f   ChilkatDbgDll:rijndael.obj
 0001:000f7c74       ??0Rijndael2@@QAE@XZ       004f8c74 f   ChilkatDbgDll:rijndael.obj
 0001:000f7d09       ??1Rijndael2@@QAE@XZ       004f8d09 f   ChilkatDbgDll:rijndael.obj
 0001:000f7d81       ?initRijndael@Rijndael2@@AAEXH_NAAVLogBase@@@Z 004f8d81 f   ChilkatDbgDll:rijndael.obj
 0001:000f7f58       ?blockEncrypt2@Rijndael2@@AAEHPBEHPAEAAVDataBuffer@@_N@Z 004f8f58 f   ChilkatDbgDll:rijndael.obj
 0001:000f8162       ?initCtrMode@Rijndael2@@QAEXHAAVLogBase@@@Z 004f9162 f   ChilkatDbgDll:rijndael.obj
 0001:000f8192       ?inPlaceSshCtrEncryptOrDecrypt@Rijndael2@@QAEXPAEI0I0AAIAAVLogBase@@@Z 004f9192 f   ChilkatDbgDll:rijndael.obj
 0001:000f829a       ?inPlaceZipCtrEncryptOrDecrypt@Rijndael2@@QAEXPAEI0I0AAIAAVLogBase@@@Z 004f929a f   ChilkatDbgDll:rijndael.obj
 0001:000f836d       ?blockEncrypt@Rijndael2@@AAEHPBEHPAEAAVLogBase@@@Z 004f936d f   ChilkatDbgDll:rijndael.obj
 0001:000f87d5       ?aesBlockDecrypt@Rijndael2@@AAE_NPBEIPAEAAIAAVLogBase@@@Z 004f97d5 f   ChilkatDbgDll:rijndael.obj
 0001:000f8ca3       ?aesBlockDecrypt2@Rijndael2@@AAE_NPBEIPAEAAI1_NAAVLogBase@@@Z 004f9ca3 f   ChilkatDbgDll:rijndael.obj
 0001:000f8f19       ?keySched@Rijndael2@@AAEXQAY03EAAVLogBase@@@Z 004f9f19 f   ChilkatDbgDll:rijndael.obj
 0001:000f924b       ?keyEncToDec@Rijndael2@@AAEXXZ 004fa24b f   ChilkatDbgDll:rijndael.obj
 0001:000f93d3       ?logExpandedKey@Rijndael2@@AAEXAAVLogBase@@@Z 004fa3d3 f   ChilkatDbgDll:rijndael.obj
 0001:000f9562       ?encryptOneBlock@Rijndael2@@AAEXQBEQAE@Z 004fa562 f   ChilkatDbgDll:rijndael.obj
 0001:000f9aa1       ?decryptOneBlock@Rijndael2@@AAEXQBEQAE@Z 004faaa1 f   ChilkatDbgDll:rijndael.obj
 0001:000f9f99       ?setKeyLength@Rijndael2@@QAEHH@Z 004faf99 f   ChilkatDbgDll:rijndael.obj
 0001:000f9fed       ?encryptFirstChunk@Rijndael2@@QAEPAVDataBuffer@@AAV2@AAVLogBase@@@Z 004fafed f   ChilkatDbgDll:rijndael.obj
 0001:000fa189       ?encryptMiddleChunk@Rijndael2@@QAEPAVDataBuffer@@AAV2@0AAVLogBase@@@Z 004fb189 f   ChilkatDbgDll:rijndael.obj
 0001:000fa2b9       ?encryptLastChunk@Rijndael2@@QAEPAVDataBuffer@@AAV2@0AAVLogBase@@@Z 004fb2b9 f   ChilkatDbgDll:rijndael.obj
 0001:000fa415       ?encrypt@Rijndael2@@QAEPAVDataBuffer@@AAV2@AAVLogBase@@@Z 004fb415 f   ChilkatDbgDll:rijndael.obj
 0001:000fa587       ?decryptFirstChunk@Rijndael2@@QAEPAVDataBuffer@@AAV2@PAEAAVLogBase@@@Z 004fb587 f   ChilkatDbgDll:rijndael.obj
 0001:000fa6d5       ?decryptMiddleChunk@Rijndael2@@QAEPAVDataBuffer@@AAV2@PAEAAVLogBase@@@Z 004fb6d5 f   ChilkatDbgDll:rijndael.obj
 0001:000fa80b       ?decryptLastChunk@Rijndael2@@QAEPAVDataBuffer@@AAV2@PAEAAVLogBase@@@Z 004fb80b f   ChilkatDbgDll:rijndael.obj
 0001:000fa976       ?decrypt@Rijndael2@@QAEPAVDataBuffer@@AAV2@AAVLogBase@@@Z 004fb976 f   ChilkatDbgDll:rijndael.obj
 0001:000fab62       ?encrypt2@Rijndael2@@QAE_NAAVDataBuffer@@0AAVLogBase@@@Z 004fbb62 f   ChilkatDbgDll:rijndael.obj
 0001:000fac5a       ?decrypt2@Rijndael2@@QAE_NAAVDataBuffer@@0AAVLogBase@@@Z 004fbc5a f   ChilkatDbgDll:rijndael.obj
 0001:000fad76       ?decrypt2_noUnpad@Rijndael2@@QAE_NAAVDataBuffer@@0AAVLogBase@@@Z 004fbd76 f   ChilkatDbgDll:rijndael.obj
 0001:000fae4e       ?setKeyByNullTerminated@Rijndael2@@QAEXPBD@Z 004fbe4e f   ChilkatDbgDll:rijndael.obj
 0001:000fae81       ?setSecretKey@Rijndael2@@QAEXABVDataBuffer@@@Z 004fbe81 f   ChilkatDbgDll:rijndael.obj
 0001:000faebf       ?setSecretKey2@Rijndael2@@QAEXPBEH@Z 004fbebf f   ChilkatDbgDll:rijndael.obj
 0001:000faf01       ?getSecretKey@Rijndael2@@QAEXAAVDataBuffer@@@Z 004fbf01 f   ChilkatDbgDll:rijndael.obj
 0001:000faf38       ?buildHeader@Rijndael2@@QAEXAAVCryptHeader@@@Z 004fbf38 f   ChilkatDbgDll:rijndael.obj
 0001:000fafa5       ?setFromHeader@Rijndael2@@QAEXAAVCryptHeader@@@Z 004fbfa5 f   ChilkatDbgDll:rijndael.obj
 0001:000faff0       ?BZ2_bzCompressInit@ChilkatBzip2@@AAEHPAUbz_stream@@HHH@Z 004fbff0 f   ChilkatDbgDll:BzApi.obj
 0001:000fb33a       ?handle_compress@ChilkatBzip2@@AAEEPAUbz_stream@@@Z 004fc33a f   ChilkatDbgDll:BzApi.obj
 0001:000fbb95       ?BZ2_bzCompress@ChilkatBzip2@@AAEHPAUbz_stream@@H@Z 004fcb95 f   ChilkatDbgDll:BzApi.obj
 0001:000fbdb4       ?BZ2_bzCompressEnd@ChilkatBzip2@@AAEHPAUbz_stream@@@Z 004fcdb4 f   ChilkatDbgDll:BzApi.obj
 0001:000fbe99       ?BZ2_bzDecompressInit@ChilkatBzip2@@AAEHPAUbz_stream@@HH@Z 004fce99 f   ChilkatDbgDll:BzApi.obj
 0001:000fbfe5       ?BZ2_indexIntoF@ChilkatBzip2@@AAEHHPAH@Z 004fcfe5 f   ChilkatDbgDll:BzApi.obj
 0001:000fc048       ?unRLE_obuf_to_output_SMALL@ChilkatBzip2@@AAEXPAUDState@@@Z 004fd048 f   ChilkatDbgDll:BzApi.obj
 0001:000fcb41       ?BZ2_bzDecompress@ChilkatBzip2@@AAEHPAUbz_stream@@@Z 004fdb41 f   ChilkatDbgDll:BzApi.obj
 0001:000fd61b       ?BZ2_bzDecompressEnd@ChilkatBzip2@@AAEHPAUbz_stream@@@Z 004fe61b f   ChilkatDbgDll:BzApi.obj
 0001:000fd715       ?DecompressStream@ChilkatBzip2@@QAE_NAAVDataSource@@AAVOutput@@AAVLogBase@@PAVProgressMonitor@@@Z 004fe715 f   ChilkatDbgDll:BzApi.obj
 0001:000fda25       ??0bz_stream@@QAE@XZ       004fea25 f   ChilkatDbgDll:BzApi.obj
 0001:000fda93       ?BeginCompressStream@ChilkatBzip2@@QAE_NAAVDataSource@@AAVOutput@@AAVLogBase@@PAVProgressMonitor@@@Z 004fea93 f   ChilkatDbgDll:BzApi.obj
 0001:000fdd96       ?deallocStream@ChilkatBzip2@@AAEXXZ 004fed96 f   ChilkatDbgDll:BzApi.obj
 0001:000fde21       ?allocInOutIfNeeded@ChilkatBzip2@@AAE_NXZ 004fee21 f   ChilkatDbgDll:BzApi.obj
 0001:000fde91       ?BeginDecompressStream@ChilkatBzip2@@QAE_NAAVDataSource@@AAVOutput@@AAVLogBase@@PAVProgressMonitor@@@Z 004fee91 f   ChilkatDbgDll:BzApi.obj
 0001:000fe19f       ?MoreCompressStream@ChilkatBzip2@@QAE_NAAVDataSource@@AAVOutput@@AAVLogBase@@PAVProgressMonitor@@@Z 004ff19f f   ChilkatDbgDll:BzApi.obj
 0001:000fe3ec       ?MoreDecompressStream@ChilkatBzip2@@QAE_NAAVDataSource@@AAVOutput@@AAVLogBase@@PAVProgressMonitor@@@Z 004ff3ec f   ChilkatDbgDll:BzApi.obj
 0001:000fe66f       ?EndCompressStream@ChilkatBzip2@@QAE_NAAVOutput@@AAVLogBase@@PAVProgressMonitor@@@Z 004ff66f f   ChilkatDbgDll:BzApi.obj
 0001:000fe7f0       ?EndDecompressStream@ChilkatBzip2@@QAE_NAAVOutput@@AAVLogBase@@PAVProgressMonitor@@@Z 004ff7f0 f   ChilkatDbgDll:BzApi.obj
 0001:000fe93e       ?CompressStream@ChilkatBzip2@@QAE_NAAVDataSource@@AAVOutput@@AAVLogBase@@PAVProgressMonitor@@@Z 004ff93e f   ChilkatDbgDll:BzApi.obj
 0001:000fecb9       ?CompressFileNoHeader@ChilkatBzip2@@QAE_NPBD0AAVLogBase@@PAVProgressMonitor@@@Z 004ffcb9 f   ChilkatDbgDll:BzApi.obj
 0001:000fee23       ?DecompressFileNoHeader@ChilkatBzip2@@QAE_NPBD0AAVLogBase@@PAVProgressMonitor@@@Z 004ffe23 f   ChilkatDbgDll:BzApi.obj
 0001:000fef8d       ?BZ2_bzCompressBuffer@ChilkatBzip2@@AAE_NPADPAI0IH@Z 004fff8d f   ChilkatDbgDll:BzApi.obj
 0001:000ff08c       ?BZ2_bzDecompressBuffer@ChilkatBzip2@@AAE_NPADPAI0I@Z 0050008c f   ChilkatDbgDll:BzApi.obj
 0001:000ff1a8       ?BZ2_decompress@ChilkatBzip2@@AAEHPAUDState@@@Z 005001a8 f   ChilkatDbgDll:BzApi.obj
 0001:001039d0       ?initializeMemSource@MemoryDataSource@@QAEXPBDI@Z 005049d0 f   ChilkatDbgDll:MemoryDataSource.obj
 0001:00103a5b       ?takeDataBuffer@MemoryDataSource@@QAEXAAVDataBuffer@@@Z 00504a5b f   ChilkatDbgDll:MemoryDataSource.obj
 0001:00103abf       ?takeStringBuffer@MemoryDataSource@@QAEXAAVStringBuffer@@@Z 00504abf f   ChilkatDbgDll:MemoryDataSource.obj
 0001:00103b27       ?initializeWithOwnership@MemoryDataSource@@QAEXPADI@Z 00504b27 f   ChilkatDbgDll:MemoryDataSource.obj
 0001:00103bb2       ??0MemoryDataSource@@QAE@XZ 00504bb2 f   ChilkatDbgDll:MemoryDataSource.obj
 0001:00103c1f       ?clearMemSource@MemoryDataSource@@AAEXXZ 00504c1f f   ChilkatDbgDll:MemoryDataSource.obj
 0001:00103c9a       ??1MemoryDataSource@@UAE@XZ 00504c9a f   ChilkatDbgDll:MemoryDataSource.obj
 0001:00103cfc       ?_getCurIdx64@MemoryDataSource@@UAE_JXZ 00504cfc f   ChilkatDbgDll:MemoryDataSource.obj
 0001:00103d17       ?_disposeSrc@MemoryDataSource@@UAEXXZ 00504d17 f   ChilkatDbgDll:MemoryDataSource.obj
 0001:00103d3b       ?_rewindDataSource@MemoryDataSource@@UAEXXZ 00504d3b f   ChilkatDbgDll:MemoryDataSource.obj
 0001:00103d5e       ?_endOfStream@MemoryDataSource@@UAE_NXZ 00504d5e f   ChilkatDbgDll:MemoryDataSource.obj
 0001:00103dbd       ?_discard64@MemoryDataSource@@UAE_N_JPAVProgressMonitor@@AAVLogBase@@@Z 00504dbd f   ChilkatDbgDll:MemoryDataSource.obj
 0001:00103dfd       ?_fseekRelative64@MemoryDataSource@@UAE_N_JAAVLogBase@@@Z 00504dfd f   ChilkatDbgDll:MemoryDataSource.obj
 0001:00103ea4       ?_fseekAbsolute64@MemoryDataSource@@UAE_N_JAAVLogBase@@@Z 00504ea4 f   ChilkatDbgDll:MemoryDataSource.obj
 0001:00103f42       ?_readSource@MemoryDataSource@@UAE_NPADIAAIAA_NPAVProgressMonitor@@AAVLogBase@@@Z 00504f42 f   ChilkatDbgDll:MemoryDataSource.obj
 0001:00104116       ?_scanForLong@MemoryDataSource@@UAE_NIAAVLogBase@@@Z 00505116 f   ChilkatDbgDll:MemoryDataSource.obj
 0001:001042c0       ??_GMemoryDataSource@@UAEPAXI@Z 005052c0 f i ChilkatDbgDll:MemoryDataSource.obj
 0001:001042c0       ??_EMemoryDataSource@@UAEPAXI@Z 005052c0 f i ChilkatDbgDll:MemoryDataSource.obj
 0001:00104300       ??0OutputDataBuffer@@AAE@XZ 00505300 f   ChilkatDbgDll:OutputDataBuffer.obj
 0001:001043b8       ??0OutputDataBuffer@@QAE@PAVDataBuffer@@@Z 005053b8 f   ChilkatDbgDll:OutputDataBuffer.obj
 0001:0010448f       ??1OutputDataBuffer@@UAE@XZ 0050548f f   ChilkatDbgDll:OutputDataBuffer.obj
 0001:00104563       ?seekToEnd@OutputDataBuffer@@UAE_NAAVLogBase@@@Z 00505563 f   ChilkatDbgDll:OutputDataBuffer.obj
 0001:001045d5       ?fseekAbsolute64@OutputDataBuffer@@UAE_N_JAAVLogBase@@@Z 005055d5 f   ChilkatDbgDll:OutputDataBuffer.obj
 0001:001046a9       ?closeRerouted@OutputDataBuffer@@QAEXXZ 005056a9 f   ChilkatDbgDll:OutputDataBuffer.obj
 0001:00104745       ?wasRerouted@OutputDataBuffer@@QBE_NXZ 00505745 f   ChilkatDbgDll:OutputDataBuffer.obj
 0001:00104760       ?setReroute@OutputDataBuffer@@QAEXIPBD@Z 00505760 f   ChilkatDbgDll:OutputDataBuffer.obj
 0001:00104796       ?ftell64@OutputDataBuffer@@UAE_JXZ 00505796 f   ChilkatDbgDll:OutputDataBuffer.obj
 0001:001047f9       ?_writeBytes@OutputDataBuffer@@MAE_NPBDIPAVProgressMonitor@@AAVLogBase@@@Z 005057f9 f   ChilkatDbgDll:OutputDataBuffer.obj
 0001:00104c1a       ?resetOutput@OutputDataBuffer@@UAE_NAAVLogBase@@@Z 00505c1a f   ChilkatDbgDll:OutputDataBuffer.obj
 0001:00104c8c       ?getBuffer_BECAREFUL@OutputDataBuffer@@QAEPAVDataBuffer@@XZ 00505c8c f   ChilkatDbgDll:OutputDataBuffer.obj
 0001:00104ca4       ?setBuffer_BECAREFUL@OutputDataBuffer@@QAEXPAVDataBuffer@@@Z 00505ca4 f   ChilkatDbgDll:OutputDataBuffer.obj
 0001:00104cc1       ?ensureBuffer@OutputDataBuffer@@QAE_NI@Z 00505cc1 f   ChilkatDbgDll:OutputDataBuffer.obj
 0001:00104cfb       ?getDataAlreadyWritten@OutputDataBuffer@@QAEXAAVDataBuffer@@@Z 00505cfb f   ChilkatDbgDll:OutputDataBuffer.obj
 0001:00104d40       ??_EOutputDataBuffer@@UAEPAXI@Z 00505d40 f i ChilkatDbgDll:OutputDataBuffer.obj
 0001:00104d40       ??_GOutputDataBuffer@@UAEPAXI@Z 00505d40 f i ChilkatDbgDll:OutputDataBuffer.obj
 0001:00104d80       ??0AsyncProgressEvent@@QAE@XZ 00505d80 f   ChilkatDbgDll:AsyncProgressEvent.obj
 0001:00104dc1       ??1AsyncProgressEvent@@UAE@XZ 00505dc1 f   ChilkatDbgDll:AsyncProgressEvent.obj
 0001:00104dee       ?pevPercentDone@AsyncProgressEvent@@UAEXHAA_N@Z 00505dee f   ChilkatDbgDll:AsyncProgressEvent.obj
 0001:00104e16       ?pevAbortCheck@AsyncProgressEvent@@UAEXAA_N@Z 00505e16 f   ChilkatDbgDll:AsyncProgressEvent.obj
 0001:00104e35       ?pevProgressInfo@AsyncProgressEvent@@UAEXPBD0@Z 00505e35 f   ChilkatDbgDll:AsyncProgressEvent.obj
 0001:00104e50       ??_EAsyncProgressEvent@@UAEPAXI@Z 00505e50 f i ChilkatDbgDll:AsyncProgressEvent.obj
 0001:00104e50       ??_GAsyncProgressEvent@@UAEPAXI@Z 00505e50 f i ChilkatDbgDll:AsyncProgressEvent.obj
 0001:00104e90       ?getNext@CK_ListItem@@QAEPAV1@XZ 00505e90 f   ChilkatDbgDll:ck_list.obj
 0001:00104ea8       ?getPrev@CK_ListItem@@QAEPAV1@XZ 00505ea8 f   ChilkatDbgDll:ck_list.obj
 0001:00104ec0       ?getListObject_DoNotDelete@CK_ListItem@@QAEPAVChilkatObject@@XZ 00505ec0 f   ChilkatDbgDll:ck_list.obj
 0001:00104ed8       ?extractListObject@CK_ListItem@@QAEPAVChilkatObject@@XZ 00505ed8 f   ChilkatDbgDll:ck_list.obj
 0001:00104f51       ?_setNext@CK_ListItem@@AAEXPAV1@@Z 00505f51 f   ChilkatDbgDll:ck_list.obj
 0001:00104f6e       ?_setPrev@CK_ListItem@@AAEXPAV1@@Z 00505f6e f   ChilkatDbgDll:ck_list.obj
 0001:00104f8b       ?_setListObject@CK_ListItem@@AAEXPAVChilkatObject@@@Z 00505f8b f   ChilkatDbgDll:ck_list.obj
 0001:0010500c       ?createNewObject@CK_ListItem@@SAPAV1@XZ 0050600c f   ChilkatDbgDll:ck_list.obj
 0001:001050c7       ??0CK_ListItem@@QAE@XZ     005060c7 f   ChilkatDbgDll:ck_list.obj
 0001:00105103       ?getHeadListItem@CK_List@@QBEPAVCK_ListItem@@XZ 00506103 f   ChilkatDbgDll:ck_list.obj
 0001:0010511b       ?getTailListItem@CK_List@@QBEPAVCK_ListItem@@XZ 0050611b f   ChilkatDbgDll:ck_list.obj
 0001:00105133       ?getHeadObject_DoNotDelete@CK_List@@QBEPAVChilkatObject@@XZ 00506133 f   ChilkatDbgDll:ck_list.obj
 0001:0010517b       ?getTailObject_DoNotDelete@CK_List@@QBEPAVChilkatObject@@XZ 0050617b f   ChilkatDbgDll:ck_list.obj
 0001:001051c3       ?isEmpty@CK_List@@QBEHXZ   005061c3 f   ChilkatDbgDll:ck_list.obj
 0001:001051e3       ?getCount@CK_List@@QBEHXZ  005061e3 f   ChilkatDbgDll:ck_list.obj
 0001:001051fb       ?lockList@CK_List@@QAEXXZ  005061fb f   ChilkatDbgDll:ck_list.obj
 0001:0010521c       ?unlockList@CK_List@@QAEXXZ 0050621c f   ChilkatDbgDll:ck_list.obj
 0001:0010523d       ??0CK_List@@QAE@XZ         0050623d f   ChilkatDbgDll:ck_list.obj
 0001:00105283       ??1CK_List@@UAE@XZ         00506283 f   ChilkatDbgDll:ck_list.obj
 0001:001052b0       ??1CK_ListItem@@EAE@XZ     005062b0 f   ChilkatDbgDll:ck_list.obj
 0001:00105337       ?addHeadObject@CK_List@@QAEXPAVChilkatObject@@@Z 00506337 f   ChilkatDbgDll:ck_list.obj
 0001:0010538c       ?addTailObject@CK_List@@QAEXPAVChilkatObject@@@Z 0050638c f   ChilkatDbgDll:ck_list.obj
 0001:001053e1       ?addHeadListItem@CK_List@@QAEXPAVCK_ListItem@@@Z 005063e1 f   ChilkatDbgDll:ck_list.obj
 0001:00105465       ?addAfterListItem@CK_List@@QAEXPAVCK_ListItem@@0@Z 00506465 f   ChilkatDbgDll:ck_list.obj
 0001:001054ec       ?addAfterObject@CK_List@@QAEXPAVChilkatObject@@PAVCK_ListItem@@@Z 005064ec f   ChilkatDbgDll:ck_list.obj
 0001:00105545       ?addTailListItem@CK_List@@QAEXPAVCK_ListItem@@@Z 00506545 f   ChilkatDbgDll:ck_list.obj
 0001:001055c9       ?clearList@CK_List@@QAEXXZ 005065c9 f   ChilkatDbgDll:ck_list.obj
 0001:0010566c       ?removeHeadObject@CK_List@@QAEPAVChilkatObject@@XZ 0050666c f   ChilkatDbgDll:ck_list.obj
 0001:0010573c       ?removeTailObject@CK_List@@QAEPAVChilkatObject@@XZ 0050673c f   ChilkatDbgDll:ck_list.obj
 0001:0010580c       ?transferList@CK_List@@QAEXAAV1@@Z 0050680c f   ChilkatDbgDll:ck_list.obj
 0001:00105862       ?removeListItem@CK_List@@QAEXPAVCK_ListItem@@@Z 00506862 f   ChilkatDbgDll:ck_list.obj
 0001:001059cc       ?removeObject@CK_List@@QAEXPAVChilkatObject@@@Z 005069cc f   ChilkatDbgDll:ck_list.obj
 0001:00105a2a       ?replaceObject@CK_List@@QAEXPAVChilkatObject@@0@Z 00506a2a f   ChilkatDbgDll:ck_list.obj
 0001:00105aa0       ??_GCK_ListItem@@EAEPAXI@Z 00506aa0 f i ChilkatDbgDll:ck_list.obj
 0001:00105aa0       ??_ECK_ListItem@@EAEPAXI@Z 00506aa0 f i ChilkatDbgDll:ck_list.obj
 0001:00105ae0       ?createNewObject@NamedObject@@SAPAV1@PBDPAVChilkatObject@@@Z 00506ae0 f   ChilkatDbgDll:NamedObject.obj
 0001:00105ba3       ??0NamedObject@@QAE@PBDPAVChilkatObject@@@Z 00506ba3 f   ChilkatDbgDll:NamedObject.obj
 0001:00105c3b       ??1NamedObject@@UAE@XZ     00506c3b f   ChilkatDbgDll:NamedObject.obj
 0001:00105d2c       ?replaceObject@NamedObject@@QAEXPAVChilkatObject@@@Z 00506d2c f   ChilkatDbgDll:NamedObject.obj
 0001:00105da4       ?getName@NamedObject@@QBEPBDXZ 00506da4 f   ChilkatDbgDll:NamedObject.obj
 0001:00105ddb       ?getObject@NamedObject@@QAEPAVChilkatObject@@XZ 00506ddb f   ChilkatDbgDll:NamedObject.obj
 0001:00105df3       ?extractObject@NamedObject@@QAEPAVChilkatObject@@XZ 00506df3 f   ChilkatDbgDll:NamedObject.obj
 0001:00105e24       ?getNameSb@NamedObject@@QBEPBVStringBuffer@@XZ 00506e24 f   ChilkatDbgDll:NamedObject.obj
 0001:00105e3c       ??0NamedObject@@AAE@XZ     00506e3c f   ChilkatDbgDll:NamedObject.obj
 0001:00105e80       ??_ENamedObject@@UAEPAXI@Z 00506e80 f i ChilkatDbgDll:NamedObject.obj
 0001:00105e80       ??_GNamedObject@@UAEPAXI@Z 00506e80 f i ChilkatDbgDll:NamedObject.obj
 0001:00105ec0       ??0rsa_key@@QAE@XZ         00506ec0 f   ChilkatDbgDll:Rsa2.obj
 0001:00105f95       ?set_ModulusBitLen@rsa_key@@QAEXH@Z 00506f95 f   ChilkatDbgDll:Rsa2.obj
 0001:00105fb1       ?get_ModulusBitLen@rsa_key@@QAEHXZ 00506fb1 f   ChilkatDbgDll:Rsa2.obj
 0001:00105feb       ??0Rsa2@@QAE@XZ            00506feb f   ChilkatDbgDll:Rsa2.obj
 0001:00106009       ??1Rsa2@@UAE@XZ            00507009 f   ChilkatDbgDll:Rsa2.obj
 0001:00106024       ?rand_prime@Rsa2@@SA_NAAVmp_int@@JAAVLogBase@@@Z 00507024 f   ChilkatDbgDll:Rsa2.obj
 0001:00106228       ?xmlToKey@Rsa2@@SA_NPBDAAVrsa_key@@AAVLogBase@@@Z 00507228 f   ChilkatDbgDll:Rsa2.obj
 0001:001062c0       ?xmlToKey2@Rsa2@@SA_NPBDAAVrsa_key@@AAVStringBuffer@@AAVLogBase@@@Z 005072c0 f   ChilkatDbgDll:Rsa2.obj
 0001:00106dfc       ?calc_fingerprint@Rsa2@@SA_NAAVrsa_key@@AAVStringBuffer@@@Z 00507dfc f   ChilkatDbgDll:Rsa2.obj
 0001:001070b3       ?keyToXml@Rsa2@@SA_NAAVrsa_key@@_NAAVStringBuffer@@AAVLogBase@@@Z 005080b3 f   ChilkatDbgDll:Rsa2.obj
 0001:00107ad1       ?make_key@Rsa2@@SA_NHJAAVrsa_key@@AAVLogBase@@@Z 00508ad1 f   ChilkatDbgDll:Rsa2.obj
 0001:00107e71       ?derive_key@Rsa2@@SA_NAAVmp_int@@0JAAVrsa_key@@AAVLogBase@@@Z 00508e71 f   ChilkatDbgDll:Rsa2.obj
 0001:0010802a       ?derive_key_old@Rsa2@@SA_NAAVmp_int@@0JAAVrsa_key@@AAVLogBase@@@Z 0050902a f   ChilkatDbgDll:Rsa2.obj
 0001:0010822e       ?calc_dq_dq@Rsa2@@SA_NAAVmp_int@@0J00AAVrsa_key@@@Z 0050922e f   ChilkatDbgDll:Rsa2.obj
 0001:00108427       ?key_equals@Rsa2@@SA_NAAVrsa_key@@0@Z 00509427 f   ChilkatDbgDll:Rsa2.obj
 0001:00108539       ?key_equals_withLogging@Rsa2@@SA_NAAVrsa_key@@0AAVLogBase@@@Z 00509539 f   ChilkatDbgDll:Rsa2.obj
 0001:001087ff       ?verifyPrime@Rsa2@@CA_NAAVrsa_key@@AAVLogBase@@@Z 005097ff f   ChilkatDbgDll:Rsa2.obj
 0001:001088dc       ?verify_key@Rsa2@@SA_NAAVrsa_key@@AAVLogBase@@@Z 005098dc f   ChilkatDbgDll:Rsa2.obj
 0001:00108a5c       ?verify_xml_key@Rsa2@@SA_NPBDAAVLogBase@@@Z 00509a5c f   ChilkatDbgDll:Rsa2.obj
 0001:00108b48       ?exptmod@Rsa2@@SA_NPBEIHAAVrsa_key@@_NAAVDataBuffer@@AAVLogBase@@@Z 00509b48 f   ChilkatDbgDll:Rsa2.obj
 0001:00109147       ?simpleDecrypt@Rsa2@@SA_NAAVDataBuffer@@_N00AAVLogBase@@1@Z 0050a147 f   ChilkatDbgDll:Rsa2.obj
 0001:00109294       ?simpleEncrypt@Rsa2@@SA_NAAVDataBuffer@@00AAVLogBase@@_N@Z 0050a294 f   ChilkatDbgDll:Rsa2.obj
 0001:00109403       ?bulkDecrypt@Rsa2@@SA_NPBEI0IHH_NAAVrsa_key@@H1AA_NAAVDataBuffer@@1AAVLogBase@@@Z 0050a403 f   ChilkatDbgDll:Rsa2.obj
 0001:00109799       ?bulkEncrypt@Rsa2@@SA_NPBEI0IHHAAVrsa_key@@H_NAAVDataBuffer@@2AAVLogBase@@@Z 0050a799 f   ChilkatDbgDll:Rsa2.obj
 0001:00109b21       ?padAndEncrypt@Rsa2@@SA_NPBEI0IHHAAVrsa_key@@H_N2AAVDataBuffer@@2AAVLogBase@@@Z 0050ab21 f   ChilkatDbgDll:Rsa2.obj
 0001:00109e27       ?decryptAndUnpad@Rsa2@@SA_NPBEI0IHH_NAAVrsa_key@@H1AA_NAAVDataBuffer@@1AAVLogBase@@@Z 0050ae27 f   ChilkatDbgDll:Rsa2.obj
 0001:0010a43a       ?padAndSignHash@Rsa2@@SA_NPBEIHHAAVrsa_key@@H_NAAVDataBuffer@@AAVLogBase@@@Z 0050b43a f   ChilkatDbgDll:Rsa2.obj
 0001:0010aaa8       ?openSslPadAndSignHash@Rsa2@@SA_NPBEIAAVrsa_key@@H_NAAVDataBuffer@@AAVLogBase@@@Z 0050baa8 f   ChilkatDbgDll:Rsa2.obj
 0001:0010acc2       ?exptMod_forSig@Rsa2@@CA_NPBEIAAVrsa_key@@H_NAAVDataBuffer@@AAVLogBase@@AA_N@Z 0050bcc2 f   ChilkatDbgDll:Rsa2.obj
 0001:0010ae0a       ?verifyHash@Rsa2@@SA_NPBEI0IHHAA_NAAVrsa_key@@HAAVLogBase@@@Z 0050be0a f   ChilkatDbgDll:Rsa2.obj
 0001:0010bdd4       ?verifySslSig@Rsa2@@SA_NPBEI0IAA_NAAVrsa_key@@AAVLogBase@@@Z 0050cdd4 f   ChilkatDbgDll:Rsa2.obj
 0001:0010c161       ?signSslSig@Rsa2@@SA_NPBEIAAVrsa_key@@AAVDataBuffer@@AAVLogBase@@_N@Z 0050d161 f   ChilkatDbgDll:Rsa2.obj
 0001:0010c2db       ?unsignSslSig@Rsa2@@SA_NPBEIAAVrsa_key@@AAVDataBuffer@@AAVLogBase@@@Z 0050d2db f   ChilkatDbgDll:Rsa2.obj
 0001:0010c4cc       ?verifyHashSsh@Rsa2@@SA_NPBEI0IAA_NAAVrsa_key@@AAVLogBase@@@Z 0050d4cc f   ChilkatDbgDll:Rsa2.obj
 0001:0010cb25       ?SnkToXml@Rsa2@@SA_NPBDAAVStringBuffer@@AAVLogBase@@@Z 0050db25 f   ChilkatDbgDll:Rsa2.obj
 0001:0010d1a0       ?openSslUnsign@Rsa2@@SA_NPBEIAAVDataBuffer@@AAVrsa_key@@HAAVLogBase@@@Z 0050e1a0 f   ChilkatDbgDll:Rsa2.obj
 0001:0010d830       ??_ERsa2@@UAEPAXI@Z        0050e830 f i ChilkatDbgDll:Rsa2.obj
 0001:0010d830       ??_GRsa2@@UAEPAXI@Z        0050e830 f i ChilkatDbgDll:Rsa2.obj
 0001:0010d870       ??0ChilkatBignum@@QAE@XZ   0050e870 f   ChilkatDbgDll:ChilkatBignum.obj
 0001:0010d88e       ??1ChilkatBignum@@UAE@XZ   0050e88e f   ChilkatDbgDll:ChilkatBignum.obj
 0001:0010d8a9       ?makeCopy@ChilkatBignum@@SAPAIPAI@Z 0050e8a9 f   ChilkatDbgDll:ChilkatBignum.obj
 0001:0010d93a       ?createBitmask@ChilkatBignum@@SAPAIPAI@Z 0050e93a f   ChilkatDbgDll:ChilkatBignum.obj
 0001:0010d9fd       ?bitcount@ChilkatBignum@@SAHPAI@Z 0050e9fd f   ChilkatDbgDll:ChilkatBignum.obj
 0001:0010da64       ?cmp@ChilkatBignum@@SAHPAI0@Z 0050ea64 f   ChilkatDbgDll:ChilkatBignum.obj
 0001:0010db46       ?ssh1_length@ChilkatBignum@@SAHPAI@Z 0050eb46 f   ChilkatDbgDll:ChilkatBignum.obj
 0001:0010db6d       ?getByte@ChilkatBignum@@SAHPAIH@Z 0050eb6d f   ChilkatDbgDll:ChilkatBignum.obj
 0001:0010dbba       ?ssh1_save_bignum@ChilkatBignum@@SAHPAIPBD@Z 0050ebba f   ChilkatDbgDll:ChilkatBignum.obj
 0001:0010dc5c       ?ssh1_write_bignum@ChilkatBignum@@SAHPAIAAVDataBuffer@@@Z 0050ec5c f   ChilkatDbgDll:ChilkatBignum.obj
 0001:0010ddb5       ?printToSb@ChilkatBignum@@SAXPAIHAAVStringBuffer@@@Z 0050edb5 f   ChilkatDbgDll:ChilkatBignum.obj
 0001:0010de46       ?fromRadixString@ChilkatBignum@@SAPAIHPBD@Z 0050ee46 f   ChilkatDbgDll:ChilkatBignum.obj
 0001:0010ded4       ?bn_power_2@ChilkatBignum@@SAPAIH@Z 0050eed4 f   ChilkatDbgDll:ChilkatBignum.obj
 0001:0010df1d       ?set_bit@ChilkatBignum@@SAXPAIHH@Z 0050ef1d f   ChilkatDbgDll:ChilkatBignum.obj
 0001:0010dfa6       ?ssh1_load_bignum@ChilkatBignum@@SAHPBDPAPAI@Z 0050efa6 f   ChilkatDbgDll:ChilkatBignum.obj
 0001:0010e05e       ?ssh1_read_bignum@ChilkatBignum@@SAHPBEHPAPAI@Z 0050f05e f   ChilkatDbgDll:ChilkatBignum.obj
 0001:0010e121       ?newBignum@ChilkatBignum@@SAPAIH@Z 0050f121 f   ChilkatDbgDll:ChilkatBignum.obj
 0001:0010e183       ?fromBytes@ChilkatBignum@@SAPAIPBEH@Z 0050f183 f   ChilkatDbgDll:ChilkatBignum.obj
 0001:0010e296       ?secureClear@ChilkatBignum@@SAXPAI@Z 0050f296 f   ChilkatDbgDll:ChilkatBignum.obj
 0001:0010e2f5       ?to_bytes@ChilkatBignum@@SAXPAIAAVDataBuffer@@@Z 0050f2f5 f   ChilkatDbgDll:ChilkatBignum.obj
 0001:0010e407       ?bignumToMpInt@ChilkatBignum@@SAXPAIAAVmp_int@@@Z 0050f407 f   ChilkatDbgDll:ChilkatBignum.obj
 0001:0010e4b1       ?bignumToUnsignedLong@ChilkatBignum@@SAIPAI@Z 0050f4b1 f   ChilkatDbgDll:ChilkatBignum.obj
 0001:0010e5ed       ?unsignedLongToBignum@ChilkatBignum@@SAPAII@Z 0050f5ed f   ChilkatDbgDll:ChilkatBignum.obj
 0001:0010e6a7       ?mpIntToBignum@ChilkatBignum@@SAPAIAAVmp_int@@@Z 0050f6a7 f   ChilkatDbgDll:ChilkatBignum.obj
 0001:0010e739       ?rshift@ChilkatBignum@@SAPAIPAIH@Z 0050f739 f   ChilkatDbgDll:ChilkatBignum.obj
 0001:0010e850       ?ssh2_mpint_fmt@ChilkatBignum@@SAXQAIAAVDataBuffer@@@Z 0050f850 f   ChilkatDbgDll:ChilkatBignum.obj
 0001:0010e990       ??_EChilkatBignum@@UAEPAXI@Z 0050f990 f i ChilkatDbgDll:ChilkatBignum.obj
 0001:0010e990       ??_GChilkatBignum@@UAEPAXI@Z 0050f990 f i ChilkatDbgDll:ChilkatBignum.obj
 0001:0010e9d0       ?sha1_db@Sha1@@SAXABVDataBuffer@@AAV2@@Z 0050f9d0 f   ChilkatDbgDll:Sha1.obj
 0001:0010ea62       ?sha1_sb@Sha1@@SAXABVStringBuffer@@AAVDataBuffer@@@Z 0050fa62 f   ChilkatDbgDll:Sha1.obj
 0001:0010eaf4       ?sha1_bytes@Sha1@@SAXPBEIAAVDataBuffer@@@Z 0050faf4 f   ChilkatDbgDll:Sha1.obj
 0001:0010eb7c       ??0Sha1@@QAE@XZ            0050fb7c f   ChilkatDbgDll:Sha1.obj
 0001:0010ebe5       ??1Sha1@@UAE@XZ            0050fbe5 f   ChilkatDbgDll:Sha1.obj
 0001:0010ec00       ?copyFrom@Sha1@@QAEXABV1@@Z 0050fc00 f   ChilkatDbgDll:Sha1.obj
 0001:0010ec6c       ?initialize@Sha1@@QAEXXZ   0050fc6c f   ChilkatDbgDll:Sha1.obj
 0001:0010eccb       ?finalize@Sha1@@QAEXAAVDataBuffer@@_N@Z 0050fccb f   ChilkatDbgDll:Sha1.obj
 0001:0010f01b       ?finalize@Sha1@@QAEXPAE@Z  0051001b f   ChilkatDbgDll:Sha1.obj
 0001:0010f286       ?compress@Sha1@@AAEXXZ     00510286 f   ChilkatDbgDll:Sha1.obj
 0001:0010fa74       ?process@Sha1@@QAEXPBEI@Z  00510a74 f   ChilkatDbgDll:Sha1.obj
 0001:001103d3       ?digestDataSource@Sha1@@SA_NAAVDataSource@@PAVProgressMonitor@@AAVLogBase@@AAVDataBuffer@@PAV5@@Z 005113d3 f   ChilkatDbgDll:Sha1.obj
 0001:00110590       ??_ESha1@@UAEPAXI@Z        00511590 f i ChilkatDbgDll:Sha1.obj
 0001:00110590       ??_GSha1@@UAEPAXI@Z        00511590 f i ChilkatDbgDll:Sha1.obj
 0001:001105d0       ??0Dsa@@QAE@XZ             005115d0 f   ChilkatDbgDll:Dsa.obj
 0001:001105ee       ??1Dsa@@UAE@XZ             005115ee f   ChilkatDbgDll:Dsa.obj
 0001:00110609       ?make_key@Dsa@@SA_NHHAAUdsa_key@@AAVLogBase@@@Z 00511609 f   ChilkatDbgDll:Dsa.obj
 0001:00110a5e       ?set_key_hex@Dsa@@SA_NHPBD000AAUdsa_key@@AAVLogBase@@@Z 00511a5e f   ChilkatDbgDll:Dsa.obj
 0001:00110bf4       ?set_pubkey_hex@Dsa@@SA_NHPBD000AAUdsa_key@@AAVLogBase@@@Z 00511bf4 f   ChilkatDbgDll:Dsa.obj
 0001:00110d75       ?make_key_from_params@Dsa@@SA_NAAVDataBuffer@@HAAUdsa_key@@AAVLogBase@@@Z 00511d75 f   ChilkatDbgDll:Dsa.obj
 0001:00110e88       ?get_info@dsa_key@@QAEXAAVStringBuffer@@@Z 00511e88 f   ChilkatDbgDll:Dsa.obj
 0001:00111117       ?get_pubKeyInfo@dsa_key@@QAEXAAVStringBuffer@@@Z 00512117 f   ChilkatDbgDll:Dsa.obj
 0001:001112f6       ?get_pubKeyInfoFingerprint@dsa_key@@QAEXAAVStringBuffer@@@Z 005122f6 f   ChilkatDbgDll:Dsa.obj
 0001:001113c5       ?verify_key@Dsa@@SA_NAAUdsa_key@@AAVLogBase@@@Z 005123c5 f   ChilkatDbgDll:Dsa.obj
 0001:00111883       ?sign_hash_raw@Dsa@@SA_NPBEIAAVmp_int@@1AAUdsa_key@@AAVLogBase@@@Z 00512883 f   ChilkatDbgDll:Dsa.obj
 0001:00111b7f       ?sign_hash@Dsa@@SA_NPBEIAAUdsa_key@@AAVDataBuffer@@AAVLogBase@@@Z 00512b7f f   ChilkatDbgDll:Dsa.obj
 0001:00111ca5       ?sign_hash_for_ssh@Dsa@@SA_NPBEIAAUdsa_key@@AAVDataBuffer@@AAVLogBase@@@Z 00512ca5 f   ChilkatDbgDll:Dsa.obj
 0001:00111d9b       ?verify_hash_raw@Dsa@@SA_NABVmp_int@@0PBEIAAUdsa_key@@AA_NAAVLogBase@@@Z 00512d9b f   ChilkatDbgDll:Dsa.obj
 0001:0011204b       ?verify_hash@Dsa@@SA_NPBEI0IAAUdsa_key@@AA_NAAVLogBase@@@Z 0051304b f   ChilkatDbgDll:Dsa.obj
 0001:0011247e       ?hash_and_sign@Dsa@@SA_NPBEIHAAUdsa_key@@AAVDataBuffer@@AAVLogBase@@@Z 0051347e f   ChilkatDbgDll:Dsa.obj
 0001:00112524       ?hash_and_verify@Dsa@@SA_NPBEI0IHAAUdsa_key@@AA_NAAVLogBase@@@Z 00513524 f   ChilkatDbgDll:Dsa.obj
 0001:001125d2       ?calc_fingerprint@Dsa@@SA_NAAUdsa_key@@AAVStringBuffer@@@Z 005135d2 f   ChilkatDbgDll:Dsa.obj
 0001:001128bc       ?keyToXml@Dsa@@SA_NAAUdsa_key@@_NAAVStringBuffer@@AAVLogBase@@@Z 005138bc f   ChilkatDbgDll:Dsa.obj
 0001:00112bf2       ?xmlToKey@Dsa@@SA_NPBDAAUdsa_key@@AAVLogBase@@@Z 00513bf2 f   ChilkatDbgDll:Dsa.obj
 0001:00113110       ??_GDsa@@UAEPAXI@Z         00514110 f i ChilkatDbgDll:Dsa.obj
 0001:00113110       ??_EDsa@@UAEPAXI@Z         00514110 f i ChilkatDbgDll:Dsa.obj
 0001:00113150       ??0ChilkatDh@@QAE@XZ       00514150 f   ChilkatDbgDll:ChilkatDh.obj
 0001:001131c8       ?create_E_ssl@ChilkatDh@@QAE_NIAAVDataBuffer@@AAVLogBase@@@Z 005141c8 f   ChilkatDbgDll:ChilkatDh.obj
 0001:00113220       ?replacePG_ssl@ChilkatDh@@QAEXAAVDataBuffer@@0AAVLogBase@@@Z 00514220 f   ChilkatDbgDll:ChilkatDh.obj
 0001:00113298       ?replacePG@ChilkatDh@@QAEXPAI0@Z 00514298 f   ChilkatDbgDll:ChilkatDh.obj
 0001:001132d6       ?replace_p@ChilkatDh@@QAEXPAI@Z 005142d6 f   ChilkatDbgDll:ChilkatDh.obj
 0001:00113352       ?replace_g@ChilkatDh@@QAEXPAI@Z 00514352 f   ChilkatDbgDll:ChilkatDh.obj
 0001:001133b7       ?clear@ChilkatDh@@AAEXXZ   005143b7 f   ChilkatDbgDll:ChilkatDh.obj
 0001:0011355d       ??1ChilkatDh@@UAE@XZ       0051455d f   ChilkatDbgDll:ChilkatDh.obj
 0001:0011358a       ?init@ChilkatDh@@AAEXXZ    0051458a f   ChilkatDbgDll:ChilkatDh.obj
 0001:00113632       ?genPG@ChilkatDh@@QAE_NHHPAVProgressMonitor@@@Z 00514632 f   ChilkatDbgDll:ChilkatDh.obj
 0001:00113e43       ?UseOakleyGroup@ChilkatDh@@QAE_NH@Z 00514e43 f   ChilkatDbgDll:ChilkatDh.obj
 0001:00113f0a       ?UseKnownPrime@ChilkatDh@@QAE_NH@Z 00514f0a f   ChilkatDbgDll:ChilkatDh.obj
 0001:0011411e       ?ToRadix@ChilkatDh@@QAEXPBDHAAVStringBuffer@@@Z 0051511e f   ChilkatDbgDll:ChilkatDh.obj
 0001:001141e8       ?create_E@ChilkatDh@@QAE_NIAAVLogBase@@@Z 005151e8 f   ChilkatDbgDll:ChilkatDh.obj
 0001:00114671       ?find_K@ChilkatDh@@QAEXPAI@Z 00515671 f   ChilkatDbgDll:ChilkatDh.obj
 0001:001147c0       ??_EChilkatDh@@UAEPAXI@Z   005157c0 f i ChilkatDbgDll:ChilkatDh.obj
 0001:001147c0       ??_GChilkatDh@@UAEPAXI@Z   005157c0 f i ChilkatDbgDll:ChilkatDh.obj
 0001:00114800       ?RandomizeIV@ClsCrypt2@@QAEXXZ 00515800 f   ChilkatDbgDll:ClsCrypt2.obj
 0001:0011490f       ?RandomizeKey@ClsCrypt2@@QAEXXZ 0051590f f   ChilkatDbgDll:ClsCrypt2.obj
 0001:00114a1e       ?updateAlgorithmDescription@ClsCrypt2@@AAEXXZ 00515a1e f   ChilkatDbgDll:ClsCrypt2.obj
 0001:00114b4d       ?get_SecretKey@ClsCrypt2@@QAEXAAVDataBuffer@@@Z 00515b4d f   ChilkatDbgDll:ClsCrypt2.obj
 0001:00114c07       ?SetSecretKey@ClsCrypt2@@QAE_NAAVDataBuffer@@@Z 00515c07 f   ChilkatDbgDll:ClsCrypt2.obj
 0001:00114c3a       ?put_SecretKey@ClsCrypt2@@QAEXAAVDataBuffer@@@Z 00515c3a f   ChilkatDbgDll:ClsCrypt2.obj
 0001:00114cf4       ?put_SecretKey2@ClsCrypt2@@QAEXPBEI@Z 00515cf4 f   ChilkatDbgDll:ClsCrypt2.obj
 0001:00114d9d       ?get_HavalRounds@ClsCrypt2@@QBEHXZ 00515d9d f   ChilkatDbgDll:ClsCrypt2.obj
 0001:00114db8       ?put_HavalRounds@ClsCrypt2@@QAEXH@Z 00515db8 f   ChilkatDbgDll:ClsCrypt2.obj
 0001:00114df2       ?get_HasIV@ClsCrypt2@@QAE_NXZ 00515df2 f   ChilkatDbgDll:ClsCrypt2.obj
 0001:00114e0d       ?put_HasIV@ClsCrypt2@@QAEX_N@Z 00515e0d f   ChilkatDbgDll:ClsCrypt2.obj
 0001:00114e2d       ?get_CipherModeInt@ClsCrypt2@@QBEHXZ 00515e2d f   ChilkatDbgDll:ClsCrypt2.obj
 0001:00114e48       ?put_CipherModeInt@ClsCrypt2@@QAEXH@Z 00515e48 f   ChilkatDbgDll:ClsCrypt2.obj
 0001:00114e68       ?put_PaddingScheme@ClsCrypt2@@QAEXJ@Z 00515e68 f   ChilkatDbgDll:ClsCrypt2.obj
 0001:00114e88       ?get_PaddingScheme@ClsCrypt2@@QBEJXZ 00515e88 f   ChilkatDbgDll:ClsCrypt2.obj
 0001:00114ea3       ?put_ByteSwapOnDecrypt@ClsCrypt2@@QAEX_N@Z 00515ea3 f   ChilkatDbgDll:ClsCrypt2.obj
 0001:00114ec3       ?get_ByteSwapOnDecrypt@ClsCrypt2@@QBE_NXZ 00515ec3 f   ChilkatDbgDll:ClsCrypt2.obj
 0001:00114ede       ?put_IncludeCertChain@ClsCrypt2@@QAEX_N@Z 00515ede f   ChilkatDbgDll:ClsCrypt2.obj
 0001:00114efe       ?get_IncludeCertChain@ClsCrypt2@@QBE_NXZ 00515efe f   ChilkatDbgDll:ClsCrypt2.obj
 0001:00114f19       ?get_BlockSize@ClsCrypt2@@QAEHXZ 00515f19 f   ChilkatDbgDll:ClsCrypt2.obj
 0001:00114fb2       ?put_FirstChunk@ClsCrypt2@@QAEX_N@Z 00515fb2 f   ChilkatDbgDll:ClsCrypt2.obj
 0001:00114fd2       ?get_FirstChunk@ClsCrypt2@@QBE_NXZ 00515fd2 f   ChilkatDbgDll:ClsCrypt2.obj
 0001:00114fed       ?put_LastChunk@ClsCrypt2@@QAEX_N@Z 00515fed f   ChilkatDbgDll:ClsCrypt2.obj
 0001:0011500d       ?get_LastChunk@ClsCrypt2@@QBE_NXZ 0051600d f   ChilkatDbgDll:ClsCrypt2.obj
 0001:00115028       ?GenEncodedSecretKey@ClsCrypt2@@QAE_NAAVXString@@00@Z 00516028 f   ChilkatDbgDll:ClsCrypt2.obj
 0001:00115216       ?generateSecretKey@ClsCrypt2@@AAE_NAAVXString@@AAVDataBuffer@@@Z 00516216 f   ChilkatDbgDll:ClsCrypt2.obj
 0001:00115333       ?GenerateSecretKey@ClsCrypt2@@QAE_NAAVXString@@AAVDataBuffer@@@Z 00516333 f   ChilkatDbgDll:ClsCrypt2.obj
 0001:00115396       ?CreateP7S@ClsCrypt2@@QAE_NAAVXString@@0@Z 00516396 f   ChilkatDbgDll:ClsCrypt2.obj
 0001:0011559a       ?VerifyP7S@ClsCrypt2@@QAE_NAAVXString@@0@Z 0051659a f   ChilkatDbgDll:ClsCrypt2.obj
 0001:0011584f       ?CreateP7M@ClsCrypt2@@QAE_NAAVXString@@0@Z 0051684f f   ChilkatDbgDll:ClsCrypt2.obj
 0001:00115a25       ?VerifyP7M@ClsCrypt2@@QAE_NAAVXString@@0@Z 00516a25 f   ChilkatDbgDll:ClsCrypt2.obj
 0001:00115bd9       ?CreateDetachedSignature@ClsCrypt2@@QAE_NAAVXString@@0@Z 00516bd9 f   ChilkatDbgDll:ClsCrypt2.obj
 0001:00115d69       ?VerifyDetachedSignature@ClsCrypt2@@QAE_NAAVXString@@0@Z 00516d69 f   ChilkatDbgDll:ClsCrypt2.obj
 0001:00115f63       ?UseCertVault@ClsCrypt2@@QAE_NAAVClsXmlCertVault@@@Z 00516f63 f   ChilkatDbgDll:ClsCrypt2.obj
 0001:0011607e       ?CkDecryptFile@ClsCrypt2@@QAE_NAAVXString@@0PAVProgressEvent@@@Z 0051707e f   ChilkatDbgDll:ClsCrypt2.obj
 0001:00116d38       ?CkEncryptFile@ClsCrypt2@@QAE_NAAVXString@@0PAVProgressEvent@@@Z 00517d38 f   ChilkatDbgDll:ClsCrypt2.obj
 0001:00117b63       ?encryptSourceToOutput@ClsCrypt2@@QAE_NAAVDataSource@@AAVOutput@@PAVProgressMonitor@@AAVLogBase@@@Z 00518b63 f   ChilkatDbgDll:ClsCrypt2.obj
 0001:0011806e       ?SetEncodedKey@ClsCrypt2@@QAE_NAAVXString@@0@Z 0051906e f   ChilkatDbgDll:ClsCrypt2.obj
 0001:0011827c       ?SetEncodedIV@ClsCrypt2@@QAE_NAAVXString@@0@Z 0051927c f   ChilkatDbgDll:ClsCrypt2.obj
 0001:00118412       ?SetEncodedSalt@ClsCrypt2@@QAE_NAAVXString@@0@Z 00519412 f   ChilkatDbgDll:ClsCrypt2.obj
 0001:001184da       ?GetEncodedKey@ClsCrypt2@@QAE_NAAVXString@@0@Z 005194da f   ChilkatDbgDll:ClsCrypt2.obj
 0001:0011858f       ?GetEncodedIV@ClsCrypt2@@QAE_NAAVXString@@0@Z 0051958f f   ChilkatDbgDll:ClsCrypt2.obj
 0001:00118671       ?GetEncodedSalt@ClsCrypt2@@QAE_NAAVXString@@0@Z 00519671 f   ChilkatDbgDll:ClsCrypt2.obj
 0001:0011871c       ?SetHmacKeyBytes@ClsCrypt2@@QAEXAAVDataBuffer@@@Z 0051971c f   ChilkatDbgDll:ClsCrypt2.obj
 0001:001187f1       ?setHmacKeyBytes@ClsCrypt2@@QAEXAAVDataBuffer@@AAVLogBase@@@Z 005197f1 f   ChilkatDbgDll:ClsCrypt2.obj
 0001:00118836       ?SetHmacKeyString@ClsCrypt2@@QAEXAAVXString@@@Z 00519836 f   ChilkatDbgDll:ClsCrypt2.obj
 0001:00118921       ?SetHmacKeyEncoded@ClsCrypt2@@QAEXAAVXString@@0@Z 00519921 f   ChilkatDbgDll:ClsCrypt2.obj
 0001:00118a0c       ?HmacBytes@ClsCrypt2@@QAE_NAAVDataBuffer@@0@Z 00519a0c f   ChilkatDbgDll:ClsCrypt2.obj
 0001:00118b47       ?hmacBytes@ClsCrypt2@@QAE_NAAVDataBuffer@@0AAVLogBase@@@Z 00519b47 f   ChilkatDbgDll:ClsCrypt2.obj
 0001:00118bb5       ?HmacString@ClsCrypt2@@QAE_NAAVXString@@AAVDataBuffer@@@Z 00519bb5 f   ChilkatDbgDll:ClsCrypt2.obj
 0001:00118d82       ?HmacBytesENC@ClsCrypt2@@QAE_NAAVDataBuffer@@AAVXString@@@Z 00519d82 f   ChilkatDbgDll:ClsCrypt2.obj
 0001:00118ef9       ?HmacStringENC@ClsCrypt2@@QAE_NAAVXString@@0@Z 00519ef9 f   ChilkatDbgDll:ClsCrypt2.obj
 0001:0011933e       ?createNewCls@ClsCrypt2@@SAPAV1@XZ 0051a33e f   ChilkatDbgDll:ClsCrypt2.obj
 0001:001193fc       ??0ClsCrypt2@@QAE@XZ       0051a3fc f   ChilkatDbgDll:ClsCrypt2.obj
 0001:0011981f       ?get_PbesPassword@ClsCrypt2@@QAEXAAVXString@@@Z 0051a81f f   ChilkatDbgDll:ClsCrypt2.obj
 0001:001198ca       ?put_PbesPassword@ClsCrypt2@@QAEXAAVXString@@@Z 0051a8ca f   ChilkatDbgDll:ClsCrypt2.obj
 0001:00119976       ?get_PbesAlgorithm@ClsCrypt2@@QAEXAAVXString@@@Z 0051a976 f   ChilkatDbgDll:ClsCrypt2.obj
 0001:00119a0d       ?put_PbesAlgorithm@ClsCrypt2@@QAEXAAVXString@@@Z 0051aa0d f   ChilkatDbgDll:ClsCrypt2.obj
 0001:00119aa4       ?get_Charset@ClsCrypt2@@QAEXAAVXString@@@Z 0051aaa4 f   ChilkatDbgDll:ClsCrypt2.obj
 0001:00119b40       ?put_Charset@ClsCrypt2@@QAEXAAVXString@@@Z 0051ab40 f   ChilkatDbgDll:ClsCrypt2.obj
 0001:00119ca5       ??1ClsCrypt2@@UAE@XZ       0051aca5 f   ChilkatDbgDll:ClsCrypt2.obj
 0001:0011a354       ?IsUnlocked@ClsCrypt2@@QAE_NXZ 0051b354 f   ChilkatDbgDll:ClsCrypt2.obj
 0001:0011a3cb       ?UnlockComponent@ClsCrypt2@@QAE_NAAVXString@@@Z 0051b3cb f   ChilkatDbgDll:ClsCrypt2.obj
 0001:0011a482       ?get_LastAlgorithm@ClsCrypt2@@QAEXAAVXString@@@Z 0051b482 f   ChilkatDbgDll:ClsCrypt2.obj
 0001:0011a4b7       ?initBlowfish@ClsCrypt2@@AAEXAAVBlowFish@@@Z 0051b4b7 f   ChilkatDbgDll:ClsCrypt2.obj
 0001:0011a51d       ?initBlowfish2@ClsCrypt2@@AAEXAAVBlowFish2@@@Z 0051b51d f   ChilkatDbgDll:ClsCrypt2.obj
 0001:0011a5c5       ?initRc2@ClsCrypt2@@AAEXAAVChilkatRc2@@@Z 0051b5c5 f   ChilkatDbgDll:ClsCrypt2.obj
 0001:0011a665       ?initDes@ClsCrypt2@@AAEXAAVChilkatDes@@@Z 0051b665 f   ChilkatDbgDll:ClsCrypt2.obj
 0001:0011a762       ?initTwofish@ClsCrypt2@@AAEXAAVTwoFish@@@Z 0051b762 f   ChilkatDbgDll:ClsCrypt2.obj
 0001:0011a807       ?initRijndael@ClsCrypt2@@AAEXAAVRijndael2@@@Z 0051b807 f   ChilkatDbgDll:ClsCrypt2.obj
 0001:0011a8a0       ?encryptFirstChunk@ClsCrypt2@@AAEPAVDataBuffer@@AAVCryptoPtr@@AAV2@1AAVLogBase@@@Z 0051b8a0 f   ChilkatDbgDll:ClsCrypt2.obj
 0001:0011b2a3       ?encryptMiddleChunk@ClsCrypt2@@AAEPAVDataBuffer@@AAVCryptoPtr@@AAV2@1AAVLogBase@@@Z 0051c2a3 f   ChilkatDbgDll:ClsCrypt2.obj
 0001:0011b6c5       ?encryptLastChunk@ClsCrypt2@@AAEPAVDataBuffer@@AAVCryptoPtr@@AAV2@1AAVLogBase@@@Z 0051c6c5 f   ChilkatDbgDll:ClsCrypt2.obj
 0001:0011ba4c       ?decryptFirstChunk@ClsCrypt2@@AAEPAVDataBuffer@@AAVCryptoPtr@@AAV2@PAEAAVLogBase@@@Z 0051ca4c f   ChilkatDbgDll:ClsCrypt2.obj
 0001:0011be0b       ?decryptMiddleChunk@ClsCrypt2@@AAEPAVDataBuffer@@AAVCryptoPtr@@AAV2@PAEAAVLogBase@@@Z 0051ce0b f   ChilkatDbgDll:ClsCrypt2.obj
 0001:0011c126       ?decryptLastChunk@ClsCrypt2@@AAEPAVDataBuffer@@AAVCryptoPtr@@AAV2@PAEAAVLogBase@@@Z 0051d126 f   ChilkatDbgDll:ClsCrypt2.obj
 0001:0011c441       ?encryptData2@ClsCrypt2@@AAEPAVDataBuffer@@AAV2@PAVProgressMonitor@@AAVLogBase@@@Z 0051d441 f   ChilkatDbgDll:ClsCrypt2.obj
 0001:0011d319       ?encryptData@ClsCrypt2@@AAEPAVDataBuffer@@AAV2@PAVProgressMonitor@@AAVLogBase@@_N@Z 0051e319 f   ChilkatDbgDll:ClsCrypt2.obj
 0001:0011de2b       ?decryptPkcs7_New@ClsCrypt2@@AAEPAVDataBuffer@@AAV2@AAVLogBase@@@Z 0051ee2b f   ChilkatDbgDll:ClsCrypt2.obj
 0001:0011e54f       ?initCtrContext@CtrModeContext@@QAEXPBEII@Z 0051f54f f   ChilkatDbgDll:ClsCrypt2.obj
 0001:0011e5b7       ?cryptCtrMode@ClsCrypt2@@AAEPAVDataBuffer@@AAV2@AAVLogBase@@@Z 0051f5b7 f   ChilkatDbgDll:ClsCrypt2.obj
 0001:0011e7ba       ?decryptData2@ClsCrypt2@@AAEPAVDataBuffer@@AAV2@AAVLogBase@@@Z 0051f7ba f   ChilkatDbgDll:ClsCrypt2.obj
 0001:0011f34c       ?decryptData@ClsCrypt2@@AAEPAVDataBuffer@@AAV2@AAVLogBase@@@Z 0052034c f   ChilkatDbgDll:ClsCrypt2.obj
 0001:0011fc06       ?createDetachedSignature2@ClsCrypt2@@QAE_N_NAAVXString@@AAVDataBuffer@@2AAVLogBase@@@Z 00520c06 f   ChilkatDbgDll:ClsCrypt2.obj
 0001:00120181       ?OpaqueSignBytes@ClsCrypt2@@QAE_NAAVDataBuffer@@0@Z 00521181 f   ChilkatDbgDll:ClsCrypt2.obj
 0001:0012031e       ?createOpaqueSignature@ClsCrypt2@@QAE_N_NAAVXString@@AAVDataBuffer@@2AAVLogBase@@@Z 0052131e f   ChilkatDbgDll:ClsCrypt2.obj
 0001:001208c8       ?verifySignature2@ClsCrypt2@@QAE_N_NAAVXString@@AAVDataBuffer@@2AAVLogBase@@@Z 005218c8 f   ChilkatDbgDll:ClsCrypt2.obj
 0001:00120c62       ?OpaqueVerifyBytes@ClsCrypt2@@QAE_NAAVDataBuffer@@0@Z 00521c62 f   ChilkatDbgDll:ClsCrypt2.obj
 0001:00120d9d       ?verifyOpaqueSignature@ClsCrypt2@@QAE_NAAVDataBuffer@@0AAVLogBase@@@Z 00521d9d f   ChilkatDbgDll:ClsCrypt2.obj
 0001:001211cf       ?logEncryptParams@ClsCrypt2@@AAE_NAAVDataBuffer@@AAVLogBase@@@Z 005221cf f   ChilkatDbgDll:ClsCrypt2.obj
 0001:00121483       ?encrypt@ClsCrypt2@@QAE_NAAVDataBuffer@@0PAVProgressMonitor@@AAVLogBase@@_N@Z 00522483 f   ChilkatDbgDll:ClsCrypt2.obj
 0001:00121531       ?decrypt@ClsCrypt2@@QAE_NAAVDataBuffer@@0AAVLogBase@@@Z 00522531 f   ChilkatDbgDll:ClsCrypt2.obj
 0001:001215d7       ?get_CryptAlgorithm@ClsCrypt2@@QAEXAAVXString@@@Z 005225d7 f   ChilkatDbgDll:ClsCrypt2.obj
 0001:001216f5       ?isBlockEncryptionAlgorithm@ClsCrypt2@@QAE_NXZ 005226f5 f   ChilkatDbgDll:ClsCrypt2.obj
 0001:00121769       ?setCryptAlgorithmId@ClsCrypt2@@QAEXH@Z 00522769 f   ChilkatDbgDll:ClsCrypt2.obj
 0001:00121789       ?getCryptAlgorithmId@ClsCrypt2@@QAEHXZ 00522789 f   ChilkatDbgDll:ClsCrypt2.obj
 0001:001217a4       ?put_CryptAlgorithm@ClsCrypt2@@QAEXAAVXString@@@Z 005227a4 f   ChilkatDbgDll:ClsCrypt2.obj
 0001:001217d3       ?put_CryptAlgorithmUtf8@ClsCrypt2@@QAEXPBD@Z 005227d3 f   ChilkatDbgDll:ClsCrypt2.obj
 0001:001218f5       ?CompressString@ClsCrypt2@@QAE_NAAVXString@@AAVDataBuffer@@@Z 005228f5 f   ChilkatDbgDll:ClsCrypt2.obj
 0001:00121a91       ?SignString@ClsCrypt2@@QAE_NAAVXString@@AAVDataBuffer@@@Z 00522a91 f   ChilkatDbgDll:ClsCrypt2.obj
 0001:00121cb4       ?OpaqueSignString@ClsCrypt2@@QAE_NAAVXString@@AAVDataBuffer@@@Z 00522cb4 f   ChilkatDbgDll:ClsCrypt2.obj
 0001:00121ece       ?GenRandomBytesENC@ClsCrypt2@@QAE_NHAAVXString@@@Z 00522ece f   ChilkatDbgDll:ClsCrypt2.obj
 0001:00121f93       ?mysqlKeyTransform@ClsCrypt2@@AAEXAAVXString@@AAVDataBuffer@@@Z 00522f93 f   ChilkatDbgDll:ClsCrypt2.obj
 0001:0012206b       ?MySqlAesEncrypt@ClsCrypt2@@QAE_NAAVXString@@00@Z 0052306b f   ChilkatDbgDll:ClsCrypt2.obj
 0001:00122442       ?MySqlAesDecrypt@ClsCrypt2@@QAE_NAAVXString@@00@Z 00523442 f   ChilkatDbgDll:ClsCrypt2.obj
 0001:00122879       ?EncryptStringENC@ClsCrypt2@@QAE_NAAVXString@@0@Z 00523879 f   ChilkatDbgDll:ClsCrypt2.obj
 0001:00122acd       ?CompressStringENC@ClsCrypt2@@QAE_NAAVXString@@0@Z 00523acd f   ChilkatDbgDll:ClsCrypt2.obj
 0001:00122cdb       ?SignStringENC@ClsCrypt2@@QAE_NAAVXString@@0@Z 00523cdb f   ChilkatDbgDll:ClsCrypt2.obj
 0001:00122f6b       ?OpaqueSignStringENC@ClsCrypt2@@QAE_NAAVXString@@0@Z 00523f6b f   ChilkatDbgDll:ClsCrypt2.obj
 0001:001231cb       ?VerifyString@ClsCrypt2@@QAE_NAAVXString@@AAVDataBuffer@@@Z 005241cb f   ChilkatDbgDll:ClsCrypt2.obj
 0001:001233e6       ?VerifyStringENC@ClsCrypt2@@QAE_NAAVXString@@0@Z 005243e6 f   ChilkatDbgDll:ClsCrypt2.obj
 0001:0012362d       ?VerifyBytes@ClsCrypt2@@QAE_NAAVDataBuffer@@0@Z 0052462d f   ChilkatDbgDll:ClsCrypt2.obj
 0001:001237cb       ?VerifyBytesENC@ClsCrypt2@@QAE_NAAVDataBuffer@@AAVXString@@@Z 005247cb f   ChilkatDbgDll:ClsCrypt2.obj
 0001:001239a3       ?OpaqueVerifyBytesENC@ClsCrypt2@@QAE_NAAVXString@@AAVDataBuffer@@@Z 005249a3 f   ChilkatDbgDll:ClsCrypt2.obj
 0001:00123b34       ?DecryptBytesENC@ClsCrypt2@@QAE_NAAVXString@@AAVDataBuffer@@@Z 00524b34 f   ChilkatDbgDll:ClsCrypt2.obj
 0001:00123cdf       ?InflateBytesENC@ClsCrypt2@@QAE_NAAVXString@@AAVDataBuffer@@@Z 00524cdf f   ChilkatDbgDll:ClsCrypt2.obj
 0001:00123e51       ?OpaqueVerifyStringENC@ClsCrypt2@@QAE_NAAVXString@@0@Z 00524e51 f   ChilkatDbgDll:ClsCrypt2.obj
 0001:001241b5       ?DecryptStringENC@ClsCrypt2@@QAE_NAAVXString@@0@Z 005251b5 f   ChilkatDbgDll:ClsCrypt2.obj
 0001:00124695       ?InflateStringENC@ClsCrypt2@@QAE_NAAVXString@@0@Z 00525695 f   ChilkatDbgDll:ClsCrypt2.obj
 0001:00124902       ?DecryptBytes@ClsCrypt2@@QAE_NAAVDataBuffer@@0@Z 00525902 f   ChilkatDbgDll:ClsCrypt2.obj
 0001:00124a82       ?InflateBytes@ClsCrypt2@@QAE_NAAVDataBuffer@@0@Z 00525a82 f   ChilkatDbgDll:ClsCrypt2.obj
 0001:00124bc7       ?DecryptString@ClsCrypt2@@QAE_NAAVDataBuffer@@AAVXString@@@Z 00525bc7 f   ChilkatDbgDll:ClsCrypt2.obj
 0001:00124e75       ?InflateString@ClsCrypt2@@QAE_NAAVDataBuffer@@AAVXString@@@Z 00525e75 f   ChilkatDbgDll:ClsCrypt2.obj
 0001:0012509e       ?StringToBytes@ClsCrypt2@@QAE_NAAVXString@@0AAVDataBuffer@@@Z 0052609e f   ChilkatDbgDll:ClsCrypt2.obj
 0001:001251f0       ?get_Pkcs7CryptAlg@ClsCrypt2@@QAEXAAVXString@@@Z 005261f0 f   ChilkatDbgDll:ClsCrypt2.obj
 0001:0012529b       ?put_Pkcs7CryptAlg@ClsCrypt2@@QAEXAAVXString@@@Z 0052629b f   ChilkatDbgDll:ClsCrypt2.obj
 0001:001252d3       ?get_HeartbeatMs@ClsCrypt2@@QAEHXZ 005262d3 f   ChilkatDbgDll:ClsCrypt2.obj
 0001:001252ee       ?put_HeartbeatMs@ClsCrypt2@@QAEXH@Z 005262ee f   ChilkatDbgDll:ClsCrypt2.obj
 0001:0012530e       ?BytesToString@ClsCrypt2@@QAE_NABVDataBuffer@@AAVXString@@1@Z 0052630e f   ChilkatDbgDll:ClsCrypt2.obj
 0001:0012548b       ?WriteFile@ClsCrypt2@@QAE_NAAVXString@@AAVDataBuffer@@@Z 0052648b f   ChilkatDbgDll:ClsCrypt2.obj
 0001:00125570       ?ReadFile@ClsCrypt2@@QAE_NAAVXString@@AAVDataBuffer@@@Z 00526570 f   ChilkatDbgDll:ClsCrypt2.obj
 0001:001255ea       ?TrimEndingWith@ClsCrypt2@@QAE_NAAVXString@@00@Z 005265ea f   ChilkatDbgDll:ClsCrypt2.obj
 0001:00125748       ?CompressBytes@ClsCrypt2@@QAE_NAAVDataBuffer@@0@Z 00526748 f   ChilkatDbgDll:ClsCrypt2.obj
 0001:00125874       ?SignBytes@ClsCrypt2@@QAE_NAAVDataBuffer@@0@Z 00526874 f   ChilkatDbgDll:ClsCrypt2.obj
 0001:00125a1a       ?EncryptBytes@ClsCrypt2@@QAE_NAAVDataBuffer@@0@Z 00526a1a f   ChilkatDbgDll:ClsCrypt2.obj
 0001:00125bcc       ?CompressBytesENC@ClsCrypt2@@QAE_NAAVDataBuffer@@AAVXString@@@Z 00526bcc f   ChilkatDbgDll:ClsCrypt2.obj
 0001:00125d58       ?SignBytesENC@ClsCrypt2@@QAE_NAAVDataBuffer@@AAVXString@@@Z 00526d58 f   ChilkatDbgDll:ClsCrypt2.obj
 0001:00125f6b       ?OpaqueSignBytesENC@ClsCrypt2@@QAE_NAAVDataBuffer@@AAVXString@@@Z 00526f6b f   ChilkatDbgDll:ClsCrypt2.obj
 0001:0012614e       ?EncryptBytesENC@ClsCrypt2@@QAE_NAAVDataBuffer@@AAVXString@@@Z 0052714e f   ChilkatDbgDll:ClsCrypt2.obj
 0001:0012633f       ?HashString@ClsCrypt2@@QAE_NAAVXString@@AAVDataBuffer@@@Z 0052733f f   ChilkatDbgDll:ClsCrypt2.obj
 0001:001264d3       ?HashBeginString@ClsCrypt2@@QAE_NAAVXString@@@Z 005274d3 f   ChilkatDbgDll:ClsCrypt2.obj
 0001:0012661f       ?HashMoreString@ClsCrypt2@@QAE_NAAVXString@@@Z 0052761f f   ChilkatDbgDll:ClsCrypt2.obj
 0001:0012676b       ?get_CipherMode@ClsCrypt2@@QAEXAAVXString@@@Z 0052776b f   ChilkatDbgDll:ClsCrypt2.obj
 0001:001267cc       ?get_CompressionAlgorithm@ClsCrypt2@@QAEXAAVXString@@@Z 005277cc f   ChilkatDbgDll:ClsCrypt2.obj
 0001:001267f7       ?put_CompressionAlgorithm@ClsCrypt2@@QAEXAAVXString@@@Z 005277f7 f   ChilkatDbgDll:ClsCrypt2.obj
 0001:0012680b       ?put_CipherMode@ClsCrypt2@@QAEXAAVXString@@@Z 0052780b f   ChilkatDbgDll:ClsCrypt2.obj
 0001:001269a0       ?hashFile@ClsCrypt2@@AAE_NAAVXString@@AAVDataBuffer@@PAVProgressMonitor@@AAVLogBase@@@Z 005279a0 f   ChilkatDbgDll:ClsCrypt2.obj
 0001:00126ffe       ?HashFileENC@ClsCrypt2@@QAE_NAAVXString@@0PAVProgressEvent@@@Z 00527ffe f   ChilkatDbgDll:ClsCrypt2.obj
 0001:0012719e       ?CrcFile@ClsCrypt2@@QAEKAAVXString@@0PAVProgressEvent@@@Z 0052819e f   ChilkatDbgDll:ClsCrypt2.obj
 0001:001272d2       ?CrcBytes@ClsCrypt2@@QAEKAAVXString@@AAVDataBuffer@@@Z 005282d2 f   ChilkatDbgDll:ClsCrypt2.obj
 0001:001273d6       ?HashFile@ClsCrypt2@@QAE_NAAVXString@@AAVDataBuffer@@PAVProgressEvent@@@Z 005283d6 f   ChilkatDbgDll:ClsCrypt2.obj
 0001:0012754a       ?HashStringENC@ClsCrypt2@@QAE_NAAVXString@@0@Z 0052854a f   ChilkatDbgDll:ClsCrypt2.obj
 0001:00127714       ?HashFinalENC@ClsCrypt2@@QAE_NAAVXString@@@Z 00528714 f   ChilkatDbgDll:ClsCrypt2.obj
 0001:001277d5       ?HashBytesENC@ClsCrypt2@@QAE_NABVDataBuffer@@AAVXString@@@Z 005287d5 f   ChilkatDbgDll:ClsCrypt2.obj
 0001:001278d8       ?hashBytes@ClsCrypt2@@AAEXABVDataBuffer@@AAV2@@Z 005288d8 f   ChilkatDbgDll:ClsCrypt2.obj
 0001:00127c30       ?hashBeginBytes@ClsCrypt2@@AAEXABVDataBuffer@@@Z 00528c30 f   ChilkatDbgDll:ClsCrypt2.obj
 0001:001286a4       ?hashMoreBytes@ClsCrypt2@@AAEXABVDataBuffer@@@Z 005296a4 f   ChilkatDbgDll:ClsCrypt2.obj
 0001:00128dbd       ?hashFinal@ClsCrypt2@@AAEXAAVDataBuffer@@@Z 00529dbd f   ChilkatDbgDll:ClsCrypt2.obj
 0001:00129555       ?HashBeginBytes@ClsCrypt2@@QAE_NABVDataBuffer@@@Z 0052a555 f   ChilkatDbgDll:ClsCrypt2.obj
 0001:001295b4       ?HashMoreBytes@ClsCrypt2@@QAE_NABVDataBuffer@@@Z 0052a5b4 f   ChilkatDbgDll:ClsCrypt2.obj
 0001:00129613       ?HashFinal@ClsCrypt2@@QAE_NAAVDataBuffer@@@Z 0052a613 f   ChilkatDbgDll:ClsCrypt2.obj
 0001:00129672       ?HashBytes@ClsCrypt2@@QAE_NABVDataBuffer@@AAV2@@Z 0052a672 f   ChilkatDbgDll:ClsCrypt2.obj
 0001:0012978a       ?get_HashAlgorithm@ClsCrypt2@@QAEXAAVXString@@@Z 0052a78a f   ChilkatDbgDll:ClsCrypt2.obj
 0001:00129835       ?put_HashAlgorithm@ClsCrypt2@@QAEXAAVXString@@@Z 0052a835 f   ChilkatDbgDll:ClsCrypt2.obj
 0001:00129864       ?put_HashAlgorithmUtf8@ClsCrypt2@@QAEXPBD@Z 0052a864 f   ChilkatDbgDll:ClsCrypt2.obj
 0001:001298fe       ?AddPfxSourceFile@ClsCrypt2@@QAE_NAAVXString@@0@Z 0052a8fe f   ChilkatDbgDll:ClsCrypt2.obj
 0001:00129a58       ?AddPfxSourceData@ClsCrypt2@@QAE_NABVDataBuffer@@AAVXString@@@Z 0052aa58 f   ChilkatDbgDll:ClsCrypt2.obj
 0001:00129b75       ?get_KeyLength@ClsCrypt2@@QAEJXZ 0052ab75 f   ChilkatDbgDll:ClsCrypt2.obj
 0001:00129b90       ?Pbkdf1@ClsCrypt2@@QAE_NAAVXString@@000HH00@Z 0052ab90 f   ChilkatDbgDll:ClsCrypt2.obj
 0001:00129e25       ?Pbkdf2@ClsCrypt2@@QAE_NAAVXString@@000HH00@Z 0052ae25 f   ChilkatDbgDll:ClsCrypt2.obj
 0001:0012a225       ?get_IterationCount@ClsCrypt2@@QAEJXZ 0052b225 f   ChilkatDbgDll:ClsCrypt2.obj
 0001:0012a240       ?put_Rc2EffectiveKeyLength@ClsCrypt2@@QAEXJ@Z 0052b240 f   ChilkatDbgDll:ClsCrypt2.obj
 0001:0012a260       ?get_Rc2EffectiveKeyLength@ClsCrypt2@@QAEJXZ 0052b260 f   ChilkatDbgDll:ClsCrypt2.obj
 0001:0012a27b       ?put_KeyLength@ClsCrypt2@@QAEXJ@Z 0052b27b f   ChilkatDbgDll:ClsCrypt2.obj
 0001:0012a29b       ?put_IterationCount@ClsCrypt2@@QAEXJ@Z 0052b29b f   ChilkatDbgDll:ClsCrypt2.obj
 0001:0012a2c8       ?SetCSP@ClsCrypt2@@QAE_NAAVClsCsp@@@Z 0052b2c8 f   ChilkatDbgDll:ClsCrypt2.obj
 0001:0012a547       ?SetSigningCert@ClsCrypt2@@QAE_NAAVClsCert@@@Z 0052b547 f   ChilkatDbgDll:ClsCrypt2.obj
 0001:0012a639       ?setSigningCert@ClsCrypt2@@QAE_NAAVClsCert@@AAVLogBase@@@Z 0052b639 f   ChilkatDbgDll:ClsCrypt2.obj
 0001:0012a8b8       ?SetSigningCert2@ClsCrypt2@@QAE_NAAVClsCert@@AAVClsPrivateKey@@@Z 0052b8b8 f   ChilkatDbgDll:ClsCrypt2.obj
 0001:0012a9c0       ?SetDecryptCert2@ClsCrypt2@@QAE_NAAVClsCert@@AAVClsPrivateKey@@@Z 0052b9c0 f   ChilkatDbgDll:ClsCrypt2.obj
 0001:0012abaa       ?SetDecryptCert@ClsCrypt2@@QAE_NAAVClsCert@@@Z 0052bbaa f   ChilkatDbgDll:ClsCrypt2.obj
 0001:0012ad3e       ?get_LastCertSubject@ClsCrypt2@@QAEXAAVXString@@@Z 0052bd3e f   ChilkatDbgDll:ClsCrypt2.obj
 0001:0012ae1c       ?SetVerifyCert@ClsCrypt2@@QAE_NAAVClsCert@@@Z 0052be1c f   ChilkatDbgDll:ClsCrypt2.obj
 0001:0012af2e       ?SetEncryptCert@ClsCrypt2@@QAE_NAAVClsCert@@@Z 0052bf2e f   ChilkatDbgDll:ClsCrypt2.obj
 0001:0012b09b       ?GetSignerCertChain@ClsCrypt2@@QAEPAVClsCertChain@@H@Z 0052c09b f   ChilkatDbgDll:ClsCrypt2.obj
 0001:0012b1b5       ?GetSignerCert@ClsCrypt2@@QAEPAVClsCert@@J@Z 0052c1b5 f   ChilkatDbgDll:ClsCrypt2.obj
 0001:0012b2b6       ?GetLastCert@ClsCrypt2@@QAEPAVClsCert@@XZ 0052c2b6 f   ChilkatDbgDll:ClsCrypt2.obj
 0001:0012b3b3       ?HasSignatureSigningTime@ClsCrypt2@@QAE_NJ@Z 0052c3b3 f   ChilkatDbgDll:ClsCrypt2.obj
 0001:0012b499       ?GetSignatureSigningTime@ClsCrypt2@@QAE_NJAAVChilkatSysTime@@@Z 0052c499 f   ChilkatDbgDll:ClsCrypt2.obj
 0001:0012b583       ?AddEncryptCert@ClsCrypt2@@QAE_NAAVClsCert@@@Z 0052c583 f   ChilkatDbgDll:ClsCrypt2.obj
 0001:0012b6e2       ?ClearEncryptCerts@ClsCrypt2@@QAEXXZ 0052c6e2 f   ChilkatDbgDll:ClsCrypt2.obj
 0001:0012b70c       ?sha256@ClsCrypt2@@QAEXABVDataBuffer@@AAV2@@Z 0052c70c f   ChilkatDbgDll:ClsCrypt2.obj
 0001:0012b73a       ?sha384@ClsCrypt2@@QAEXABVDataBuffer@@AAV2@@Z 0052c73a f   ChilkatDbgDll:ClsCrypt2.obj
 0001:0012b768       ?sha512@ClsCrypt2@@QAEXABVDataBuffer@@AAV2@@Z 0052c768 f   ChilkatDbgDll:ClsCrypt2.obj
 0001:0012b796       ?haval@ClsCrypt2@@QAEXABVDataBuffer@@HAAV2@@Z 0052c796 f   ChilkatDbgDll:ClsCrypt2.obj
 0001:0012b8c9       ?getIV@ClsCrypt2@@AAE_NAAVDataBuffer@@@Z 0052c8c9 f   ChilkatDbgDll:ClsCrypt2.obj
 0001:0012b95e       ?get_IV@ClsCrypt2@@QAEXAAVDataBuffer@@@Z 0052c95e f   ChilkatDbgDll:ClsCrypt2.obj
 0001:0012b988       ?SetIV@ClsCrypt2@@QAE_NAAVDataBuffer@@@Z 0052c988 f   ChilkatDbgDll:ClsCrypt2.obj
 0001:0012b9b4       ?put_IV@ClsCrypt2@@QAEXAAVDataBuffer@@@Z 0052c9b4 f   ChilkatDbgDll:ClsCrypt2.obj
 0001:0012bab4       ?put_IV2@ClsCrypt2@@QAEXPBEI@Z 0052cab4 f   ChilkatDbgDll:ClsCrypt2.obj
 0001:0012bb9c       ?get_Salt@ClsCrypt2@@QAEXAAVDataBuffer@@@Z 0052cb9c f   ChilkatDbgDll:ClsCrypt2.obj
 0001:0012bc3b       ?put_Salt@ClsCrypt2@@QAEXAAVDataBuffer@@@Z 0052cc3b f   ChilkatDbgDll:ClsCrypt2.obj
 0001:0012bce0       ?GenerateRandomIV@ClsCrypt2@@QAEXXZ 0052cce0 f   ChilkatDbgDll:ClsCrypt2.obj
 0001:0012bdb1       ?SetSecretKeyViaPassword@ClsCrypt2@@QAE_NAAVXString@@@Z 0052cdb1 f   ChilkatDbgDll:ClsCrypt2.obj
 0001:0012be81       ?EncryptString@ClsCrypt2@@QAE_NAAVXString@@AAVDataBuffer@@@Z 0052ce81 f   ChilkatDbgDll:ClsCrypt2.obj
 0001:0012c03d       ?db_to_str@ClsCrypt2@@AAEXAAVDataBuffer@@AAVXString@@AAVLogBase@@@Z 0052d03d f   ChilkatDbgDll:ClsCrypt2.obj
 0001:0012c13e       ?OpaqueVerifyString@ClsCrypt2@@QAE_NAAVDataBuffer@@AAVXString@@@Z 0052d13e f   ChilkatDbgDll:ClsCrypt2.obj
 0001:0012c2b3       ?EncodeString@ClsCrypt2@@QAE_NAAVXString@@000@Z 0052d2b3 f   ChilkatDbgDll:ClsCrypt2.obj
 0001:0012c496       ?DecodeString@ClsCrypt2@@QAE_NAAVXString@@000@Z 0052d496 f   ChilkatDbgDll:ClsCrypt2.obj
 0001:0012c5af       ?ReEncode@ClsCrypt2@@QAE_NAAVXString@@000@Z 0052d5af f   ChilkatDbgDll:ClsCrypt2.obj
 0001:0012c6f7       ?EncryptEncoded@ClsCrypt2@@QAE_NAAVXString@@0@Z 0052d6f7 f   ChilkatDbgDll:ClsCrypt2.obj
 0001:0012c968       ?DecryptEncoded@ClsCrypt2@@QAE_NAAVXString@@0@Z 0052d968 f   ChilkatDbgDll:ClsCrypt2.obj
 0001:0012cbda       ?fillAlgorithmIdentifier@ClsCrypt2@@SA_NHHAAVAlgorithmIdentifier@@AAVLogBase@@@Z 0052dbda f   ChilkatDbgDll:ClsCrypt2.obj
 0001:0012ce8d       ?setByAlgorithmIdentifier@ClsCrypt2@@QAE_NAAVAlgorithmIdentifier@@AAVLogBase@@@Z 0052de8d f   ChilkatDbgDll:ClsCrypt2.obj
 0001:0012d298       ?GetSignatureSigningTimeStr@ClsCrypt2@@QAE_NHAAVXString@@@Z 0052e298 f   ChilkatDbgDll:ClsCrypt2.obj
 0001:0012d3b9       ?ByteSwap4321@ClsCrypt2@@QAE_NAAVDataBuffer@@0@Z 0052e3b9 f   ChilkatDbgDll:ClsCrypt2.obj
 0001:0012d407       ?Shorten@ClsCrypt2@@QAE_NAAVDataBuffer@@H0@Z 0052e407 f   ChilkatDbgDll:ClsCrypt2.obj
 0001:0012d450       ??_EClsCrypt2@@UAEPAXI@Z   0052e450 f i ChilkatDbgDll:ClsCrypt2.obj
 0001:0012d450       ??_GClsCrypt2@@UAEPAXI@Z   0052e450 f i ChilkatDbgDll:ClsCrypt2.obj
 0001:0012d490       ??_EClsCrypt2@@WDCA@AEPAXI@Z 0052e490 f i ChilkatDbgDll:ClsCrypt2.obj
 0001:0012d4a0       ??_EClsCrypt2@@WHAI@AEPAXI@Z 0052e4a0 f i ChilkatDbgDll:ClsCrypt2.obj
 0001:0012d4b0       ??_EClsCrypt2@@WHEA@AEPAXI@Z 0052e4b0 f i ChilkatDbgDll:ClsCrypt2.obj
 0001:0012d4c0       ??_EClsCrypt2@@WHFI@AEPAXI@Z 0052e4c0 f i ChilkatDbgDll:ClsCrypt2.obj
 0001:0012d4d0       ??_EClsCrypt2@@WHHI@AEPAXI@Z 0052e4d0 f i ChilkatDbgDll:ClsCrypt2.obj
 0001:0012d4e0       ??_EClsCrypt2@@WHIA@AEPAXI@Z 0052e4e0 f i ChilkatDbgDll:ClsCrypt2.obj
 0001:0012d4f0       ?inflateFromSource@ChilkatDeflate@@SA_N_NAAVDataSource@@AAVOutput@@0PAVProgressMonitor@@AAVLogBase@@@Z 0052e4f0 f   ChilkatDbgDll:ChilkatDeflate.obj
 0001:0012d6f4       ?deflateFromSource@ChilkatDeflate@@SA_N_NAAVDataSource@@AAVOutput@@H0PAVProgressMonitor@@AAVLogBase@@@Z 0052e6f4 f   ChilkatDbgDll:ChilkatDeflate.obj
 0001:0012df34       ?deflateDb@ChilkatDeflate@@SA_N_NABVDataBuffer@@AAV2@H0PAVProgressMonitor@@AAVLogBase@@@Z 0052ef34 f   ChilkatDbgDll:ChilkatDeflate.obj
 0001:0012e04b       ?inflateDb@ChilkatDeflate@@SA_N_NABVDataBuffer@@AAV2@0PAVProgressMonitor@@AAVLogBase@@@Z 0052f04b f   ChilkatDbgDll:ChilkatDeflate.obj
 0001:0012e121       ?deflateFile@ChilkatDeflate@@SA_N_NAAVXString@@1H0PAVProgressMonitor@@AAVLogBase@@@Z 0052f121 f   ChilkatDbgDll:ChilkatDeflate.obj
 0001:0012e2c3       ?inflateFile@ChilkatDeflate@@SA_N_NAAVXString@@10PAVProgressMonitor@@AAVLogBase@@@Z 0052f2c3 f   ChilkatDbgDll:ChilkatDeflate.obj
 0001:0012e42d       ?createChilkatDeflate@ChilkatDeflate@@SAPAV1@XZ 0052f42d f   ChilkatDbgDll:ChilkatDeflate.obj
 0001:0012e529       ??0ChilkatDeflate@@QAE@XZ  0052f529 f   ChilkatDbgDll:ChilkatDeflate.obj
 0001:0012e5a1       ??1ChilkatDeflate@@UAE@XZ  0052f5a1 f   ChilkatDbgDll:ChilkatDeflate.obj
 0001:0012e69a       ?createCodeBinary@ChilkatDeflate@@QAE_NPBD0@Z 0052f69a f   ChilkatDbgDll:ChilkatDeflate.obj
 0001:0012e960       ?BeginCompress@ChilkatDeflate@@QAE_NAAVDataBuffer@@0AAVLogBase@@PAVProgressMonitor@@@Z 0052f960 f   ChilkatDbgDll:ChilkatDeflate.obj
 0001:0012e9a4       ?BeginCompress@ChilkatDeflate@@QAE_NPBEIAAVDataBuffer@@AAVLogBase@@PAVProgressMonitor@@@Z 0052f9a4 f   ChilkatDbgDll:ChilkatDeflate.obj
 0001:0012ebfd       ?MoreCompress@ChilkatDeflate@@QAE_NAAVDataBuffer@@0AAVLogBase@@PAVProgressMonitor@@@Z 0052fbfd f   ChilkatDbgDll:ChilkatDeflate.obj
 0001:0012ec41       ?MoreCompress@ChilkatDeflate@@QAE_NPBEIAAVDataBuffer@@AAVLogBase@@PAVProgressMonitor@@@Z 0052fc41 f   ChilkatDbgDll:ChilkatDeflate.obj
 0001:0012edaf       ?zlibStartCompress@ChilkatDeflate@@QAE_NAAVDataBuffer@@AAVLogBase@@@Z 0052fdaf f   ChilkatDbgDll:ChilkatDeflate.obj
 0001:0012ef08       ?zlibMoreCompress@ChilkatDeflate@@QAE_NAAVDataBuffer@@0AAVLogBase@@PAVProgressMonitor@@@Z 0052ff08 f   ChilkatDbgDll:ChilkatDeflate.obj
 0001:0012f087       ?EndCompress@ChilkatDeflate@@QAE_NAAVDataBuffer@@AAVLogBase@@PAVProgressMonitor@@@Z 00530087 f   ChilkatDbgDll:ChilkatDeflate.obj
 0001:0012f1ea       ?BeginDecompress@ChilkatDeflate@@QAE_N_NAAVDataBuffer@@1AAVLogBase@@PAVProgressMonitor@@@Z 005301ea f   ChilkatDbgDll:ChilkatDeflate.obj
 0001:0012f3fd       ?MoreDecompress@ChilkatDeflate@@QAE_NAAVDataBuffer@@0AAVLogBase@@PAVProgressMonitor@@@Z 005303fd f   ChilkatDbgDll:ChilkatDeflate.obj
 0001:0012f505       ?EndDecompress@ChilkatDeflate@@QAE_NAAVDataBuffer@@AAVLogBase@@PAVProgressMonitor@@@Z 00530505 f   ChilkatDbgDll:ChilkatDeflate.obj
 0001:0012f580       ??_EChilkatDeflate@@UAEPAXI@Z 00530580 f i ChilkatDbgDll:ChilkatDeflate.obj
 0001:0012f580       ??_GChilkatDeflate@@UAEPAXI@Z 00530580 f i ChilkatDbgDll:ChilkatDeflate.obj
 0001:0012f5c0       ?ck_inet_ntop@@YA_NHPBXAAVStringBuffer@@@Z 005305c0 f   ChilkatDbgDll:ChilkatSocket.obj
 0001:0012fa3c       ?ckInetPton@ChilkatSocket@@SA_NPBDPAX@Z 00530a3c f   ChilkatDbgDll:ChilkatSocket.obj
 0001:0012fe7a       ?checkStartupWSA@ChilkatSocket@@SA_NXZ 00530e7a f   ChilkatDbgDll:ChilkatSocket.obj
 0001:001303d4       ?GetObjectId@ChilkatSocket@@QBEHXZ 005313d4 f   ChilkatDbgDll:ChilkatSocket.obj
 0001:001303ef       ?SetObjectId@ChilkatSocket@@QAEXH@Z 005313ef f   ChilkatDbgDll:ChilkatSocket.obj
 0001:0013040f       ??0ChilkatSocket@@QAE@IH@Z 0053140f f   ChilkatDbgDll:ChilkatSocket.obj
 0001:00130551       ?getSocketHandle@ChilkatSocket@@QAEIXZ 00531551 f   ChilkatDbgDll:ChilkatSocket.obj
 0001:0013056c       ?logSocketOptions@ChilkatSocket@@QAEXAAVLogBase@@@Z 0053156c f   ChilkatDbgDll:ChilkatSocket.obj
 0001:001306c7       ?checkSetBufSizes@ChilkatSocket@@AAEXAAVLogBase@@@Z 005316c7 f   ChilkatDbgDll:ChilkatSocket.obj
 0001:00130818       ?setSoSndBuf@ChilkatSocket@@QAEXIAAVLogBase@@@Z 00531818 f   ChilkatDbgDll:ChilkatSocket.obj
 0001:001308d7       ?setClientIp@ChilkatSocket@@QAEXPBDH@Z 005318d7 f   ChilkatDbgDll:ChilkatSocket.obj
 0001:001309b5       ?setSoRcvBuf@ChilkatSocket@@QAEXIAAVLogBase@@@Z 005319b5 f   ChilkatDbgDll:ChilkatSocket.obj
 0001:00130a74       ?initializeAcceptedConnection@ChilkatSocket@@AAEXI_N0AAVLogBase@@@Z 00531a74 f   ChilkatDbgDll:ChilkatSocket.obj
 0001:00130b00       ?acceptNextConnection@ChilkatSocket@@QAE_NAAV1@_NIAAVSocketParams@@AAVLogBase@@@Z 00531b00 f   ChilkatDbgDll:ChilkatSocket.obj
 0001:00130c66       ?setNonBlocking@ChilkatSocket@@QAEXXZ 00531c66 f   ChilkatDbgDll:ChilkatSocket.obj
 0001:00130cc4       ?setBlocking@ChilkatSocket@@QAEXXZ 00531cc4 f   ChilkatDbgDll:ChilkatSocket.obj
 0001:00130d22       ?setNoDelay@ChilkatSocket@@QAEX_NAAVLogBase@@@Z 00531d22 f   ChilkatDbgDll:ChilkatSocket.obj
 0001:00130e10       ?SetExclusiveAddr@ChilkatSocket@@QAE_N_NAAVLogBase@@@Z 00531e10 f   ChilkatDbgDll:ChilkatSocket.obj
 0001:00130ebb       ?SetKeepAlive@ChilkatSocket@@QAE_N_NAAVLogBase@@@Z 00531ebb f   ChilkatDbgDll:ChilkatSocket.obj
 0001:00130f66       ?createSocket_ipv4@ChilkatSocket@@AAE_NAAVLogBase@@_N@Z 00531f66 f   ChilkatDbgDll:ChilkatSocket.obj
 0001:0013127f       ?createSocket_ipv6@ChilkatSocket@@AAE_NAAVLogBase@@_N@Z 0053227f f   ChilkatDbgDll:ChilkatSocket.obj
 0001:001315a4       ?createSocket_ipv6_or_ipv4@ChilkatSocket@@AAE_NPAXAAVLogBase@@_N@Z 005325a4 f   ChilkatDbgDll:ChilkatSocket.obj
 0001:00131879       ?resetPerformance@ChilkatSocket@@QAEXAAVLogBase@@@Z 00532879 f   ChilkatDbgDll:ChilkatSocket.obj
 0001:001318b5       ?forceWritePerfUpdate@ChilkatSocket@@QAEXPAVProgressMonitor@@AAVLogBase@@@Z 005328b5 f   ChilkatDbgDll:ChilkatSocket.obj
 0001:001318fd       ?forceReadPerfUpdate@ChilkatSocket@@QAEXPAVProgressMonitor@@AAVLogBase@@@Z 005328fd f   ChilkatDbgDll:ChilkatSocket.obj
 0001:00131945       ?setMaxRecvBandwidth@ChilkatSocket@@QAEXJ@Z 00532945 f   ChilkatDbgDll:ChilkatSocket.obj
 0001:00131975       ?setMaxSendBandwidth@ChilkatSocket@@QAEXJ@Z 00532975 f   ChilkatDbgDll:ChilkatSocket.obj
 0001:001319a5       ?put_SoReuseAddr@ChilkatSocket@@QAEX_N@Z 005329a5 f   ChilkatDbgDll:ChilkatSocket.obj
 0001:00131a4c       ?put_SndBufSize@ChilkatSocket@@QAEXIAAVLogBase@@@Z 00532a4c f   ChilkatDbgDll:ChilkatSocket.obj
 0001:00131a8c       ?put_RcvBufSize@ChilkatSocket@@QAEXIAAVLogBase@@@Z 00532a8c f   ChilkatDbgDll:ChilkatSocket.obj
 0001:00131acc       ??0ChilkatSocket@@QAE@XZ   00532acc f   ChilkatDbgDll:ChilkatSocket.obj
 0001:00131c4c       ??1ChilkatSocket@@UAE@XZ   00532c4c f   ChilkatDbgDll:ChilkatSocket.obj
 0001:00131d40       ?TakeSocket@ChilkatSocket@@QAE_NAAV1@@Z 00532d40 f   ChilkatDbgDll:ChilkatSocket.obj
 0001:00131eee       ?reportSocketError@ChilkatSocket@@SAXPAVSocketParams@@AAVLogBase@@@Z 00532eee f   ChilkatDbgDll:ChilkatSocket.obj
 0001:00131f2f       ?reportSocketError2@ChilkatSocket@@SAXHPAVSocketParams@@AAVLogBase@@@Z 00532f2f f   ChilkatDbgDll:ChilkatSocket.obj
 0001:00132440       ?getCurrentSendThrottleRate@ChilkatSocket@@QAE_JXZ 00533440 f   ChilkatDbgDll:ChilkatSocket.obj
 0001:0013246a       ?getCurrentRecvThrottleRate@ChilkatSocket@@QAE_JXZ 0053346a f   ChilkatDbgDll:ChilkatSocket.obj
 0001:00132494       ?connectSocket@ChilkatSocket@@QAE_NPBDH_NIIAAVSocketParams@@AAVLogBase@@AA_N@Z 00533494 f   ChilkatDbgDll:ChilkatSocket.obj
 0001:00132719       ?GetSockName2@ChilkatSocket@@QAE_NAAVStringBuffer@@AAHAAVLogBase@@@Z 00533719 f   ChilkatDbgDll:ChilkatSocket.obj
 0001:0013276d       ?ck_getsockname_ipv4@ChilkatSocket@@AAE_NAAVStringBuffer@@AAHAAVLogBase@@@Z 0053376d f   ChilkatDbgDll:ChilkatSocket.obj
 0001:001328f3       ?ck_getsockname_ipv6@ChilkatSocket@@AAE_NAAVStringBuffer@@AAHAAVLogBase@@@Z 005338f3 f   ChilkatDbgDll:ChilkatSocket.obj
 0001:00132a6e       ?CkGetOfficialHostname@ChilkatSocket@@SA_NPBDAAVStringBuffer@@@Z 00533a6e f   ChilkatDbgDll:ChilkatSocket.obj
 0001:00132f52       ?GetPeerName@ChilkatSocket@@QAE_NAAVStringBuffer@@AAH@Z 00533f52 f   ChilkatDbgDll:ChilkatSocket.obj
 0001:001330a3       ?domainLookup_ipv4@ChilkatSocket@@SA_NPBDHIIAAVLogBase@@PAVProgressMonitor@@AAVStringBuffer@@AAIAA_N5@Z 005340a3 f   ChilkatDbgDll:ChilkatSocket.obj
 0001:00133148       ?domainLookupIpv4_win32@ChilkatSocket@@SA_NPBDHIIAAVLogBase@@PAVProgressMonitor@@AAVStringBuffer@@AAIAA_N5@Z 00534148 f   ChilkatDbgDll:ChilkatSocket.obj
 0001:00133ab3       ?isDottedIpAddress@ChilkatSocket@@SA_NPBD@Z 00534ab3 f   ChilkatDbgDll:ChilkatSocket.obj
 0001:00133b27       ?normalizeConnectHostname@ChilkatSocket@@AAE_NAAVStringBuffer@@AAVLogBase@@@Z 00534b27 f   ChilkatDbgDll:ChilkatSocket.obj
 0001:00133bfd       ?getLastSockErr@ChilkatSocket@@CAHXZ 00534bfd f   ChilkatDbgDll:ChilkatSocket.obj
 0001:00133c1a       ?connectSocket2_ipv4@ChilkatSocket@@AAE_NPBDHIAAVSocketParams@@AAVLogBase@@AA_N@Z 00534c1a f   ChilkatDbgDll:ChilkatSocket.obj
 0001:00134192       ?connectSocketInner@ChilkatSocket@@AAE_NPAXHIAAVSocketParams@@AAVLogBase@@@Z 00535192 f   ChilkatDbgDll:ChilkatSocket.obj
 0001:001345c3       ?logConnectFailReason@ChilkatSocket@@SAXHAAVLogBase@@@Z 005355c3 f   ChilkatDbgDll:ChilkatSocket.obj
 0001:00134869       ?logAddrInfoList@ChilkatSocket@@AAEXPAXAAVLogBase@@@Z 00535869 f   ChilkatDbgDll:ChilkatSocket.obj
 0001:001349bb       ?findIpv4AddrInfo@ChilkatSocket@@AAEPAXPAXAAVLogBase@@@Z 005359bb f   ChilkatDbgDll:ChilkatSocket.obj
 0001:00134a40       ?findIpv6AddrInfo@ChilkatSocket@@AAEPAXPAXAAVLogBase@@@Z 00535a40 f   ChilkatDbgDll:ChilkatSocket.obj
 0001:00134aa0       ?dnsLookup@ChilkatSocket@@QAE_NPBDIIAAVSocketParams@@AAVLogBase@@AAVXString@@AAI@Z 00535aa0 f   ChilkatDbgDll:ChilkatSocket.obj
 0001:00134ead       ?getAddressInfo@ChilkatSocket@@SA_NPBDHPAXAAVLogBase@@PAPAX@Z 00535ead f   ChilkatDbgDll:ChilkatSocket.obj
 0001:00135261       ?connectSocket2_ipv6@ChilkatSocket@@AAE_NPBDH_NIAAVSocketParams@@AAVLogBase@@AA_N@Z 00536261 f   ChilkatDbgDll:ChilkatSocket.obj
 0001:00135ce4       ?waitWriteableMs@ChilkatSocket@@QAE_NI_N0AAVSocketParams@@AAVLogBase@@@Z 00536ce4 f   ChilkatDbgDll:ChilkatSocket.obj
 0001:001360c2       ?forcedDelay@ChilkatSocket@@QAE_NIAAVSocketParams@@AAVLogBase@@@Z 005370c2 f   ChilkatDbgDll:ChilkatSocket.obj
 0001:0013618f       ?waitWriteableMsHB@ChilkatSocket@@QAE_NI_NAAVSocketParams@@AAVLogBase@@@Z 0053718f f   ChilkatDbgDll:ChilkatSocket.obj
 0001:00136628       ?bindSysCall2@ChilkatSocket@@AAE_NPAXHAAVLogBase@@@Z 00537628 f   ChilkatDbgDll:ChilkatSocket.obj
 0001:00136703       ?listenOnPort@ChilkatSocket@@QAE_NAAHH_NAAVLogBase@@@Z 00537703 f   ChilkatDbgDll:ChilkatSocket.obj
 0001:00136965       ?GetMyIp@ChilkatSocket@@QAE_NAAVStringBuffer@@AAVLogBase@@@Z 00537965 f   ChilkatDbgDll:ChilkatSocket.obj
 0001:00136a4b       ?GetLocalHostName@ChilkatSocket@@SA_NAAVStringBuffer@@AAVLogBase@@@Z 00537a4b f   ChilkatDbgDll:ChilkatSocket.obj
 0001:00136ae1       ?getLocalHostName_inner@ChilkatSocket@@CA_NAAVStringBuffer@@AAVLogBase@@@Z 00537ae1 f   ChilkatDbgDll:ChilkatSocket.obj
 0001:00136cc9       ?NewSocketAndListen@ChilkatSocket@@QAE_N_NAAVLogBase@@@Z 00537cc9 f   ChilkatDbgDll:ChilkatSocket.obj
 0001:00136e17       ?NewSocketAndListenAtPort@ChilkatSocket@@QAE_N_NHAAVLogBase@@@Z 00537e17 f   ChilkatDbgDll:ChilkatSocket.obj
 0001:00136f94       ?bindToPort2@ChilkatSocket@@AAE_N_NHPBDAAVLogBase@@@Z 00537f94 f   ChilkatDbgDll:ChilkatSocket.obj
 0001:00136ffc       ?bind_ipv4@ChilkatSocket@@AAE_NGPBDAAVLogBase@@@Z 00537ffc f   ChilkatDbgDll:ChilkatSocket.obj
 0001:001370b3       ?bind_ipv6@ChilkatSocket@@AAE_NGPBDAAVLogBase@@@Z 005380b3 f   ChilkatDbgDll:ChilkatSocket.obj
 0001:001371b9       ?NewSocketAndListenAtPortRange@ChilkatSocket@@QAE_N_NHHAAVLogBase@@@Z 005381b9 f   ChilkatDbgDll:ChilkatSocket.obj
 0001:00137441       ?LastSendWouldBlock@ChilkatSocket@@QBE_NXZ 00538441 f   ChilkatDbgDll:ChilkatSocket.obj
 0001:00137467       ?IsConnected@ChilkatSocket@@QAE_NAAVLogBase@@@Z 00538467 f   ChilkatDbgDll:ChilkatSocket.obj
 0001:0013767a       ?isInvalidSocket@ChilkatSocket@@QAE_NXZ 0053867a f   ChilkatDbgDll:ChilkatSocket.obj
 0001:0013769d       ?passiveClose@ChilkatSocket@@QAE_NAAVLogBase@@@Z 0053869d f   ChilkatDbgDll:ChilkatSocket.obj
 0001:00137889       ?sendFinOnly@ChilkatSocket@@QAE_NAAVLogBase@@@Z 00538889 f   ChilkatDbgDll:ChilkatSocket.obj
 0001:001379cf       ?terminateConnection@ChilkatSocket@@QAE_NIPAVProgressMonitor@@AAVLogBase@@@Z 005389cf f   ChilkatDbgDll:ChilkatSocket.obj
 0001:00137be9       ?ensureSocketClosed@ChilkatSocket@@QAEXXZ 00538be9 f   ChilkatDbgDll:ChilkatSocket.obj
 0001:00137c45       ?GetIpAddresses@ChilkatSocket@@QBE_NPBDAAVExtPtrArray@@@Z 00538c45 f   ChilkatDbgDll:ChilkatSocket.obj
 0001:00137e71       ?GetFirstIpAddress@ChilkatSocket@@QBE_NPBDAAVStringBuffer@@@Z 00538e71 f   ChilkatDbgDll:ChilkatSocket.obj
 0001:00138053       ?waitReadableMsHB@ChilkatSocket@@QAE_NIAAVSocketParams@@AAVLogBase@@@Z 00539053 f   ChilkatDbgDll:ChilkatSocket.obj
 0001:0013818d       ?checkDataAvailable@ChilkatSocket@@QAE_NAAVSocketParams@@AAVLogBase@@@Z 0053918d f   ChilkatDbgDll:ChilkatSocket.obj
 0001:001381bf       ?waitReadableMs@ChilkatSocket@@QAE_NI_NAAVSocketParams@@AAVLogBase@@@Z 005391bf f   ChilkatDbgDll:ChilkatSocket.obj
 0001:00138430       ?waitReadableSocketHB@ChilkatSocket@@QAE_NIAAVSocketParams@@AAVLogBase@@@Z 00539430 f   ChilkatDbgDll:ChilkatSocket.obj
 0001:0013879d       ?SendString@ChilkatSocket@@QAE_NABVStringBuffer@@IIAAVLogBase@@AAVSocketParams@@@Z 0053979d f   ChilkatDbgDll:ChilkatSocket.obj
 0001:001387e5       ?SendBytes@ChilkatSocket@@QAE_NABVDataBuffer@@IIAAVLogBase@@AAVSocketParams@@@Z 005397e5 f   ChilkatDbgDll:ChilkatSocket.obj
 0001:00138866       ?checkWriteable@ChilkatSocket@@QAEHIAAVLogBase@@AAVSocketParams@@@Z 00539866 f   ChilkatDbgDll:ChilkatSocket.obj
 0001:0013894a       ?SendBytes2@ChilkatSocket@@QAE_NPBEIIIAAVLogBase@@AAVSocketParams@@@Z 0053994a f   ChilkatDbgDll:ChilkatSocket.obj
 0001:00138cf2       ?SendBytesAndAccumulate@ChilkatSocket@@QAE_NPBEIIHIIAAVLogBase@@AAVSocketParams@@AAVDataBuffer@@AAI@Z 00539cf2 f   ChilkatDbgDll:ChilkatSocket.obj
 0001:00139233       ?SendOnSocket@ChilkatSocket@@QAE_NPBEHIIAAVLogBase@@AAVSocketParams@@@Z 0053a233 f   ChilkatDbgDll:ChilkatSocket.obj
 0001:00139271       ?ReceiveNBytes_2@ChilkatSocket@@QAE_NPAEIIAAVSocketParams@@AAVLogBase@@AAI@Z 0053a271 f   ChilkatDbgDll:ChilkatSocket.obj
 0001:0013942f       ?receiveAfterFin@ChilkatSocket@@AAE_NIPAVProgressMonitor@@AAVLogBase@@@Z 0053a42f f   ChilkatDbgDll:ChilkatSocket.obj
 0001:001395f3       ?ReceiveBytes2@ChilkatSocket@@QAE_NPAEAAIIAAVSocketParams@@AAVLogBase@@@Z 0053a5f3 f   ChilkatDbgDll:ChilkatSocket.obj
 0001:001398a5       ?receiveBytesNonBlocking@ChilkatSocket@@AAE_NAAVDataBuffer@@AAVSocketParams@@AAVLogBase@@@Z 0053a8a5 f   ChilkatDbgDll:ChilkatSocket.obj
 0001:00139aff       ?ReceiveBytes@ChilkatSocket@@QAE_NAAVDataBuffer@@IIAAVSocketParams@@AAVLogBase@@@Z 0053aaff f   ChilkatDbgDll:ChilkatSocket.obj
 0001:00139c1b       ?sockReceiveToOutput@ChilkatSocket@@QAEXAAVOutput@@_JIPAVPerformanceMon@@AA_NAAIAA_JIAAVSocketParams@@AAVLogBase@@@Z 0053ac1b f   ChilkatDbgDll:ChilkatSocket.obj
 0001:00139f2a       ?getTempChunkBuf@ChilkatSocket@@AAE_NAAIAAVByteArrayOwner@@AAVLogBase@@@Z 0053af2a f   ChilkatDbgDll:ChilkatSocket.obj
 0001:0013a012       ?ReadToDoubleCRLF@ChilkatSocket@@QAE_NAAVDataBuffer@@IAAVLogBase@@AAVSocketParams@@@Z 0053b012 f   ChilkatDbgDll:ChilkatSocket.obj
 0001:0013a11d       ?ReadToNextCRLF@ChilkatSocket@@QAE_NAAVDataBuffer@@IAAVLogBase@@AAVSocketParams@@@Z 0053b11d f   ChilkatDbgDll:ChilkatSocket.obj
 0001:0013a22f       ?ReadUntilByte@ChilkatSocket@@QAE_NAAVDataBuffer@@EIAAVLogBase@@AAVSocketParams@@@Z 0053b22f f   ChilkatDbgDll:ChilkatSocket.obj
 0001:0013a31b       ?ReadToNextEndOfLine@ChilkatSocket@@QAE_NAAVDataBuffer@@IAAVLogBase@@AAVSocketParams@@_N@Z 0053b31b f   ChilkatDbgDll:ChilkatSocket.obj
 0001:0013a41d       ?ReadN_1@ChilkatSocket@@QAE_NIAAVDataBuffer@@IAAVSocketParams@@AAVLogBase@@AAI@Z 0053b41d f   ChilkatDbgDll:ChilkatSocket.obj
 0001:0013a79c       ?ReadNToOutput64@ChilkatSocket@@QAE_N_JAAVOutput@@IAAVSocketParams@@AAVLogBase@@PAVLoggedSocket2@@@Z 0053b79c f   ChilkatDbgDll:ChilkatSocket.obj
 0001:0013a8bf       ?ReadNToOutput@ChilkatSocket@@QAE_NIAAVOutput@@IAAVSocketParams@@AAVLogBase@@PAVLoggedSocket2@@@Z 0053b8bf f   ChilkatDbgDll:ChilkatSocket.obj
 0001:0013aa68       ?canonicalize2@ChilkatSocket@@SAXPBDAAVStringBuffer@@@Z 0053ba68 f   ChilkatDbgDll:ChilkatSocket.obj
 0001:0013ad82       ?canonicalize@ChilkatSocket@@SAXPBDAAVStringBuffer@@@Z 0053bd82 f   ChilkatDbgDll:ChilkatSocket.obj
 0001:0013ada0       ?IN6_IS_ADDR_V4MAPPED@@YAHPBUin6_addr@@@Z 0053bda0 f i ChilkatDbgDll:ChilkatSocket.obj
 0001:0013ae20       ?IN6_IS_ADDR_V4COMPAT@@YAHPBUin6_addr@@@Z 0053be20 f i ChilkatDbgDll:ChilkatSocket.obj
 0001:0013aed0       ??_GChilkatSocket@@UAEPAXI@Z 0053bed0 f i ChilkatDbgDll:ChilkatSocket.obj
 0001:0013aed0       ??_EChilkatSocket@@UAEPAXI@Z 0053bed0 f i ChilkatDbgDll:ChilkatSocket.obj
 0001:0013af10       ??0SshMessage@@QAE@XZ      0053bf10 f   ChilkatDbgDll:SshMessage.obj
 0001:0013af2e       ??1SshMessage@@UAE@XZ      0053bf2e f   ChilkatDbgDll:SshMessage.obj
 0001:0013af49       ?pack_bool@SshMessage@@SAX_NAAVDataBuffer@@@Z 0053bf49 f   ChilkatDbgDll:SshMessage.obj
 0001:0013af77       ?pack_uint32@SshMessage@@SAXIAAVDataBuffer@@@Z 0053bf77 f   ChilkatDbgDll:SshMessage.obj
 0001:0013afee       ?pack_int64@SshMessage@@SAX_JAAVDataBuffer@@@Z 0053bfee f   ChilkatDbgDll:SshMessage.obj
 0001:0013b090       ?pack_bignum@SshMessage@@SAXPAIAAVDataBuffer@@@Z 0053c090 f   ChilkatDbgDll:SshMessage.obj
 0001:0013b149       ?pack_string@SshMessage@@SAXPBDAAVDataBuffer@@@Z 0053c149 f   ChilkatDbgDll:SshMessage.obj
 0001:0013b1a6       ?pack_filename@SshMessage@@SAXAAVXString@@AAVStringBuffer@@AAVDataBuffer@@@Z 0053c1a6 f   ChilkatDbgDll:SshMessage.obj
 0001:0013b30f       ?pack_sb@SshMessage@@SAXABVStringBuffer@@AAVDataBuffer@@@Z 0053c30f f   ChilkatDbgDll:SshMessage.obj
 0001:0013b360       ?pack_db@SshMessage@@SAXABVDataBuffer@@AAV2@@Z 0053c360 f   ChilkatDbgDll:SshMessage.obj
 0001:0013b3a8       ?pack_binString@SshMessage@@SAXPBEIAAVDataBuffer@@@Z 0053c3a8 f   ChilkatDbgDll:SshMessage.obj
 0001:0013b3dc       ?parseUtf8@SshMessage@@SA_NAAVDataBuffer@@AAIAAVXString@@@Z 0053c3dc f   ChilkatDbgDll:SshMessage.obj
 0001:0013b49e       ?parseString@SshMessage@@SA_NAAVDataBuffer@@AAIAAVStringBuffer@@@Z 0053c49e f   ChilkatDbgDll:SshMessage.obj
 0001:0013b5db       ?parseBinaryString@SshMessage@@SA_NAAVDataBuffer@@AAI0AAVLogBase@@@Z 0053c5db f   ChilkatDbgDll:SshMessage.obj
 0001:0013b7c2       ?parseInt64@SshMessage@@SA_NAAVDataBuffer@@AAIAA_J@Z 0053c7c2 f   ChilkatDbgDll:SshMessage.obj
 0001:0013b92a       ?parseUint32@SshMessage@@SA_NAAVDataBuffer@@AAI1@Z 0053c92a f   ChilkatDbgDll:SshMessage.obj
 0001:0013ba22       ?parseBytes@SshMessage@@SA_NAAVDataBuffer@@AAIH0@Z 0053ca22 f   ChilkatDbgDll:SshMessage.obj
 0001:0013baa6       ?parseByte@SshMessage@@SA_NAAVDataBuffer@@AAIAAE@Z 0053caa6 f   ChilkatDbgDll:SshMessage.obj
 0001:0013bb1c       ?parseBool@SshMessage@@SA_NAAVDataBuffer@@AAIAA_N@Z 0053cb1c f   ChilkatDbgDll:SshMessage.obj
 0001:0013bbaa       ?parseMpInt@SshMessage@@SA_NAAVDataBuffer@@AAIAAVmp_int@@AAVLogBase@@@Z 0053cbaa f   ChilkatDbgDll:SshMessage.obj
 0001:0013bc71       ?xmlToPublicKeyBlob@SshMessage@@SA_NAAVStringBuffer@@AAVDataBuffer@@AAVLogBase@@@Z 0053cc71 f   ChilkatDbgDll:SshMessage.obj
 0001:0013c14a       ?xmlToPrivateKeyBlob@SshMessage@@SA_NAAVStringBuffer@@AAVDataBuffer@@AAVLogBase@@@Z 0053d14a f   ChilkatDbgDll:SshMessage.obj
 0001:0013c519       ?publicKeyBlobToXml@SshMessage@@SA_NAAVDataBuffer@@AAVStringBuffer@@AAHAAIAAVLogBase@@@Z 0053d519 f   ChilkatDbgDll:SshMessage.obj
 0001:0013c98b       ?privateKeyBlobToXml@SshMessage@@SA_NHAAVDataBuffer@@IAAVStringBuffer@@AAVLogBase@@@Z 0053d98b f   ChilkatDbgDll:SshMessage.obj
 0001:0013cd70       ??_GSshMessage@@UAEPAXI@Z  0053dd70 f i ChilkatDbgDll:SshMessage.obj
 0001:0013cd70       ??_ESshMessage@@UAEPAXI@Z  0053dd70 f i ChilkatDbgDll:SshMessage.obj
 0001:0013cdb0       ??ESUI64@@QAEAAU0@XZ       0053ddb0 f   ChilkatDbgDll:Sha2.obj
 0001:0013cdfe       ??FSUI64@@QAEAAU0@XZ       0053ddfe f   ChilkatDbgDll:Sha2.obj
 0001:0013ce4c       ??YSUI64@@QAEAAU0@ABU0@@Z  0053de4c f   ChilkatDbgDll:Sha2.obj
 0001:0013ce9f       ??_5SUI64@@QAEAAU0@ABU0@@Z 0053de9f f   ChilkatDbgDll:Sha2.obj
 0001:0013ced7       ??_4SUI64@@QAEAAU0@ABU0@@Z 0053ded7 f   ChilkatDbgDll:Sha2.obj
 0001:0013cf0f       ??_6SUI64@@QAEAAU0@ABU0@@Z 0053df0f f   ChilkatDbgDll:Sha2.obj
 0001:0013cf47       ??_3SUI64@@QAEAAU0@I@Z     0053df47 f   ChilkatDbgDll:Sha2.obj
 0001:0013cfbf       ??_2SUI64@@QAEAAU0@I@Z     0053dfbf f   ChilkatDbgDll:Sha2.obj
 0001:0013d037       ??OSUI64@@QBE_NABU0@@Z     0053e037 f   ChilkatDbgDll:Sha2.obj
 0001:0013d077       ??MSUI64@@QBE_NABU0@@Z     0053e077 f   ChilkatDbgDll:Sha2.obj
 0001:0013d0b7       ?calcSha384_bytes@Sha2@@SAXPBEIAAVDataBuffer@@@Z 0053e0b7 f   ChilkatDbgDll:Sha2.obj
 0001:0013d128       ?calcSha512_bytes@Sha2@@SAXPBEIAAVDataBuffer@@@Z 0053e128 f   ChilkatDbgDll:Sha2.obj
 0001:0013d199       ?calcSha256_bytes@Sha2@@SAXPBEIAAVDataBuffer@@@Z 0053e199 f   ChilkatDbgDll:Sha2.obj
 0001:0013d21a       ?calcSha256@Sha2@@SAXABVDataBuffer@@AAV2@@Z 0053e21a f   ChilkatDbgDll:Sha2.obj
 0001:0013d295       ?createSha256@Sha2@@SAPAV1@XZ 0053e295 f   ChilkatDbgDll:Sha2.obj
 0001:0013d320       ?createSha384@Sha2@@SAPAV1@XZ 0053e320 f   ChilkatDbgDll:Sha2.obj
 0001:0013d3ab       ?createSha512@Sha2@@SAPAV1@XZ 0053e3ab f   ChilkatDbgDll:Sha2.obj
 0001:0013d436       ?createSha160@Sha2@@SAPAV1@XZ 0053e436 f   ChilkatDbgDll:Sha2.obj
 0001:0013d4c1       ?calcSha256DataSource@Sha2@@SA_NAAVDataSource@@AAVDataBuffer@@PAVProgressMonitor@@AAVLogBase@@PAV3@@Z 0053e4c1 f   ChilkatDbgDll:Sha2.obj
 0001:0013d62e       ?calcSha384DataSource@Sha2@@SA_NAAVDataSource@@AAVDataBuffer@@PAVProgressMonitor@@AAVLogBase@@PAV3@@Z 0053e62e f   ChilkatDbgDll:Sha2.obj
 0001:0013d79b       ?calcSha512DataSource@Sha2@@SA_NAAVDataSource@@AAVDataBuffer@@PAVProgressMonitor@@AAVLogBase@@PAV3@@Z 0053e79b f   ChilkatDbgDll:Sha2.obj
 0001:0013d908       ?calcSha384@Sha2@@SAXABVDataBuffer@@AAV2@@Z 0053e908 f   ChilkatDbgDll:Sha2.obj
 0001:0013d983       ?calcSha512@Sha2@@SAXABVDataBuffer@@AAV2@@Z 0053e983 f   ChilkatDbgDll:Sha2.obj
 0001:0013d9fe       ??0Sha2@@AAE@H@Z           0053e9fe f   ChilkatDbgDll:Sha2.obj
 0001:0013dbd1       ?AddData@Sha2@@QAEXPBDI@Z  0053ebd1 f   ChilkatDbgDll:Sha2.obj
 0001:0013dee3       ?FinalDigest@Sha2@@QAEXPAD@Z 0053eee3 f   ChilkatDbgDll:Sha2.obj
 0001:0013e1e2       ?Reset@Sha2@@QAEXXZ        0053f1e2 f   ChilkatDbgDll:Sha2.obj
 0001:0013e3aa       ?Transform@Sha2@@AAEXXZ    0053f3aa f   ChilkatDbgDll:Sha2.obj
 0001:001490c0       ?Word2Bytes@Sha2@@CAXABIPAE@Z 0054a0c0 f i ChilkatDbgDll:Sha2.obj
 0001:00149140       ?Word2Bytes@Sha2@@CAXABUSUI64@@PAE@Z 0054a140 f i ChilkatDbgDll:Sha2.obj
 0001:00149180       ??H@YA?AUSUI64@@ABU0@0@Z   0054a180 f i ChilkatDbgDll:Sha2.obj
 0001:001491d0       ?CircularShift@Sha2@@CAIII@Z 0054a1d0 f i ChilkatDbgDll:Sha2.obj
 0001:001491f0       ?CH@Sha2@@CAIIII@Z         0054a1f0 f i ChilkatDbgDll:Sha2.obj
 0001:00149210       ?MAJ@Sha2@@CAIIII@Z        0054a210 f i ChilkatDbgDll:Sha2.obj
 0001:00149230       ?SIG0@Sha2@@CAII@Z         0054a230 f i ChilkatDbgDll:Sha2.obj
 0001:00149270       ?SIG1@Sha2@@CAII@Z         0054a270 f i ChilkatDbgDll:Sha2.obj
 0001:001492b0       ?sig0@Sha2@@CAII@Z         0054a2b0 f i ChilkatDbgDll:Sha2.obj
 0001:001492e0       ?sig1@Sha2@@CAII@Z         0054a2e0 f i ChilkatDbgDll:Sha2.obj
 0001:00149310       ?Bytes2Word@Sha2@@CAXPBEAAI@Z 0054a310 f i ChilkatDbgDll:Sha2.obj
 0001:00149350       ?CH@Sha2@@CA?AUSUI64@@ABU2@00@Z 0054a350 f i ChilkatDbgDll:Sha2.obj
 0001:001493d0       ??I@YA?AUSUI64@@ABU0@0@Z   0054a3d0 f i ChilkatDbgDll:Sha2.obj
 0001:00149420       ??T@YA?AUSUI64@@ABU0@0@Z   0054a420 f i ChilkatDbgDll:Sha2.obj
 0001:00149470       ?MAJ@Sha2@@CA?AUSUI64@@ABU2@00@Z 0054a470 f i ChilkatDbgDll:Sha2.obj
 0001:00149500       ??U@YA?AUSUI64@@ABU0@0@Z   0054a500 f i ChilkatDbgDll:Sha2.obj
 0001:00149550       ?SIG0@Sha2@@CA?AUSUI64@@ABU2@@Z 0054a550 f i ChilkatDbgDll:Sha2.obj
 0001:00149670       ??6@YA?AUSUI64@@ABU0@I@Z   0054a670 f i ChilkatDbgDll:Sha2.obj
 0001:001496c0       ??5@YA?AUSUI64@@ABU0@I@Z   0054a6c0 f i ChilkatDbgDll:Sha2.obj
 0001:00149710       ?SIG1@Sha2@@CA?AUSUI64@@ABU2@@Z 0054a710 f i ChilkatDbgDll:Sha2.obj
 0001:00149830       ?sig0@Sha2@@CA?AUSUI64@@ABU2@@Z 0054a830 f i ChilkatDbgDll:Sha2.obj
 0001:00149920       ?sig1@Sha2@@CA?AUSUI64@@ABU2@@Z 0054a920 f i ChilkatDbgDll:Sha2.obj
 0001:00149a10       ?Bytes2Word@Sha2@@CAXPBEAAUSUI64@@@Z 0054aa10 f i ChilkatDbgDll:Sha2.obj
 0001:00149a50       ??0DataLog@@QAE@XZ         0054aa50 f   ChilkatDbgDll:DataLog.obj
 0001:00149aed       ??1DataLog@@UAE@XZ         0054aaed f   ChilkatDbgDll:DataLog.obj
 0001:00149b7f       ?append1@DataLog@@QAEXPBDAAVDataBuffer@@I@Z 0054ab7f f   ChilkatDbgDll:DataLog.obj
 0001:00149bbf       ?append2@DataLog@@QAEXPBDPBEII@Z 0054abbf f   ChilkatDbgDll:DataLog.obj
 0001:00149d55       ?append@DataLog@@QAEXPBDAAVDataBuffer@@@Z 0054ad55 f   ChilkatDbgDll:DataLog.obj
 0001:00149d85       ?clear@DataLog@@QAEXXZ     0054ad85 f   ChilkatDbgDll:DataLog.obj
 0001:00149dac       ?toString@DataLog@@QAEXPBDAAVXString@@@Z 0054adac f   ChilkatDbgDll:DataLog.obj
 0001:00149fa2       ?toEscapedString@DataLog@@SAXAAVDataBuffer@@AAVXString@@H@Z 0054afa2 f   ChilkatDbgDll:DataLog.obj
 0001:0014a6d5       ?toEscapedString2@DataLog@@SAXAAVDataBuffer@@AAVXString@@@Z 0054b6d5 f   ChilkatDbgDll:DataLog.obj
 0001:0014ac4d       ?fromEscapedString@DataLog@@SAXAAVXString@@AAVDataBuffer@@@Z 0054bc4d f   ChilkatDbgDll:DataLog.obj
 0001:0014b0fa       ?toHex@DataLog@@SAXAAVDataBuffer@@AAVXString@@H@Z 0054c0fa f   ChilkatDbgDll:DataLog.obj
 0001:0014b360       ??_GDataLog@@UAEPAXI@Z     0054c360 f i ChilkatDbgDll:DataLog.obj
 0001:0014b360       ??_EDataLog@@UAEPAXI@Z     0054c360 f i ChilkatDbgDll:DataLog.obj
 0001:0014b3a0       ??0HttpProxyClient@@QAE@XZ 0054c3a0 f   ChilkatDbgDll:HttpProxyClient.obj
 0001:0014b3be       ??1HttpProxyClient@@UAE@XZ 0054c3be f   ChilkatDbgDll:HttpProxyClient.obj
 0001:0014b3d9       ?consumeChunkedResponse@HttpProxyClient@@SA_NAAVChilkatSocket@@IPAVProgressMonitor@@AAVLogBase@@AAVDataBuffer@@@Z 0054c3d9 f   ChilkatDbgDll:HttpProxyClient.obj
 0001:0014b7cf       ?httpProxyConnect@HttpProxyClient@@SA_N_NAAVChilkatSocket@@PBDH02IIAAVSocketParams@@AAVLogBase@@AA_NAAHAAVClsHttpProxyClient@@@Z 0054c7cf f   ChilkatDbgDll:HttpProxyClient.obj
 0001:0014c56f       ?proxyConnectNtlm@HttpProxyClient@@SA_NPBDH0H_N0AAVXString@@22AAVChilkatSocket@@IIAA_NAAHAAVSocketParams@@AAVLogBase@@@Z 0054d56f f   ChilkatDbgDll:HttpProxyClient.obj
 0001:0014d470       ??_EHttpProxyClient@@UAEPAXI@Z 0054e470 f i ChilkatDbgDll:HttpProxyClient.obj
 0001:0014d470       ??_GHttpProxyClient@@UAEPAXI@Z 0054e470 f i ChilkatDbgDll:HttpProxyClient.obj
 0001:0014d4b0       ??0SocksClient@@QAE@XZ     0054e4b0 f   ChilkatDbgDll:SocksClient.obj
 0001:0014d4ce       ??1SocksClient@@UAE@XZ     0054e4ce f   ChilkatDbgDll:SocksClient.obj
 0001:0014d4e9       ?dnsLookup@SocksClient@@CA_NAAVChilkatSocket@@PBDIIAAVSocketParams@@AAVLogBase@@AAVXString@@@Z 0054e4e9 f   ChilkatDbgDll:SocksClient.obj
 0001:0014d5f4       ?socks4Connect@SocksClient@@SA_NAAVChilkatSocket@@PBDH_N1IIAAVSocketParams@@AAVLogBase@@AA_NAAHAAVClsSocksClient@@@Z 0054e5f4 f   ChilkatDbgDll:SocksClient.obj
 0001:0014dde0       ?socks5Connect@SocksClient@@SA_NAAVChilkatSocket@@PBDH_N1IIAAVSocketParams@@AAVLogBase@@AA_NAAHAAVClsSocksClient@@@Z 0054ede0 f   ChilkatDbgDll:SocksClient.obj
 0001:0014f390       ??_ESocksClient@@UAEPAXI@Z 00550390 f i ChilkatDbgDll:SocksClient.obj
 0001:0014f390       ??_GSocksClient@@UAEPAXI@Z 00550390 f i ChilkatDbgDll:SocksClient.obj
 0001:0014f3d0       ?createNewCls@ClsSshKey@@SAPAV1@XZ 005503d0 f   ChilkatDbgDll:ClsSshKey.obj
 0001:0014f48e       ??0ClsSshKey@@QAE@XZ       0055048e f   ChilkatDbgDll:ClsSshKey.obj
 0001:0014f57b       ??1ClsSshKey@@UAE@XZ       0055057b f   ChilkatDbgDll:ClsSshKey.obj
 0001:0014f650       ?get_IsPrivateKey@ClsSshKey@@QAE_NXZ 00550650 f   ChilkatDbgDll:ClsSshKey.obj
 0001:0014f681       ?get_IsRsaKey@ClsSshKey@@QAE_NXZ 00550681 f   ChilkatDbgDll:ClsSshKey.obj
 0001:0014f6a1       ?get_IsDsaKey@ClsSshKey@@QAE_NXZ 005506a1 f   ChilkatDbgDll:ClsSshKey.obj
 0001:0014f6c1       ?validateDecryptedKey@ClsSshKey@@AAE_NAAVLogBase@@@Z 005506c1 f   ChilkatDbgDll:ClsSshKey.obj
 0001:0014f898       ?GenFingerprint@ClsSshKey@@QAE_NAAVXString@@@Z 00550898 f   ChilkatDbgDll:ClsSshKey.obj
 0001:0014fb54       ?put_Password@ClsSshKey@@QAEXAAVXString@@@Z 00550b54 f   ChilkatDbgDll:ClsSshKey.obj
 0001:0014fbea       ?get_Password@ClsSshKey@@QAEXAAVXString@@@Z 00550bea f   ChilkatDbgDll:ClsSshKey.obj
 0001:0014fc99       ?put_Comment@ClsSshKey@@QAEXAAVXString@@@Z 00550c99 f   ChilkatDbgDll:ClsSshKey.obj
 0001:0014fcc9       ?get_Comment@ClsSshKey@@QAEXAAVXString@@@Z 00550cc9 f   ChilkatDbgDll:ClsSshKey.obj
 0001:0014fcf8       ?toXml@ClsSshKey@@AAE_NAAVStringBuffer@@AAVLogBase@@@Z 00550cf8 f   ChilkatDbgDll:ClsSshKey.obj
 0001:0014ff0c       ?ToXml@ClsSshKey@@QAE_NAAVXString@@@Z 00550f0c f   ChilkatDbgDll:ClsSshKey.obj
 0001:0014ff8c       ?FromXml@ClsSshKey@@QAE_NAAVXString@@@Z 00550f8c f   ChilkatDbgDll:ClsSshKey.obj
 0001:00150247       ?ToRfc4716PublicKey@ClsSshKey@@QAE_NAAVXString@@@Z 00551247 f   ChilkatDbgDll:ClsSshKey.obj
 0001:0015046e       ?ToOpenSshPublicKey@ClsSshKey@@QAE_NAAVXString@@@Z 0055146e f   ChilkatDbgDll:ClsSshKey.obj
 0001:00150658       ?LoadText@ClsSshKey@@QAE_NAAVXString@@0@Z 00551658 f   ChilkatDbgDll:ClsSshKey.obj
 0001:00150771       ?SaveText@ClsSshKey@@QAE_NAAVXString@@0@Z 00551771 f   ChilkatDbgDll:ClsSshKey.obj
 0001:0015087f       ?ToPuttyPrivateKey@ClsSshKey@@QAE_N_NAAVXString@@@Z 0055187f f   ChilkatDbgDll:ClsSshKey.obj
 0001:001514f8       ?generateSecretKey@ClsSshKey@@AAEXAAVDataBuffer@@0AAVLogBase@@@Z 005524f8 f   ChilkatDbgDll:ClsSshKey.obj
 0001:0015168a       ?ToOpenSshPrivateKey@ClsSshKey@@QAE_N_NAAVXString@@@Z 0055268a f   ChilkatDbgDll:ClsSshKey.obj
 0001:00151a55       ?clear@ClsSshKey@@AAEXXZ   00552a55 f   ChilkatDbgDll:ClsSshKey.obj
 0001:00151aa6       ?FromRfc4716PublicKey@ClsSshKey@@QAE_NAAVXString@@@Z 00552aa6 f   ChilkatDbgDll:ClsSshKey.obj
 0001:00151b19       ?fromRfc4716PublicKey@ClsSshKey@@QAE_NAAVXString@@AAVLogBase@@@Z 00552b19 f   ChilkatDbgDll:ClsSshKey.obj
 0001:00152110       ?FromOpenSshPublicKey@ClsSshKey@@QAE_NAAVXString@@@Z 00553110 f   ChilkatDbgDll:ClsSshKey.obj
 0001:00152183       ?fromOpenSshPublicKey@ClsSshKey@@QAE_NAAVXString@@AAVLogBase@@@Z 00553183 f   ChilkatDbgDll:ClsSshKey.obj
 0001:00152503       ?splitHeaderLine@ClsSshKey@@AAEXAAVStringBuffer@@00@Z 00553503 f   ChilkatDbgDll:ClsSshKey.obj
 0001:001525b4       ?blobsToDerPrivate@ClsSshKey@@AAE_NAAVDataBuffer@@0@Z 005535b4 f   ChilkatDbgDll:ClsSshKey.obj
 0001:001529ab       ?getPublicKeyBlob@ClsSshKey@@QAE_NAAVDataBuffer@@AAVLogBase@@@Z 005539ab f   ChilkatDbgDll:ClsSshKey.obj
 0001:00152aea       ?fromPuttyPrivateKey@ClsSshKey@@QAE_NAAVXString@@AAVLogBase@@@Z 00553aea f   ChilkatDbgDll:ClsSshKey.obj
 0001:0015429d       ?FromPuttyPrivateKey@ClsSshKey@@QAE_NAAVXString@@@Z 0055529d f   ChilkatDbgDll:ClsSshKey.obj
 0001:00154310       ?toRsaKey@ClsSshKey@@QAE_NAAVrsa_key@@AAVLogBase@@@Z 00555310 f   ChilkatDbgDll:ClsSshKey.obj
 0001:001543e7       ?toDsaPublicKey@ClsSshKey@@QAE_NAAUdsa_key@@AAVLogBase@@@Z 005553e7 f   ChilkatDbgDll:ClsSshKey.obj
 0001:001544c0       ?toDsaKey@ClsSshKey@@QAE_NAAUdsa_key@@AAVLogBase@@@Z 005554c0 f   ChilkatDbgDll:ClsSshKey.obj
 0001:00154597       ?fromOpenSshPrivateKey@ClsSshKey@@QAE_NAAVXString@@AAVLogBase@@@Z 00555597 f   ChilkatDbgDll:ClsSshKey.obj
 0001:00154cb3       ?FromOpenSshPrivateKey@ClsSshKey@@QAE_NAAVXString@@@Z 00555cb3 f   ChilkatDbgDll:ClsSshKey.obj
 0001:00154d26       ?GenerateRsaKey@ClsSshKey@@QAE_NHH@Z 00555d26 f   ChilkatDbgDll:ClsSshKey.obj
 0001:00154f9a       ?GenerateDsaKey@ClsSshKey@@QAE_NH@Z 00555f9a f   ChilkatDbgDll:ClsSshKey.obj
 0001:001551a0       ??_EClsSshKey@@UAEPAXI@Z   005561a0 f i ChilkatDbgDll:ClsSshKey.obj
 0001:001551a0       ??_GClsSshKey@@UAEPAXI@Z   005561a0 f i ChilkatDbgDll:ClsSshKey.obj
 0001:001551e0       ??_EClsSshKey@@W7AEPAXI@Z  005561e0 f i ChilkatDbgDll:ClsSshKey.obj
 0001:001551f0       ??0Oid@@QAE@XZ             005561f0 f   ChilkatDbgDll:Oid.obj
 0001:00155218       ??1Oid@@UAE@XZ             00556218 f   ChilkatDbgDll:Oid.obj
 0001:00155233       ?setByString@Oid@@QAEXPBD@Z 00556233 f   ChilkatDbgDll:Oid.obj
 0001:001552eb       ?getString@Oid@@QAEXAAVStringBuffer@@@Z 005562eb f   ChilkatDbgDll:Oid.obj
 0001:00155354       ?setByLongs@Oid@@QAEXPAIH@Z 00556354 f   ChilkatDbgDll:Oid.obj
 0001:001553bb       ?get_Count@Oid@@QBEHXZ     005563bb f   ChilkatDbgDll:Oid.obj
 0001:001553d3       ?getLongs@Oid@@QAEPBIXZ    005563d3 f   ChilkatDbgDll:Oid.obj
 0001:001553f0       ??_GOid@@UAEPAXI@Z         005563f0 f i ChilkatDbgDll:Oid.obj
 0001:001553f0       ??_EOid@@UAEPAXI@Z         005563f0 f i ChilkatDbgDll:Oid.obj
 0001:00155430       ??0Md2@@QAE@XZ             00556430 f   ChilkatDbgDll:Md2.obj
 0001:0015544e       ??1Md2@@UAE@XZ             0055644e f   ChilkatDbgDll:Md2.obj
 0001:00155469       ?md2_db@Md2@@QAEXABVDataBuffer@@AAV2@@Z 00556469 f   ChilkatDbgDll:Md2.obj
 0001:001554b5       ?md2_sb@Md2@@QAEXABVStringBuffer@@AAVDataBuffer@@@Z 005564b5 f   ChilkatDbgDll:Md2.obj
 0001:00155501       ?md2_bytes@Md2@@QAEXPBEIAAVDataBuffer@@@Z 00556501 f   ChilkatDbgDll:Md2.obj
 0001:00155543       ?initialize@Md2@@QAEXXZ    00556543 f   ChilkatDbgDll:Md2.obj
 0001:001555a2       ?finalize@Md2@@QAEXAAVDataBuffer@@@Z 005565a2 f   ChilkatDbgDll:Md2.obj
 0001:00155647       ?compress@Md2@@AAEXXZ      00556647 f   ChilkatDbgDll:Md2.obj
 0001:00155736       ?update_chksum@Md2@@AAEXXZ 00556736 f   ChilkatDbgDll:Md2.obj
 0001:001557be       ?process@Md2@@QAEXPBEI@Z   005567be f   ChilkatDbgDll:Md2.obj
 0001:0015589a       ?digestDataSource@Md2@@QAE_NAAVDataSource@@PAVProgressMonitor@@AAVLogBase@@AAVDataBuffer@@PAV5@@Z 0055689a f   ChilkatDbgDll:Md2.obj
 0001:001559e0       ??_GMd2@@UAEPAXI@Z         005569e0 f i ChilkatDbgDll:Md2.obj
 0001:001559e0       ??_EMd2@@UAEPAXI@Z         005569e0 f i ChilkatDbgDll:Md2.obj
 0001:00155a20       ??0Ripemd320@@QAE@XZ       00556a20 f   ChilkatDbgDll:Ripemd320.obj
 0001:00155a59       ??1Ripemd320@@UAE@XZ       00556a59 f   ChilkatDbgDll:Ripemd320.obj
 0001:00155a74       ?compress@Ripemd320@@AAEXXZ 00556a74 f   ChilkatDbgDll:Ripemd320.obj
 0001:00157bb7       ?initialize@Ripemd320@@QAEXXZ 00558bb7 f   ChilkatDbgDll:Ripemd320.obj
 0001:00157c48       ?process@Ripemd320@@QAEXPBEI@Z 00558c48 f   ChilkatDbgDll:Ripemd320.obj
 0001:00157d95       ?finalize@Ripemd320@@QAEXAAVDataBuffer@@@Z 00558d95 f   ChilkatDbgDll:Ripemd320.obj
 0001:00157ffd       ?ripemd320_db@Ripemd320@@QAEXABVDataBuffer@@AAV2@@Z 00558ffd f   ChilkatDbgDll:Ripemd320.obj
 0001:00158049       ?ripemd320_sb@Ripemd320@@QAEXABVStringBuffer@@AAVDataBuffer@@@Z 00559049 f   ChilkatDbgDll:Ripemd320.obj
 0001:00158095       ?ripemd320_bytes@Ripemd320@@QAEXPBEIAAVDataBuffer@@@Z 00559095 f   ChilkatDbgDll:Ripemd320.obj
 0001:001580d7       ?digestDataSource@Ripemd320@@QAE_NAAVDataSource@@PAVProgressMonitor@@AAVLogBase@@AAVDataBuffer@@PAV5@@Z 005590d7 f   ChilkatDbgDll:Ripemd320.obj
 0001:00158210       ??_GRipemd320@@UAEPAXI@Z   00559210 f i ChilkatDbgDll:Ripemd320.obj
 0001:00158210       ??_ERipemd320@@UAEPAXI@Z   00559210 f i ChilkatDbgDll:Ripemd320.obj
 0001:00158250       ??0Ripemd256@@QAE@XZ       00559250 f   ChilkatDbgDll:Ripemd256.obj
 0001:00158289       ??1Ripemd256@@UAE@XZ       00559289 f   ChilkatDbgDll:Ripemd256.obj
 0001:001582a4       ?compress@Ripemd256@@AAEXXZ 005592a4 f   ChilkatDbgDll:Ripemd256.obj
 0001:00159725       ?initialize@Ripemd256@@QAEXXZ 0055a725 f   ChilkatDbgDll:Ripemd256.obj
 0001:001597a2       ?process@Ripemd256@@QAEXPBEI@Z 0055a7a2 f   ChilkatDbgDll:Ripemd256.obj
 0001:001598ef       ?finalize@Ripemd256@@QAEXAAVDataBuffer@@@Z 0055a8ef f   ChilkatDbgDll:Ripemd256.obj
 0001:00159b57       ?ripemd256_db@Ripemd256@@QAEXABVDataBuffer@@AAV2@@Z 0055ab57 f   ChilkatDbgDll:Ripemd256.obj
 0001:00159ba3       ?ripemd256_sb@Ripemd256@@QAEXABVStringBuffer@@AAVDataBuffer@@@Z 0055aba3 f   ChilkatDbgDll:Ripemd256.obj
 0001:00159bef       ?ripemd256_bytes@Ripemd256@@QAEXPBEIAAVDataBuffer@@@Z 0055abef f   ChilkatDbgDll:Ripemd256.obj
 0001:00159c31       ?digestDataSource@Ripemd256@@QAE_NAAVDataSource@@PAVProgressMonitor@@AAVLogBase@@AAVDataBuffer@@PAV5@@Z 0055ac31 f   ChilkatDbgDll:Ripemd256.obj
 0001:00159d70       ??_GRipemd256@@UAEPAXI@Z   0055ad70 f i ChilkatDbgDll:Ripemd256.obj
 0001:00159d70       ??_ERipemd256@@UAEPAXI@Z   0055ad70 f i ChilkatDbgDll:Ripemd256.obj
 0001:00159db0       ??0Ripemd160@@QAE@XZ       0055adb0 f   ChilkatDbgDll:Ripemd160.obj
 0001:00159de9       ??1Ripemd160@@UAE@XZ       0055ade9 f   ChilkatDbgDll:Ripemd160.obj
 0001:00159e04       ?compress@Ripemd160@@AAEXXZ 0055ae04 f   ChilkatDbgDll:Ripemd160.obj
 0001:0015beaa       ?initialize@Ripemd160@@QAEXXZ 0055ceaa f   ChilkatDbgDll:Ripemd160.obj
 0001:0015bf09       ?process@Ripemd160@@QAEXPBEI@Z 0055cf09 f   ChilkatDbgDll:Ripemd160.obj
 0001:0015c056       ?finalize@Ripemd160@@QAEXAAVDataBuffer@@@Z 0055d056 f   ChilkatDbgDll:Ripemd160.obj
 0001:0015c2c5       ?ripemd160_db@Ripemd160@@QAEXABVDataBuffer@@AAV2@@Z 0055d2c5 f   ChilkatDbgDll:Ripemd160.obj
 0001:0015c311       ?ripemd160_sb@Ripemd160@@QAEXABVStringBuffer@@AAVDataBuffer@@@Z 0055d311 f   ChilkatDbgDll:Ripemd160.obj
 0001:0015c35d       ?ripemd160_bytes@Ripemd160@@QAEXPBEIAAVDataBuffer@@@Z 0055d35d f   ChilkatDbgDll:Ripemd160.obj
 0001:0015c39f       ?digestDataSource@Ripemd160@@QAE_NAAVDataSource@@PAVProgressMonitor@@AAVLogBase@@AAVDataBuffer@@PAV5@@Z 0055d39f f   ChilkatDbgDll:Ripemd160.obj
 0001:0015c4e0       ??_GRipemd160@@UAEPAXI@Z   0055d4e0 f i ChilkatDbgDll:Ripemd160.obj
 0001:0015c4e0       ??_ERipemd160@@UAEPAXI@Z   0055d4e0 f i ChilkatDbgDll:Ripemd160.obj
 0001:0015c520       ??0Ripemd128@@QAE@XZ       0055d520 f   ChilkatDbgDll:Ripemd128.obj
 0001:0015c559       ??1Ripemd128@@UAE@XZ       0055d559 f   ChilkatDbgDll:Ripemd128.obj
 0001:0015c574       ?compress@Ripemd128@@AAEXXZ 0055d574 f   ChilkatDbgDll:Ripemd128.obj
 0001:0015d979       ?initialize@Ripemd128@@QAEXXZ 0055e979 f   ChilkatDbgDll:Ripemd128.obj
 0001:0015d9ce       ?process@Ripemd128@@QAEXPBEI@Z 0055e9ce f   ChilkatDbgDll:Ripemd128.obj
 0001:0015db1b       ?finalize@Ripemd128@@QAEXAAVDataBuffer@@@Z 0055eb1b f   ChilkatDbgDll:Ripemd128.obj
 0001:0015dd87       ?ripemd128_db@Ripemd128@@QAEXABVDataBuffer@@AAV2@@Z 0055ed87 f   ChilkatDbgDll:Ripemd128.obj
 0001:0015ddd3       ?ripemd128_sb@Ripemd128@@QAEXABVStringBuffer@@AAVDataBuffer@@@Z 0055edd3 f   ChilkatDbgDll:Ripemd128.obj
 0001:0015de1f       ?ripemd128_bytes@Ripemd128@@QAEXPBEIAAVDataBuffer@@@Z 0055ee1f f   ChilkatDbgDll:Ripemd128.obj
 0001:0015de61       ?digestDataSource@Ripemd128@@QAE_NAAVDataSource@@PAVProgressMonitor@@AAVLogBase@@AAVDataBuffer@@PAV5@@Z 0055ee61 f   ChilkatDbgDll:Ripemd128.obj
 0001:0015dfa0       ??_ERipemd128@@UAEPAXI@Z   0055efa0 f i ChilkatDbgDll:Ripemd128.obj
 0001:0015dfa0       ??_GRipemd128@@UAEPAXI@Z   0055efa0 f i ChilkatDbgDll:Ripemd128.obj
 0001:0015dfe0       ??0Md4@@QAE@XZ             0055efe0 f   ChilkatDbgDll:Md4.obj
 0001:0015e010       ??1Md4@@UAE@XZ             0055f010 f   ChilkatDbgDll:Md4.obj
 0001:0015e02b       ?hashUtf16_le@Md4@@QAEXAAVXString@@AAVDataBuffer@@@Z 0055f02b f   ChilkatDbgDll:Md4.obj
 0001:0015e0de       ?md4_db@Md4@@QAEXABVDataBuffer@@AAV2@@Z 0055f0de f   ChilkatDbgDll:Md4.obj
 0001:0015e147       ?md4_db2@Md4@@QAEXABVDataBuffer@@PAE@Z 0055f147 f   ChilkatDbgDll:Md4.obj
 0001:0015e19b       ?initialize@Md4@@QAEXXZ    0055f19b f   ChilkatDbgDll:Md4.obj
 0001:0015e1e9       ?update@Md4@@QAEXPBEI@Z    0055f1e9 f   ChilkatDbgDll:Md4.obj
 0001:0015e30e       ?final@Md4@@QAEXPAE@Z      0055f30e f   ChilkatDbgDll:Md4.obj
 0001:0015e3ba       ?transform@Md4@@AAEXPAIPBE@Z 0055f3ba f   ChilkatDbgDll:Md4.obj
 0001:0015ed35       ?encode@Md4@@AAEXPAEPBII@Z 0055fd35 f   ChilkatDbgDll:Md4.obj
 0001:0015edef       ?decode@Md4@@AAEXPAIPBEI@Z 0055fdef f   ChilkatDbgDll:Md4.obj
 0001:0015ee82       ?digestDataSource@Md4@@QAE_NAAVDataSource@@PAVProgressMonitor@@AAVLogBase@@PAEPAVDataBuffer@@@Z 0055fe82 f   ChilkatDbgDll:Md4.obj
 0001:0015efd0       ??_GMd4@@UAEPAXI@Z         0055ffd0 f i ChilkatDbgDll:Md4.obj
 0001:0015efd0       ??_EMd4@@UAEPAXI@Z         0055ffd0 f i ChilkatDbgDll:Md4.obj
 0001:0015f010       ?openDataSourceFileUtf8@FileDataSource@@QAE_NPBDAAVLogBase@@@Z 00560010 f   ChilkatDbgDll:FileDataSource.obj
 0001:0015f0bc       ?openDataSourceFile@FileDataSource@@QAE_NAAVXString@@AAVLogBase@@@Z 005600bc f   ChilkatDbgDll:FileDataSource.obj
 0001:0015f143       ?getLastModSysTime@FileDataSource@@QAE_NAAVChilkatSysTime@@PAVLogBase@@@Z 00560143 f   ChilkatDbgDll:FileDataSource.obj
 0001:0015f181       ?getFileSize64@FileDataSource@@QAE_JPAVLogBase@@@Z 00560181 f   ChilkatDbgDll:FileDataSource.obj
 0001:0015f1bf       ?_fseekAbsolute64@FileDataSource@@UAE_N_JAAVLogBase@@@Z 005601bf f   ChilkatDbgDll:FileDataSource.obj
 0001:0015f224       ?_discard64@FileDataSource@@UAE_N_JPAVProgressMonitor@@AAVLogBase@@@Z 00560224 f   ChilkatDbgDll:FileDataSource.obj
 0001:0015f264       ?_getCurIdx64@FileDataSource@@UAE_JXZ 00560264 f   ChilkatDbgDll:FileDataSource.obj
 0001:0015f28d       ?_fseekRelative64@FileDataSource@@UAE_N_JAAVLogBase@@@Z 0056028d f   ChilkatDbgDll:FileDataSource.obj
 0001:0015f502       ??0FileDataSource@@QAE@XZ  00560502 f   ChilkatDbgDll:FileDataSource.obj
 0001:0015f585       ?closeFileDataSource@FileDataSource@@QAEXXZ 00560585 f   ChilkatDbgDll:FileDataSource.obj
 0001:0015f603       ??1FileDataSource@@UAE@XZ  00560603 f   ChilkatDbgDll:FileDataSource.obj
 0001:0015f674       ?_endOfStream@FileDataSource@@UAE_NXZ 00560674 f   ChilkatDbgDll:FileDataSource.obj
 0001:0015f699       ?_rewindDataSource@FileDataSource@@UAEXXZ 00560699 f   ChilkatDbgDll:FileDataSource.obj
 0001:0015f723       ?_readSource@FileDataSource@@UAE_NPADIAAIAA_NPAVProgressMonitor@@AAVLogBase@@@Z 00560723 f   ChilkatDbgDll:FileDataSource.obj
 0001:0015f7bb       ?_scanForLong@FileDataSource@@UAE_NIAAVLogBase@@@Z 005607bb f   ChilkatDbgDll:FileDataSource.obj
 0001:0015fb19       ?getFilePointer64@FileDataSource@@AAE_JPAVLogBase@@@Z 00560b19 f   ChilkatDbgDll:FileDataSource.obj
 0001:0015fb57       ?setFilePointer64@FileDataSource@@AAE_N_JPAVLogBase@@@Z 00560b57 f   ChilkatDbgDll:FileDataSource.obj
 0001:0015fba0       ??_EFileDataSource@@UAEPAXI@Z 00560ba0 f i ChilkatDbgDll:FileDataSource.obj
 0001:0015fba0       ??_GFileDataSource@@UAEPAXI@Z 00560ba0 f i ChilkatDbgDll:FileDataSource.obj
 0001:0015fbe0       ?createNewObject@UnparsedCert@@SAPAV1@XZ 00560be0 f   ChilkatDbgDll:UnparsedCert.obj
 0001:0015fc9e       ??0UnparsedCert@@QAE@XZ    00560c9e f   ChilkatDbgDll:UnparsedCert.obj
 0001:0015fd18       ??1UnparsedCert@@UAE@XZ    00560d18 f   ChilkatDbgDll:UnparsedCert.obj
 0001:0015fd90       ??_GUnparsedCert@@UAEPAXI@Z 00560d90 f i ChilkatDbgDll:UnparsedCert.obj
 0001:0015fd90       ??_EUnparsedCert@@UAEPAXI@Z 00560d90 f i ChilkatDbgDll:UnparsedCert.obj
 0001:0015fdd0       ??0_ckFileObject@@QAE@XZ   00560dd0 f   ChilkatDbgDll:ClsFileList.obj
 0001:0015fe6a       ??1_ckFileObject@@UAE@XZ   00560e6a f   ChilkatDbgDll:ClsFileList.obj
 0001:0015fef3       ?createNewObject@_ckFileObject@@SAPAV1@XZ 00560ef3 f   ChilkatDbgDll:ClsFileList.obj
 0001:0015ffb1       ??0ClsFileList@@QAE@XZ     00560fb1 f   ChilkatDbgDll:ClsFileList.obj
 0001:0016006d       ?get_MustMatch@ClsFileList@@QBEXAAVXString@@@Z 0056106d f   ChilkatDbgDll:ClsFileList.obj
 0001:0016009c       ?put_MustMatch@ClsFileList@@QAEXAAVXString@@@Z 0056109c f   ChilkatDbgDll:ClsFileList.obj
 0001:001600cc       ?get_MustNotMatch@ClsFileList@@QBEXAAVXString@@@Z 005610cc f   ChilkatDbgDll:ClsFileList.obj
 0001:001600fb       ?put_MustNotMatch@ClsFileList@@QAEXAAVXString@@@Z 005610fb f   ChilkatDbgDll:ClsFileList.obj
 0001:0016012b       ??1ClsFileList@@UAE@XZ     0056112b f   ChilkatDbgDll:ClsFileList.obj
 0001:001601d0       ?get_Count@ClsFileList@@QBEIXZ 005611d0 f   ChilkatDbgDll:ClsFileList.obj
 0001:001601fa       ?get_AppendFromDir@ClsFileList@@QAEXAAVXString@@@Z 005611fa f   ChilkatDbgDll:ClsFileList.obj
 0001:00160227       ?put_AppendFromDirUtf8@ClsFileList@@QAEXPBD@Z 00561227 f   ChilkatDbgDll:ClsFileList.obj
 0001:00160254       ?put_AppendFromDir@ClsFileList@@QAEXAAVXString@@@Z 00561254 f   ChilkatDbgDll:ClsFileList.obj
 0001:00160281       ?get_ArchivePath@ClsFileList@@QAE_NIAAVXString@@@Z 00561281 f   ChilkatDbgDll:ClsFileList.obj
 0001:001602db       ?put_ArchivePath@ClsFileList@@QAE_NIAAVXString@@@Z 005612db f   ChilkatDbgDll:ClsFileList.obj
 0001:00160335       ?get_DiskPath@ClsFileList@@QAE_NIAAVXString@@@Z 00561335 f   ChilkatDbgDll:ClsFileList.obj
 0001:0016038c       ?get_IsOnDisk@ClsFileList@@QAE_NI@Z 0056138c f   ChilkatDbgDll:ClsFileList.obj
 0001:001603e1       ?get_IsDirectory@ClsFileList@@QAE_NI@Z 005613e1 f   ChilkatDbgDll:ClsFileList.obj
 0001:0016042d       ?get_Data@ClsFileList@@QAE_NIAAVDataBuffer@@@Z 0056142d f   ChilkatDbgDll:ClsFileList.obj
 0001:00160487       ?StringReplace@ClsFileList@@QAE_NAAVXString@@0@Z 00561487 f   ChilkatDbgDll:ClsFileList.obj
 0001:0016052d       ?parseFilePattern@ClsFileList@@AAEXAAVXString@@_N0000AA_N2@Z 0056152d f   ChilkatDbgDll:ClsFileList.obj
 0001:00160826       ?AppendFile@ClsFileList@@QAE_NAAVXString@@@Z 00561826 f   ChilkatDbgDll:ClsFileList.obj
 0001:00160bf4       ?AppendDirEntry@ClsFileList@@QAE_NAAVXString@@@Z 00561bf4 f   ChilkatDbgDll:ClsFileList.obj
 0001:00160d40       ?AppendFilesEx_2@ClsFileList@@QAEIAAVXString@@_N1111@Z 00561d40 f   ChilkatDbgDll:ClsFileList.obj
 0001:00161499       ?AppendFiles_2@ClsFileList@@QAEIAAVXString@@_N@Z 00562499 f   ChilkatDbgDll:ClsFileList.obj
 0001:001614cf       ?getFilesInDirectory_2@ClsFileList@@QAEPAVClsStringArray@@AAVXString@@AAVLogBase@@@Z 005624cf f   ChilkatDbgDll:ClsFileList.obj
 0001:0016166d       ?getDirsInDirectory_2@ClsFileList@@QAEPAVClsStringArray@@AAVXString@@AAVLogBase@@@Z 0056266d f   ChilkatDbgDll:ClsFileList.obj
 0001:001617ff       ?treeSize@ClsFileList@@SA_NAAVXString@@_NAAVExtPtrArray@@2AA_JAAI4PAVProgressEvent@@IAA_NAAVLogBase@@@Z 005627ff f   ChilkatDbgDll:ClsFileList.obj
 0001:00162190       ??_G_ckFileObject@@UAEPAXI@Z 00563190 f i ChilkatDbgDll:ClsFileList.obj
 0001:00162190       ??_E_ckFileObject@@UAEPAXI@Z 00563190 f i ChilkatDbgDll:ClsFileList.obj
 0001:001621d0       ??_EClsFileList@@UAEPAXI@Z 005631d0 f i ChilkatDbgDll:ClsFileList.obj
 0001:001621d0       ??_GClsFileList@@UAEPAXI@Z 005631d0 f i ChilkatDbgDll:ClsFileList.obj
 0001:00162210       ??_EClsFileList@@W7AEPAXI@Z 00563210 f i ChilkatDbgDll:ClsFileList.obj
 0001:00162220       ?createNewObject@ClsDateTime@@SAPAV1@XZ 00563220 f   ChilkatDbgDll:ClsDateTime.obj
 0001:001622de       ?AddDays@ClsDateTime@@QAE_NH@Z 005632de f   ChilkatDbgDll:ClsDateTime.obj
 0001:0016230e       ?createNewCls@ClsDateTime@@SAPAV1@XZ 0056330e f   ChilkatDbgDll:ClsDateTime.obj
 0001:001623cc       ??0ClsDateTime@@QAE@XZ     005633cc f   ChilkatDbgDll:ClsDateTime.obj
 0001:00162468       ??1ClsDateTime@@UAE@XZ     00563468 f   ChilkatDbgDll:ClsDateTime.obj
 0001:0016251a       ?dotNetDispose@ClsDateTime@@UAEXXZ 0056351a f   ChilkatDbgDll:ClsDateTime.obj
 0001:0016252c       ?toChilkatFileTimeUtc@ClsDateTime@@QAEXAAVChilkatFileTime@@@Z 0056352c f   ChilkatDbgDll:ClsDateTime.obj
 0001:0016255c       ?getChilkatSysTime@ClsDateTime@@QAEAAVChilkatSysTime@@XZ 0056355c f   ChilkatDbgDll:ClsDateTime.obj
 0001:00162576       ?GetAsUnixTime@ClsDateTime@@QAEJ_N@Z 00563576 f   ChilkatDbgDll:ClsDateTime.obj
 0001:001625cc       ?SetFromUnixTime@ClsDateTime@@QAEX_NJ@Z 005635cc f   ChilkatDbgDll:ClsDateTime.obj
 0001:00162638       ?GetAsUnixTime64@ClsDateTime@@QAE_J_N@Z 00563638 f   ChilkatDbgDll:ClsDateTime.obj
 0001:0016268f       ?SetFromUnixTime64@ClsDateTime@@QAEX_N_J@Z 0056368f f   ChilkatDbgDll:ClsDateTime.obj
 0001:001626f8       ?GetAsUnixTimeDbl@ClsDateTime@@QAEN_N@Z 005636f8 f   ChilkatDbgDll:ClsDateTime.obj
 0001:0016274e       ?SetFromUnixTimeDbl@ClsDateTime@@QAEX_NN@Z 0056374e f   ChilkatDbgDll:ClsDateTime.obj
 0001:001627cb       ?GetAsSystemTime@ClsDateTime@@QAEX_NAAU_SYSTEMTIME@@@Z 005637cb f   ChilkatDbgDll:ClsDateTime.obj
 0001:00162825       ?SetFromSystemTime@ClsDateTime@@QAEX_NAAU_SYSTEMTIME@@@Z 00563825 f   ChilkatDbgDll:ClsDateTime.obj
 0001:00162859       ?setFromChilkatSysTime@ClsDateTime@@QAEXAAVChilkatSysTime@@@Z 00563859 f   ChilkatDbgDll:ClsDateTime.obj
 0001:00162889       ?GetAsDtObj@ClsDateTime@@QAEX_NAAVClsDtObj@@@Z 00563889 f   ChilkatDbgDll:ClsDateTime.obj
 0001:00162967       ?SetFromDtObj@ClsDateTime@@QAEXAAVClsDtObj@@@Z 00563967 f   ChilkatDbgDll:ClsDateTime.obj
 0001:00162a18       ?GetAsTmStruct@ClsDateTime@@QAEX_NAAUtm@@@Z 00563a18 f   ChilkatDbgDll:ClsDateTime.obj
 0001:00162a72       ?SetFromTmStruct@ClsDateTime@@QAEX_NAAUtm@@@Z 00563a72 f   ChilkatDbgDll:ClsDateTime.obj
 0001:00162aa6       ?GetAsFileTime@ClsDateTime@@QAEX_NAAU_FILETIME@@@Z 00563aa6 f   ChilkatDbgDll:ClsDateTime.obj
 0001:00162b0e       ?SetFromFileTime@ClsDateTime@@QAEX_NAAU_FILETIME@@@Z 00563b0e f   ChilkatDbgDll:ClsDateTime.obj
 0001:00162b78       ?GetAsOleDate@ClsDateTime@@QAEN_N@Z 00563b78 f   ChilkatDbgDll:ClsDateTime.obj
 0001:00162bce       ?SetFromOleDate@ClsDateTime@@QAEX_NN@Z 00563bce f   ChilkatDbgDll:ClsDateTime.obj
 0001:00162c06       ?GetAsDosDate@ClsDateTime@@QAEI_N@Z 00563c06 f   ChilkatDbgDll:ClsDateTime.obj
 0001:00162c8e       ?SetFromDosDate@ClsDateTime@@QAEX_NI@Z 00563c8e f   ChilkatDbgDll:ClsDateTime.obj
 0001:00162cf7       ?SetFromDosDate2@ClsDateTime@@QAEX_NGG@Z 00563cf7 f   ChilkatDbgDll:ClsDateTime.obj
 0001:00162d3b       ?GetDosDateHigh@ClsDateTime@@QAEG_N@Z 00563d3b f   ChilkatDbgDll:ClsDateTime.obj
 0001:00162daf       ?GetDosDateLow@ClsDateTime@@QAEG_N@Z 00563daf f   ChilkatDbgDll:ClsDateTime.obj
 0001:00162e23       ?GetAsDateTimeTicks@ClsDateTime@@QAE_J_N@Z 00563e23 f   ChilkatDbgDll:ClsDateTime.obj
 0001:00162e87       ?SetFromDateTimeTicks@ClsDateTime@@QAEX_N_J@Z 00563e87 f   ChilkatDbgDll:ClsDateTime.obj
 0001:00162eea       ?get_UtcOffset@ClsDateTime@@QAEHXZ 00563eea f   ChilkatDbgDll:ClsDateTime.obj
 0001:00162f14       ?get_IsDst@ClsDateTime@@QAEHXZ 00563f14 f   ChilkatDbgDll:ClsDateTime.obj
 0001:00162f3e       ?SetFromCurrentSystemTime@ClsDateTime@@QAEXXZ 00563f3e f   ChilkatDbgDll:ClsDateTime.obj
 0001:00162f68       ?Serialize@ClsDateTime@@QAE_NAAVXString@@@Z 00563f68 f   ChilkatDbgDll:ClsDateTime.obj
 0001:00163013       ?DeSerialize@ClsDateTime@@QAEXAAVXString@@@Z 00564013 f   ChilkatDbgDll:ClsDateTime.obj
 0001:001630af       ?GetAsRfc822@ClsDateTime@@QAE_N_NAAVXString@@@Z 005640af f   ChilkatDbgDll:ClsDateTime.obj
 0001:00163197       ?SetFromRfc822@ClsDateTime@@QAE_NAAVXString@@@Z 00564197 f   ChilkatDbgDll:ClsDateTime.obj
 0001:00163220       ??_GClsDateTime@@UAEPAXI@Z 00564220 f i ChilkatDbgDll:ClsDateTime.obj
 0001:00163220       ??_EClsDateTime@@UAEPAXI@Z 00564220 f i ChilkatDbgDll:ClsDateTime.obj
 0001:00163260       ??_EClsDateTime@@WCA@AEPAXI@Z 00564260 f i ChilkatDbgDll:ClsDateTime.obj
 0001:00163270       ??_EClsDateTime@@WCI@AEPAXI@Z 00564270 f i ChilkatDbgDll:ClsDateTime.obj
 0001:00163280       ??0ErrorLog@@QAE@XZ        00564280 f   ChilkatDbgDll:ErrorLog.obj
 0001:00163313       ?ClearLog@ErrorLog@@QAEXXZ 00564313 f   ChilkatDbgDll:ErrorLog.obj
 0001:00163390       ??1ErrorLog@@UAE@XZ        00564390 f   ChilkatDbgDll:ErrorLog.obj
 0001:0016341d       ?OpenContext@ErrorLog@@QAEXPBD@Z 0056441d f   ChilkatDbgDll:ErrorLog.obj
 0001:001634a9       ?CloseContext@ErrorLog@@QAEXXZ 005644a9 f   ChilkatDbgDll:ErrorLog.obj
 0001:00163515       ?LogError@ErrorLog@@QAEXPBD@Z 00564515 f   ChilkatDbgDll:ErrorLog.obj
 0001:00163592       ?LogXml@ErrorLog@@QAEXPBD@Z 00564592 f   ChilkatDbgDll:ErrorLog.obj
 0001:0016360f       ?LogInfo@ErrorLog@@QAEXPBD@Z 0056460f f   ChilkatDbgDll:ErrorLog.obj
 0001:0016368c       ?LogData@ErrorLog@@QAEXPBD0@Z 0056468c f   ChilkatDbgDll:ErrorLog.obj
 0001:0016370d       ?GetXml@ErrorLog@@QAEXAAVStringBuffer@@@Z 0056470d f   ChilkatDbgDll:ErrorLog.obj
 0001:00163758       ?GetText@ErrorLog@@QAEXAAVStringBuffer@@@Z 00564758 f   ChilkatDbgDll:ErrorLog.obj
 0001:001637a3       ?GetHtml@ErrorLog@@QAEXAAVStringBuffer@@@Z 005647a3 f   ChilkatDbgDll:ErrorLog.obj
 0001:001637f0       ??_GErrorLog@@UAEPAXI@Z    005647f0 f i ChilkatDbgDll:ErrorLog.obj
 0001:001637f0       ??_EErrorLog@@UAEPAXI@Z    005647f0 f i ChilkatDbgDll:ErrorLog.obj
 0001:00163830       ?resetPerformanceMon@PerformanceMon@@QAEXAAVLogBase@@@Z 00564830 f   ChilkatDbgDll:PerformanceMon.obj
 0001:001638df       ??0PerformanceMon@@QAE@XZ  005648df f   ChilkatDbgDll:PerformanceMon.obj
 0001:00163985       ??1PerformanceMon@@UAE@XZ  00564985 f   ChilkatDbgDll:PerformanceMon.obj
 0001:001639a0       ?beginPerformanceChunk@PerformanceMon@@QAEXAAVLogBase@@@Z 005649a0 f   ChilkatDbgDll:PerformanceMon.obj
 0001:00163a0b       ?endPerformanceChunk@PerformanceMon@@QAEXPAVProgressMonitor@@AAVLogBase@@@Z 00564a0b f   ChilkatDbgDll:PerformanceMon.obj
 0001:00163b4a       ?checkFireEvent@PerformanceMon@@AAEX_NPAVProgressEvent@@AAVLogBase@@@Z 00564b4a f   ChilkatDbgDll:PerformanceMon.obj
 0001:00163dc0       ?forcePerfUpdate@PerformanceMon@@QAEXPAVProgressMonitor@@AAVLogBase@@@Z 00564dc0 f   ChilkatDbgDll:PerformanceMon.obj
 0001:00163e3b       ?updatePerformance32@PerformanceMon@@QAEXIPAVProgressMonitor@@AAVLogBase@@@Z 00564e3b f   ChilkatDbgDll:PerformanceMon.obj
 0001:00163ed1       ?updatePerformance32_2@PerformanceMon@@QAEXIIPAVProgressMonitor@@AAVLogBase@@@Z 00564ed1 f   ChilkatDbgDll:PerformanceMon.obj
 0001:00163fc0       ??_EPerformanceMon@@UAEPAXI@Z 00564fc0 f i ChilkatDbgDll:PerformanceMon.obj
 0001:00163fc0       ??_GPerformanceMon@@UAEPAXI@Z 00564fc0 f i ChilkatDbgDll:PerformanceMon.obj
 0001:00164000       ??0Adler32@@QAE@XZ         00565000 f   ChilkatDbgDll:Adler32.obj
 0001:0016401e       ??1Adler32@@UAE@XZ         0056501e f   ChilkatDbgDll:Adler32.obj
 0001:00164039       ?update_adler32@Adler32@@SAIIPBEI@Z 00565039 f   ChilkatDbgDll:Adler32.obj
 0001:001640c4       ?adler32@Adler32@@SAIPBEI@Z 005650c4 f   ChilkatDbgDll:Adler32.obj
 0001:001640f0       ??_EAdler32@@UAEPAXI@Z     005650f0 f i ChilkatDbgDll:Adler32.obj
 0001:001640f0       ??_GAdler32@@UAEPAXI@Z     005650f0 f i ChilkatDbgDll:Adler32.obj
 0001:00164130       ??0PassPhrase@@QAE@XZ      00565130 f   ChilkatDbgDll:PassPhrase.obj
 0001:0016414e       ??1PassPhrase@@UAE@XZ      0056514e f   ChilkatDbgDll:PassPhrase.obj
 0001:00164169       ?str2Key@PassPhrase@@SAXPBDAAVDataBuffer@@@Z 00565169 f   ChilkatDbgDll:PassPhrase.obj
 0001:001641f4       ?x2Key@PassPhrase@@SAXAAVXString@@HAAVDataBuffer@@@Z 005651f4 f   ChilkatDbgDll:PassPhrase.obj
 0001:001642af       ?db2Key@PassPhrase@@SAXABVDataBuffer@@AAV2@@Z 005652af f   ChilkatDbgDll:PassPhrase.obj
 0001:001643d0       ??_EPassPhrase@@UAEPAXI@Z  005653d0 f i ChilkatDbgDll:PassPhrase.obj
 0001:001643d0       ??_GPassPhrase@@UAEPAXI@Z  005653d0 f i ChilkatDbgDll:PassPhrase.obj
 0001:00164410       ?BZ2_bsInitWrite@ChilkatBzip2@@AAEXPAUEState@@@Z 00565410 f   ChilkatDbgDll:BzCompress.obj
 0001:0016443e       ?sendMTFValues@ChilkatBzip2@@AAEXPAUEState@@@Z 0056543e f   ChilkatDbgDll:BzCompress.obj
 0001:001685f9       ?BZ2_compressBlock@ChilkatBzip2@@AAEXPAUEState@@E@Z 005695f9 f   ChilkatDbgDll:BzCompress.obj
 0001:00168e30       ?truncate@OutputFile@@QAE_N_JAAVLogBase@@@Z 00569e30 f   ChilkatDbgDll:OutputFile.obj
 0001:00168e92       ?fseekAbsolute64@OutputFile@@UAE_N_JAAVLogBase@@@Z 00569e92 f   ChilkatDbgDll:OutputFile.obj
 0001:00168ef4       ?ftell64@OutputFile@@UAE_JXZ 00569ef4 f   ChilkatDbgDll:OutputFile.obj
 0001:00168f42       ?updateAfterWrite@OutputFile@@AAEX_J@Z 00569f42 f   ChilkatDbgDll:OutputFile.obj
 0001:00169007       ?_writeBytes@OutputFile@@MAE_NPBDIPAVProgressMonitor@@AAVLogBase@@@Z 0056a007 f   ChilkatDbgDll:OutputFile.obj
 0001:001690a5       ?setFileTimeUtc@OutputFile@@QAE_NAAVChilkatFileTime@@PAVLogBase@@@Z 0056a0a5 f   ChilkatDbgDll:OutputFile.obj
 0001:0016913a       ?setFileTimeUtc_3@OutputFile@@QAE_NAAVChilkatFileTime@@00PAVLogBase@@@Z 0056a13a f   ChilkatDbgDll:OutputFile.obj
 0001:001691df       ?createNewObject@OutputFile@@CAPAV1@XZ 0056a1df f   ChilkatDbgDll:OutputFile.obj
 0001:0016929d       ?createFileUtf8@OutputFile@@SAPAV1@PBDAAVLogBase@@@Z 0056a29d f   ChilkatDbgDll:OutputFile.obj
 0001:00169392       ?createFileUtf8_CAREFUL@OutputFile@@QAE_NPBDAAVLogBase@@@Z 0056a392 f   ChilkatDbgDll:OutputFile.obj
 0001:00169416       ?openForAppendUtf8@OutputFile@@SAPAV1@PBDAAVLogBase@@@Z 0056a416 f   ChilkatDbgDll:OutputFile.obj
 0001:00169536       ?openExistingUtf8@OutputFile@@SAPAV1@PBDAAVLogBase@@@Z 0056a536 f   ChilkatDbgDll:OutputFile.obj
 0001:00169633       ??0OutputFile@@QAE@PBDHAA_NAAVLogBase@@@Z 0056a633 f   ChilkatDbgDll:OutputFile.obj
 0001:001697c7       ??0OutputFile@@QAE@PBD@Z   0056a7c7 f   ChilkatDbgDll:OutputFile.obj
 0001:0016989c       ??0OutputFile@@QAE@PBDPAU_iobuf@@@Z 0056a89c f   ChilkatDbgDll:OutputFile.obj
 0001:00169980       ??0OutputFile@@QAE@PBDAAVChilkatHandle@@@Z 0056a980 f   ChilkatDbgDll:OutputFile.obj
 0001:00169a64       ??0OutputFile@@AAE@XZ      0056aa64 f   ChilkatDbgDll:OutputFile.obj
 0001:00169b24       ??1OutputFile@@UAE@XZ      0056ab24 f   ChilkatDbgDll:OutputFile.obj
 0001:00169bc0       ?closeHandle@OutputFile@@QAEXXZ 0056abc0 f   ChilkatDbgDll:OutputFile.obj
 0001:00169be7       ?seekToEnd@OutputFile@@UAE_NAAVLogBase@@@Z 0056abe7 f   ChilkatDbgDll:OutputFile.obj
 0001:00169c2c       ?fileSizeViaHandle64@OutputFile@@QAE_JPAVLogBase@@@Z 0056ac2c f   ChilkatDbgDll:OutputFile.obj
 0001:00169c59       ?isHandleOpen@OutputFile@@QAE_NXZ 0056ac59 f   ChilkatDbgDll:OutputFile.obj
 0001:00169c80       ?getHandle_BECAREFUL@OutputFile@@QAEAAVChilkatHandle@@XZ 0056ac80 f   ChilkatDbgDll:OutputFile.obj
 0001:00169c98       ?resetOutput@OutputFile@@UAE_NAAVLogBase@@@Z 0056ac98 f   ChilkatDbgDll:OutputFile.obj
 0001:00169d50       ??_EOutputFile@@UAEPAXI@Z  0056ad50 f i ChilkatDbgDll:OutputFile.obj
 0001:00169d50       ??_GOutputFile@@UAEPAXI@Z  0056ad50 f i ChilkatDbgDll:OutputFile.obj
 0001:00169d90       ?BZ2_hbMakeCodeLengths@ChilkatBzip2@@AAEXPAEPAHHH@Z 0056ad90 f   ChilkatDbgDll:BzHuff.obj
 0001:0016a414       ?BZ2_hbAssignCodes@ChilkatBzip2@@AAEXPAHPAEHHH@Z 0056b414 f   ChilkatDbgDll:BzHuff.obj
 0001:0016a49e       ?BZ2_hbCreateDecodeTables@ChilkatBzip2@@AAEXPAH00PAEHHH@Z 0056b49e f   ChilkatDbgDll:BzHuff.obj
 0001:0016a680       ??0ClsXml@@QAE@XZ          0056b680 f   ChilkatDbgDll:ClsXml.obj
 0001:0016a751       ??1ClsXml@@UAE@XZ          0056b751 f   ChilkatDbgDll:ClsXml.obj
 0001:0016a82e       ?GetChildContentUtf8@ClsXml@@QAEPBDPBD@Z 0056b82e f   ChilkatDbgDll:ClsXml.obj
 0001:0016a8c4       ?getChildIntValue@ClsXml@@QBEHPBD@Z 0056b8c4 f   ChilkatDbgDll:ClsXml.obj
 0001:0016a951       ?put_TagUtf8@ClsXml@@QAE_NPBD@Z 0056b951 f   ChilkatDbgDll:ClsXml.obj
 0001:0016a9ac       ?updateChildContentInt@ClsXml@@QAEXPBDH@Z 0056b9ac f   ChilkatDbgDll:ClsXml.obj
 0001:0016aa51       ?updateChildContentBool@ClsXml@@QAEXPBD_N@Z 0056ba51 f   ChilkatDbgDll:ClsXml.obj
 0001:0016ab01       ?updateChildContent@ClsXml@@QAEXPBD0@Z 0056bb01 f   ChilkatDbgDll:ClsXml.obj
 0001:0016ac3c       ?NewChild2_Utf8@ClsXml@@QAEXPBD0@Z 0056bc3c f   ChilkatDbgDll:ClsXml.obj
 0001:0016adc9       ?removeTree@ClsXml@@AAEXXZ 0056bdc9 f   ChilkatDbgDll:ClsXml.obj
 0001:0016ae45       ?createChildUtf8@ClsXml@@AAEPAV1@PBD0@Z 0056be45 f   ChilkatDbgDll:ClsXml.obj
 0001:0016af2c       ?GetChildContentI@ClsXml@@QAEHPBD@Z 0056bf2c f   ChilkatDbgDll:ClsXml.obj
 0001:0016afa5       ?loadXmlSbUtf8@ClsXml@@QAE_NABVStringBuffer@@_NAAVLogBase@@@Z 0056bfa5 f   ChilkatDbgDll:ClsXml.obj
 0001:0016b12d       ?GetXml@ClsXml@@QAE_NAAVXString@@@Z 0056c12d f   ChilkatDbgDll:ClsXml.obj
 0001:0016b173       ?GetXml@ClsXml@@QAE_NAAVStringBuffer@@@Z 0056c173 f   ChilkatDbgDll:ClsXml.obj
 0001:0016b29f       ?GetXml2@ClsXml@@QAE_NAAVStringBuffer@@@Z 0056c29f f   ChilkatDbgDll:ClsXml.obj
 0001:0016b314       ?getChildBoolValue@ClsXml@@QBE_NPBD@Z 0056c314 f   ChilkatDbgDll:ClsXml.obj
 0001:0016b3b2       ?put_EncodingUtf8@ClsXml@@QAE_NPBD@Z 0056c3b2 f   ChilkatDbgDll:ClsXml.obj
 0001:0016b4f5       ?createNewCls@ClsXml@@SAPAV1@XZ 0056c4f5 f   ChilkatDbgDll:ClsXml.obj
 0001:0016b5b3       ?LoadXml2@ClsXml@@QAE_NAAVXString@@_N@Z 0056c5b3 f   ChilkatDbgDll:ClsXml.obj
 0001:0016b68b       ??0ClsXml@@QAE@ABV0@@Z     0056c68b f   ChilkatDbgDll:ClsXml.obj
 0001:0016b780       ?RemoveAllChildren@ClsXml@@QAEXXZ 0056c780 f   ChilkatDbgDll:ClsXml.obj
 0001:0016b86c       ?get_EmitXmlDecl@ClsXml@@QAE_NXZ 0056c86c f   ChilkatDbgDll:ClsXml.obj
 0001:0016b887       ?put_EmitXmlDecl@ClsXml@@QAEX_N@Z 0056c887 f   ChilkatDbgDll:ClsXml.obj
 0001:0016b8a7       ?takeXml@ClsXml@@QAEXAAV1@@Z 0056c8a7 f   ChilkatDbgDll:ClsXml.obj
 0001:0016b99b       ?GetNthChildWithTag2@ClsXml@@QAE_NAAVXString@@J@Z 0056c99b f   ChilkatDbgDll:ClsXml.obj
 0001:0016b9ce       ?GetChildWithTag@ClsXml@@QAEPAV1@AAVXString@@@Z 0056c9ce f   ChilkatDbgDll:ClsXml.obj
 0001:0016b9fd       ?GetChildWithContent@ClsXml@@QAEPAV1@AAVXString@@@Z 0056c9fd f   ChilkatDbgDll:ClsXml.obj
 0001:0016ba2c       ?GetChildWithAttr@ClsXml@@QAEPAV1@AAVXString@@00@Z 0056ca2c f   ChilkatDbgDll:ClsXml.obj
 0001:0016ba6d       ?GetChildContentI@ClsXml@@QAEHAAVXString@@@Z 0056ca6d f   ChilkatDbgDll:ClsXml.obj
 0001:0016ba9c       ?FindChild@ClsXml@@QAEPAV1@AAVXString@@@Z 0056ca9c f   ChilkatDbgDll:ClsXml.obj
 0001:0016bacb       ?FindChild2@ClsXml@@QAE_NAAVXString@@@Z 0056cacb f   ChilkatDbgDll:ClsXml.obj
 0001:0016bafa       ?NewChild@ClsXml@@QAEPAV1@AAVXString@@0@Z 0056cafa f   ChilkatDbgDll:ClsXml.obj
 0001:0016bb32       ?NewChild2@ClsXml@@QAEXAAVXString@@0@Z 0056cb32 f   ChilkatDbgDll:ClsXml.obj
 0001:0016bb6a       ?GetNthChildWithTag@ClsXml@@QAEPAV1@AAVXString@@J@Z 0056cb6a f   ChilkatDbgDll:ClsXml.obj
 0001:0016bb9d       ?NumChildrenHavingTag@ClsXml@@QAEJAAVXString@@@Z 0056cb9d f   ChilkatDbgDll:ClsXml.obj
 0001:0016bbcc       ?ExtractChildByName@ClsXml@@QAEPAV1@AAVXString@@00@Z 0056cbcc f   ChilkatDbgDll:ClsXml.obj
 0001:0016bc0d       ?GetChildIntValue@ClsXml@@QAE_NAAVXString@@AAH@Z 0056cc0d f   ChilkatDbgDll:ClsXml.obj
 0001:0016bc40       ?HasChildWithTag@ClsXml@@QAE_NAAVXString@@@Z 0056cc40 f   ChilkatDbgDll:ClsXml.obj
 0001:0016bc6f       ?TagContent@ClsXml@@QAE_NAAVXString@@0@Z 0056cc6f f   ChilkatDbgDll:ClsXml.obj
 0001:0016bd24       ?GetChildContent@ClsXml@@QAE_NAAVXString@@0@Z 0056cd24 f   ChilkatDbgDll:ClsXml.obj
 0001:0016bde0       ?GetAttrValue@ClsXml@@QAE_NAAVXString@@0@Z 0056cde0 f   ChilkatDbgDll:ClsXml.obj
 0001:0016be9c       ?get_Encoding@ClsXml@@QAE_NAAVXString@@@Z 0056ce9c f   ChilkatDbgDll:ClsXml.obj
 0001:0016bf4f       ?GetAttributeValue@ClsXml@@QAE_NJAAVXString@@@Z 0056cf4f f   ChilkatDbgDll:ClsXml.obj
 0001:0016c006       ?GetAttributeName@ClsXml@@QAE_NJAAVXString@@@Z 0056d006 f   ChilkatDbgDll:ClsXml.obj
 0001:0016c0bd       ?get_Tag@ClsXml@@QAEXAAVXString@@@Z 0056d0bd f   ChilkatDbgDll:ClsXml.obj
 0001:0016c161       ?get_NumAttributes@ClsXml@@QAEHXZ 0056d161 f   ChilkatDbgDll:ClsXml.obj
 0001:0016c22b       ?get_Tag@ClsXml@@QAE_NAAVStringBuffer@@@Z 0056d22b f   ChilkatDbgDll:ClsXml.obj
 0001:0016c28b       ?put_Tag@ClsXml@@QAE_NAAVXString@@@Z 0056d28b f   ChilkatDbgDll:ClsXml.obj
 0001:0016c2eb       ?GetChildContentD@ClsXml@@QAENAAVXString@@@Z 0056d2eb f   ChilkatDbgDll:ClsXml.obj
 0001:0016c382       ?get_ContentInt@ClsXml@@QBEHXZ 0056d382 f   ChilkatDbgDll:ClsXml.obj
 0001:0016c3d5       ?get_ContentD@ClsXml@@QBENXZ 0056d3d5 f   ChilkatDbgDll:ClsXml.obj
 0001:0016c430       ?GetAttrValueInt@ClsXml@@QAEHAAVXString@@@Z 0056d430 f   ChilkatDbgDll:ClsXml.obj
 0001:0016c45f       ?GetAttrValueInt@ClsXml@@QAEHPBD@Z 0056d45f f   ChilkatDbgDll:ClsXml.obj
 0001:0016c64e       ?GetAttributeValueInt@ClsXml@@QAEHJ@Z 0056d64e f   ChilkatDbgDll:ClsXml.obj
 0001:0016c7ee       ?GetAttrValueD@ClsXml@@QAENAAVXString@@@Z 0056d7ee f   ChilkatDbgDll:ClsXml.obj
 0001:0016c9b7       ?GetAttributeValueD@ClsXml@@QAENJ@Z 0056d9b7 f   ChilkatDbgDll:ClsXml.obj
 0001:0016cb75       ?TagEquals@ClsXml@@QAE_NPBD@Z 0056db75 f   ChilkatDbgDll:ClsXml.obj
 0001:0016cc05       ?TagEquals@ClsXml@@QAE_NAAVXString@@@Z 0056dc05 f   ChilkatDbgDll:ClsXml.obj
 0001:0016cc34       ?ContentEquals@ClsXml@@QAE_NPBD@Z 0056dc34 f   ChilkatDbgDll:ClsXml.obj
 0001:0016ccc4       ?get_Content@ClsXml@@QAEPBDXZ 0056dcc4 f   ChilkatDbgDll:ClsXml.obj
 0001:0016cd94       ?get_Tag@ClsXml@@QAEPBDXZ  0056dd94 f   ChilkatDbgDll:ClsXml.obj
 0001:0016ce64       ?get_ContentSize@ClsXml@@QAEHXZ 0056de64 f   ChilkatDbgDll:ClsXml.obj
 0001:0016cf5a       ?get_Content@ClsXml@@QAE_NAAVStringBuffer@@@Z 0056df5a f   ChilkatDbgDll:ClsXml.obj
 0001:0016cfd5       ?get_Content@ClsXml@@QAE_NAAVXString@@@Z 0056dfd5 f   ChilkatDbgDll:ClsXml.obj
 0001:0016d058       ?put_Content@ClsXml@@QAE_NAAVXString@@@Z 0056e058 f   ChilkatDbgDll:ClsXml.obj
 0001:0016d0b8       ?put_ContentUtf8@ClsXml@@QAE_NPBD@Z 0056e0b8 f   ChilkatDbgDll:ClsXml.obj
 0001:0016d113       ?put_ContentInt@ClsXml@@QAE_NH@Z 0056e113 f   ChilkatDbgDll:ClsXml.obj
 0001:0016d1c0       ?get_NumChildren@ClsXml@@QAEHXZ 0056e1c0 f   ChilkatDbgDll:ClsXml.obj
 0001:0016d2bf       ?get_Cdata@ClsXml@@QAE_NXZ 0056e2bf f   ChilkatDbgDll:ClsXml.obj
 0001:0016d312       ?put_Cdata@ClsXml@@QAE_N_N@Z 0056e312 f   ChilkatDbgDll:ClsXml.obj
 0001:0016d36d       ?SetFromTreeNode@ClsXml@@QAEXPAVTreeNode@@@Z 0056e36d f   ChilkatDbgDll:ClsXml.obj
 0001:0016d438       ?LoadXml@ClsXml@@QAE_NAAVXString@@@Z 0056e438 f   ChilkatDbgDll:ClsXml.obj
 0001:0016d50e       ?LoadXmlUtf8@ClsXml@@QAE_NPBD_N@Z 0056e50e f   ChilkatDbgDll:ClsXml.obj
 0001:0016d5e1       ?loadXmlUtf8@ClsXml@@QAE_NPBD_NAAVLogBase@@@Z 0056e5e1 f   ChilkatDbgDll:ClsXml.obj
 0001:0016d7c5       ?ChilkatPath@ClsXml@@QAE_NAAVXString@@0@Z 0056e7c5 f   ChilkatDbgDll:ClsXml.obj
 0001:0016d894       ?loadXmlFileUtf8@ClsXml@@QAE_NPBD_NAAVLogBase@@@Z 0056e894 f   ChilkatDbgDll:ClsXml.obj
 0001:0016d9aa       ?LoadXmlFile@ClsXml@@QAE_NAAVXString@@@Z 0056e9aa f   ChilkatDbgDll:ClsXml.obj
 0001:0016daa0       ?LoadXmlFile2@ClsXml@@QAE_NAAVXString@@_N@Z 0056eaa0 f   ChilkatDbgDll:ClsXml.obj
 0001:0016db98       ?checkTree@ClsXml@@AAE_NXZ 0056eb98 f   ChilkatDbgDll:ClsXml.obj
 0001:0016dc4b       ?saveXml@ClsXml@@QAE_NAAVXString@@AAVLogBase@@@Z 0056ec4b f   ChilkatDbgDll:ClsXml.obj
 0001:0016df2c       ?SaveXml@ClsXml@@QAE_NAAVXString@@@Z 0056ef2c f   ChilkatDbgDll:ClsXml.obj
 0001:0016e027       ?chilkatPath@ClsXml@@QAE_NPBDAAVXString@@AAVLogBase@@@Z 0056f027 f   ChilkatDbgDll:ClsXml.obj
 0001:0016f35c       ?AppendToContent@ClsXml@@QAE_NAAVXString@@@Z 0057035c f   ChilkatDbgDll:ClsXml.obj
 0001:0016f464       ?AppendToContentInt@ClsXml@@QAE_NH@Z 00570464 f   ChilkatDbgDll:ClsXml.obj
 0001:0016f567       ?AppendToContentChar@ClsXml@@QAE_ND@Z 00570567 f   ChilkatDbgDll:ClsXml.obj
 0001:0016f66a       ?AppendToContentN@ClsXml@@QAE_NPBDH@Z 0057066a f   ChilkatDbgDll:ClsXml.obj
 0001:0016f6d5       ?removeAllChildren@ClsXml@@AAEXXZ 005706d5 f   ChilkatDbgDll:ClsXml.obj
 0001:0016f784       ?NewChildInt2@ClsXml@@QAEXAAVXString@@H@Z 00570784 f   ChilkatDbgDll:ClsXml.obj
 0001:0016f7e6       ?NewChildBool2@ClsXml@@QAEXAAVXString@@_N@Z 005707e6 f   ChilkatDbgDll:ClsXml.obj
 0001:0016f853       ?addAttributeInt@ClsXml@@QAE_NPBDH@Z 00570853 f   ChilkatDbgDll:ClsXml.obj
 0001:0016f904       ?AddAttributeInt@ClsXml@@QAE_NAAVXString@@H@Z 00570904 f   ChilkatDbgDll:ClsXml.obj
 0001:0016f9b0       ?RemoveChild@ClsXml@@QAEXAAVXString@@@Z 005709b0 f   ChilkatDbgDll:ClsXml.obj
 0001:0016fa16       ?RemoveChildUtf8@ClsXml@@QAEXPBD@Z 00570a16 f   ChilkatDbgDll:ClsXml.obj
 0001:0016fa77       ?RemoveChildByIndex@ClsXml@@QAEXH@Z 00570a77 f   ChilkatDbgDll:ClsXml.obj
 0001:0016fad8       ?RemoveChildWithContent@ClsXml@@QAEXAAVXString@@@Z 00570ad8 f   ChilkatDbgDll:ClsXml.obj
 0001:0016fb3e       ?AddOrUpdateAttribute@ClsXml@@QAE_NAAVXString@@0@Z 00570b3e f   ChilkatDbgDll:ClsXml.obj
 0001:0016fb95       ?AddOrUpdateAttributeI@ClsXml@@QAE_NAAVXString@@J@Z 00570b95 f   ChilkatDbgDll:ClsXml.obj
 0001:0016fbec       ?AddAttribute@ClsXml@@QAE_NAAVXString@@0@Z 00570bec f   ChilkatDbgDll:ClsXml.obj
 0001:0016fc24       ?addAttribute@ClsXml@@QAE_NPBD0@Z 00570c24 f   ChilkatDbgDll:ClsXml.obj
 0001:0016fd83       ?RemoveAttribute@ClsXml@@QAE_NAAVXString@@@Z 00570d83 f   ChilkatDbgDll:ClsXml.obj
 0001:0016fdb2       ?removeAttribute@ClsXml@@QAE_NPBD@Z 00570db2 f   ChilkatDbgDll:ClsXml.obj
 0001:0016fea3       ?RemoveAllAttributes@ClsXml@@QAE_NXZ 00570ea3 f   ChilkatDbgDll:ClsXml.obj
 0001:0016ff65       ?GetAttributeName@ClsXml@@QAE_NJAAVStringBuffer@@@Z 00570f65 f   ChilkatDbgDll:ClsXml.obj
 0001:00170039       ?GetAttributeValue@ClsXml@@QAE_NJAAVStringBuffer@@@Z 00571039 f   ChilkatDbgDll:ClsXml.obj
 0001:00170140       ?GetAttrValue@ClsXml@@QAE_NPBDAAVStringBuffer@@@Z 00571140 f   ChilkatDbgDll:ClsXml.obj
 0001:00170288       ?HasAttribute@ClsXml@@QAE_NAAVXString@@@Z 00571288 f   ChilkatDbgDll:ClsXml.obj
 0001:001703c9       ?HasAttrWithValue@ClsXml@@QAE_NAAVXString@@0@Z 005713c9 f   ChilkatDbgDll:ClsXml.obj
 0001:00170401       ?hasAttrWithValue@ClsXml@@QAE_NPBD0@Z 00571401 f   ChilkatDbgDll:ClsXml.obj
 0001:001704f5       ?SwapNode@ClsXml@@QAE_NAAV1@@Z 005714f5 f   ChilkatDbgDll:ClsXml.obj
 0001:00170612       ?enterCritSec@ClsXml@@AAEXXZ 00571612 f   ChilkatDbgDll:ClsXml.obj
 0001:00170666       ?leaveCritSec@ClsXml@@AAEXXZ 00571666 f   ChilkatDbgDll:ClsXml.obj
 0001:00170678       ?SwapTree@ClsXml@@QAE_NAAV1@@Z 00571678 f   ChilkatDbgDll:ClsXml.obj
 0001:00170795       ?serializeDb@ClsXml@@QAEXPBDAAVDataBuffer@@@Z 00571795 f   ChilkatDbgDll:ClsXml.obj
 0001:0017083f       ?serializeSb@ClsXml@@QAEXPBDABVStringBuffer@@@Z 0057183f f   ChilkatDbgDll:ClsXml.obj
 0001:0017090d       ?serializeInt@ClsXml@@QAEXPBDH@Z 0057190d f   ChilkatDbgDll:ClsXml.obj
 0001:0017096a       ?serializeBool@ClsXml@@QAEXPBD_N@Z 0057196a f   ChilkatDbgDll:ClsXml.obj
 0001:001709b8       ?unserializeSb@ClsXml@@QAEXPBDAAVStringBuffer@@@Z 005719b8 f   ChilkatDbgDll:ClsXml.obj
 0001:00170ab1       ?unserializeDb@ClsXml@@QAEXPBDAAVDataBuffer@@@Z 00571ab1 f   ChilkatDbgDll:ClsXml.obj
 0001:00170b86       ?unserializeInt@ClsXml@@QAEXPBDAAH@Z 00571b86 f   ChilkatDbgDll:ClsXml.obj
 0001:00170bb5       ?unserializeBool@ClsXml@@QAEXPBDAA_N@Z 00571bb5 f   ChilkatDbgDll:ClsXml.obj
 0001:00170c5b       ?AddChildTree@ClsXml@@QAE_NAAV1@@Z 00571c5b f   ChilkatDbgDll:ClsXml.obj
 0001:00170de3       ?InsertChildTreeAfter@ClsXml@@QAE_NHAAV1@@Z 00571de3 f   ChilkatDbgDll:ClsXml.obj
 0001:00170eae       ?InsertChildTreeBefore@ClsXml@@QAE_NHAAV1@@Z 00571eae f   ChilkatDbgDll:ClsXml.obj
 0001:00170f73       ?createNode@ClsXml@@AAEPAV1@PAVTreeNode@@H@Z 00571f73 f   ChilkatDbgDll:ClsXml.obj
 0001:0017107c       ?createNode@ClsXml@@AAEPAV1@PBD@Z 0057207c f   ChilkatDbgDll:ClsXml.obj
 0001:00171115       ?createChildAtUtf8@ClsXml@@AAEPAV1@HPBD0@Z 00572115 f   ChilkatDbgDll:ClsXml.obj
 0001:001711fb       ?prependNewChildUtf8@ClsXml@@AAEPAV1@PBD0@Z 005721fb f   ChilkatDbgDll:ClsXml.obj
 0001:001712df       ?GetChild2@ClsXml@@QAE_NJ@Z 005722df f   ChilkatDbgDll:ClsXml.obj
 0001:00171399       ?GetChild@ClsXml@@QAEPAV1@J@Z 00572399 f   ChilkatDbgDll:ClsXml.obj
 0001:0017149f       ?getChildTagPtr@ClsXml@@QAEPBDJ@Z 0057249f f   ChilkatDbgDll:ClsXml.obj
 0001:00171533       ?GetChildAttributeByIndex@ClsXml@@QAE_NHHAAVStringBuffer@@@Z 00572533 f   ChilkatDbgDll:ClsXml.obj
 0001:001715c6       ?GetChildAttributeValue@ClsXml@@QAE_NPBDHAAVStringBuffer@@@Z 005725c6 f   ChilkatDbgDll:ClsXml.obj
 0001:00171663       ?getChildContentPtr@ClsXml@@QAEPBDJ@Z 00572663 f   ChilkatDbgDll:ClsXml.obj
 0001:001716f7       ?GetRoot@ClsXml@@QAEPAV1@XZ 005726f7 f   ChilkatDbgDll:ClsXml.obj
 0001:00171781       ?RemoveFromTree@ClsXml@@QAEXXZ 00572781 f   ChilkatDbgDll:ClsXml.obj
 0001:00171835       ?ExtractChildByIndex@ClsXml@@QAEPAV1@J@Z 00572835 f   ChilkatDbgDll:ClsXml.obj
 0001:0017196f       ?ExtractChildByName@ClsXml@@QAEPAV1@PBD00@Z 0057296f f   ChilkatDbgDll:ClsXml.obj
 0001:00171c53       ?NumChildrenHavingTagUtf8@ClsXml@@QAEJPBD@Z 00572c53 f   ChilkatDbgDll:ClsXml.obj
 0001:00171d95       ?GetNthChildWithTagUtf8@ClsXml@@QAEPAV1@PBDJ@Z 00572d95 f   ChilkatDbgDll:ClsXml.obj
 0001:00171efe       ?NewChildBefore@ClsXml@@QAEPAV1@HAAVXString@@0@Z 00572efe f   ChilkatDbgDll:ClsXml.obj
 0001:001720b1       ?NewChildAfter@ClsXml@@QAEPAV1@HAAVXString@@0@Z 005730b1 f   ChilkatDbgDll:ClsXml.obj
 0001:00172267       ?NewChildUtf8@ClsXml@@QAEPAV1@PBD0@Z 00573267 f   ChilkatDbgDll:ClsXml.obj
 0001:001723c0       ?PrependChild2@ClsXml@@QAEXPBD0@Z 005733c0 f   ChilkatDbgDll:ClsXml.obj
 0001:0017254d       ?CollectTagContent@ClsXml@@QAEXPBDAAVClsStringArray@@@Z 0057354d f   ChilkatDbgDll:ClsXml.obj
 0001:001725b2       ?AccumulateTagContent@ClsXml@@QAE_NAAVXString@@00@Z 005735b2 f   ChilkatDbgDll:ClsXml.obj
 0001:00172691       ?GetChildTagByIndex@ClsXml@@QAE_NJAAVXString@@@Z 00573691 f   ChilkatDbgDll:ClsXml.obj
 0001:001726da       ?GetChildTag@ClsXml@@QAE_NJAAVXString@@@Z 005736da f   ChilkatDbgDll:ClsXml.obj
 0001:00172723       ?GetChildContent@ClsXml@@QAE_NJAAVXString@@@Z 00573723 f   ChilkatDbgDll:ClsXml.obj
 0001:0017276c       ?AccumulateTagContent@ClsXml@@QAEXPBD0AAVStringBuffer@@@Z 0057376c f   ChilkatDbgDll:ClsXml.obj
 0001:0017284d       ?accumulateBase64Content@ClsXml@@QAEXAAVDataBuffer@@PAVExtPtrArray@@@Z 0057384d f   ChilkatDbgDll:ClsXml.obj
 0001:001728b2       ?AccumulateContent@ClsXml@@QAEXAAVStringBuffer@@PBD@Z 005738b2 f   ChilkatDbgDll:ClsXml.obj
 0001:00172927       ?ContentMatches@ClsXml@@QAE_NAAVXString@@_N@Z 00573927 f   ChilkatDbgDll:ClsXml.obj
 0001:00172999       ?ChildContentEquals@ClsXml@@QAE_NPBD0@Z 00573999 f   ChilkatDbgDll:ClsXml.obj
 0001:00172b33       ?ChildContentMatches@ClsXml@@QAE_NAAVXString@@0_N@Z 00573b33 f   ChilkatDbgDll:ClsXml.obj
 0001:00172be1       ?UpdateChildContentInt@ClsXml@@QAEXAAVXString@@H@Z 00573be1 f   ChilkatDbgDll:ClsXml.obj
 0001:00172c81       ?UpdateChildContentBool@ClsXml@@QAEXAAVXString@@_N@Z 00573c81 f   ChilkatDbgDll:ClsXml.obj
 0001:00172d2c       ?RenameChildTag@ClsXml@@QAEXPBD0@Z 00573d2c f   ChilkatDbgDll:ClsXml.obj
 0001:00172ee8       ?UpdateChildContent@ClsXml@@QAEXAAVXString@@0@Z 00573ee8 f   ChilkatDbgDll:ClsXml.obj
 0001:00172f20       ?FindOrAddNewChild@ClsXml@@QAEPAV1@AAVXString@@@Z 00573f20 f   ChilkatDbgDll:ClsXml.obj
 0001:0017306f       ?GetChildWithContent@ClsXml@@QAEPAV1@PBD@Z 0057406f f   ChilkatDbgDll:ClsXml.obj
 0001:00173102       ?MoveUpChildWithContent@ClsXml@@QAEXPBD@Z 00574102 f   ChilkatDbgDll:ClsXml.obj
 0001:00173157       ?MoveDownChildWithContent@ClsXml@@QAEXPBD@Z 00574157 f   ChilkatDbgDll:ClsXml.obj
 0001:001731ac       ?HasChildWithContent@ClsXml@@QAE_NAAVXString@@@Z 005741ac f   ChilkatDbgDll:ClsXml.obj
 0001:0017320a       ?HasChildWithTagAndContent@ClsXml@@QAE_NAAVXString@@0@Z 0057420a f   ChilkatDbgDll:ClsXml.obj
 0001:00173271       ?FindChild@ClsXml@@QAEPAV1@PBD@Z 00574271 f   ChilkatDbgDll:ClsXml.obj
 0001:00173432       ?FindChild2@ClsXml@@QAE_NPBD@Z 00574432 f   ChilkatDbgDll:ClsXml.obj
 0001:00173621       ?FindBiggestContent@ClsXml@@QAEPAV1@HHPBD@Z 00574621 f   ChilkatDbgDll:ClsXml.obj
 0001:001736b9       ?FirstSignificantContent@ClsXml@@QAEPAV1@HAAVClsStringArray@@0@Z 005746b9 f   ChilkatDbgDll:ClsXml.obj
 0001:001737ff       ?SecondSignificantContent@ClsXml@@QAEPAV1@HAAVClsStringArray@@0@Z 005747ff f   ChilkatDbgDll:ClsXml.obj
 0001:001738a4       ?GetParent@ClsXml@@QAEPAV1@XZ 005748a4 f   ChilkatDbgDll:ClsXml.obj
 0001:001739a5       ?GetSelf@ClsXml@@QAEPAV1@XZ 005749a5 f   ChilkatDbgDll:ClsXml.obj
 0001:00173aa3       ?GetParent2@ClsXml@@QAE_NXZ 00574aa3 f   ChilkatDbgDll:ClsXml.obj
 0001:00173b56       ?get_DocType@ClsXml@@QAEXAAVXString@@@Z 00574b56 f   ChilkatDbgDll:ClsXml.obj
 0001:00173bed       ?put_DocType@ClsXml@@QAEXAAVXString@@@Z 00574bed f   ChilkatDbgDll:ClsXml.obj
 0001:00173c61       ?GetRoot2@ClsXml@@QAEXXZ   00574c61 f   ChilkatDbgDll:ClsXml.obj
 0001:00173d19       ?GetAllContent@ClsXml@@QAEXAAVStringBuffer@@D@Z 00574d19 f   ChilkatDbgDll:ClsXml.obj
 0001:00173d72       ?Clear@ClsXml@@QAE_NXZ     00574d72 f   ChilkatDbgDll:ClsXml.obj
 0001:00173e55       ?FirstChild@ClsXml@@QAEPAV1@XZ 00574e55 f   ChilkatDbgDll:ClsXml.obj
 0001:00173f84       ?LastChild@ClsXml@@QAEPAV1@XZ 00574f84 f   ChilkatDbgDll:ClsXml.obj
 0001:0017400e       ?GetNthChildWithTag2_Utf8@ClsXml@@QAE_NPBDJ@Z 0057500e f   ChilkatDbgDll:ClsXml.obj
 0001:00174187       ?LastChild2@ClsXml@@QAE_NXZ 00575187 f   ChilkatDbgDll:ClsXml.obj
 0001:0017423a       ?FirstChild2@ClsXml@@QAE_NXZ 0057523a f   ChilkatDbgDll:ClsXml.obj
 0001:00174385       ?PreviousSibling2@ClsXml@@QAE_NXZ 00575385 f   ChilkatDbgDll:ClsXml.obj
 0001:00174438       ?NextSibling2@ClsXml@@QAE_NXZ 00575438 f   ChilkatDbgDll:ClsXml.obj
 0001:001744eb       ?NextSibling@ClsXml@@QAEPAV1@XZ 005754eb f   ChilkatDbgDll:ClsXml.obj
 0001:001745ec       ?PreviousSibling@ClsXml@@QAEPAV1@XZ 005755ec f   ChilkatDbgDll:ClsXml.obj
 0001:001746ed       ?get_TreeId@ClsXml@@QAEJXZ 005756ed f   ChilkatDbgDll:ClsXml.obj
 0001:00174740       ?HasChildWithTag@ClsXml@@QAE_NPBD@Z 00575740 f   ChilkatDbgDll:ClsXml.obj
 0001:00174799       ?GetChildIntValue@ClsXml@@QAE_NPBDAAH@Z 00575799 f   ChilkatDbgDll:ClsXml.obj
 0001:0017482d       ?GetChildBoolValue@ClsXml@@QAE_NPBDAA_N@Z 0057582d f   ChilkatDbgDll:ClsXml.obj
 0001:001748d2       ?GetChildIntValue@ClsXml@@QAEHAAVXString@@@Z 005758d2 f   ChilkatDbgDll:ClsXml.obj
 0001:00174901       ?GetChildBoolValue@ClsXml@@QAE_NAAVXString@@@Z 00575901 f   ChilkatDbgDll:ClsXml.obj
 0001:00174930       ?GetGrandChildContent@ClsXml@@QAE_NPBD0HAAVStringBuffer@@@Z 00575930 f   ChilkatDbgDll:ClsXml.obj
 0001:00174a0e       ?GetChildContentUtf8@ClsXml@@QAE_NPBDAAVStringBuffer@@@Z 00575a0e f   ChilkatDbgDll:ClsXml.obj
 0001:00174aae       ?transferChildContentUtf8_sc@ClsXml@@QAE_NPBDAAVStringBuffer@@@Z 00575aae f   ChilkatDbgDll:ClsXml.obj
 0001:00174b49       ?GetChildContentSb2@ClsXml@@QAEPAVStringBuffer@@PBD@Z 00575b49 f   ChilkatDbgDll:ClsXml.obj
 0001:00174bfc       ?GetChildContentByIndex@ClsXml@@QAE_NHAAVXString@@@Z 00575bfc f   ChilkatDbgDll:ClsXml.obj
 0001:00174c9a       ?GetChildWithTagUtf8@ClsXml@@QAEPAV1@PBD@Z 00575c9a f   ChilkatDbgDll:ClsXml.obj
 0001:00174e01       ?GetChildExact@ClsXml@@QAEPAV1@AAVXString@@0@Z 00575e01 f   ChilkatDbgDll:ClsXml.obj
 0001:00174ea1       ?GetChildWithAttr@ClsXml@@QAEPAV1@PBD00@Z 00575ea1 f   ChilkatDbgDll:ClsXml.obj
 0001:0017500d       ?get_Encoding@ClsXml@@QAE_NAAVStringBuffer@@@Z 0057600d f   ChilkatDbgDll:ClsXml.obj
 0001:0017508e       ?put_Encoding@ClsXml@@QAE_NAAVXString@@@Z 0057608e f   ChilkatDbgDll:ClsXml.obj
 0001:001750bd       ?get_Standalone@ClsXml@@QAE_NXZ 005760bd f   ChilkatDbgDll:ClsXml.obj
 0001:001751d1       ?put_Standalone@ClsXml@@QAEX_N@Z 005761d1 f   ChilkatDbgDll:ClsXml.obj
 0001:0017531e       ?updateAttribute@ClsXml@@QAE_NPBD0@Z 0057631e f   ChilkatDbgDll:ClsXml.obj
 0001:001753ae       ?UpdateAttribute@ClsXml@@QAE_NAAVXString@@0@Z 005763ae f   ChilkatDbgDll:ClsXml.obj
 0001:00175429       ?UpdateAttributeInt@ClsXml@@QAE_NAAVXString@@H@Z 00576429 f   ChilkatDbgDll:ClsXml.obj
 0001:0017545c       ?updateAttributeInt@ClsXml@@QAE_NPBDH@Z 0057645c f   ChilkatDbgDll:ClsXml.obj
 0001:0017556c       ?Copy@ClsXml@@QAEXAAV1@@Z  0057656c f   ChilkatDbgDll:ClsXml.obj
 0001:0017566e       ?FindNextRecord@ClsXml@@QAEPAV1@AAVXString@@0@Z 0057666e f   ChilkatDbgDll:ClsXml.obj
 0001:001757b1       ?AddToContent@ClsXml@@QAEXH@Z 005767b1 f   ChilkatDbgDll:ClsXml.obj
 0001:001758ed       ?AddToChildContent@ClsXml@@QAEXAAVXString@@H@Z 005768ed f   ChilkatDbgDll:ClsXml.obj
 0001:00175a99       ?AddStyleSheet@ClsXml@@QAEXAAVXString@@@Z 00576a99 f   ChilkatDbgDll:ClsXml.obj
 0001:00175b21       ?AddToAttribute@ClsXml@@QAEXAAVXString@@H@Z 00576b21 f   ChilkatDbgDll:ClsXml.obj
 0001:00175d45       ?SetVb@ClsXml@@QAEXAAVVertBarList@@@Z 00576d45 f   ChilkatDbgDll:ClsXml.obj
 0001:00175e59       ?GetVb@ClsXml@@QAEXAAVVertBarList@@@Z 00576e59 f   ChilkatDbgDll:ClsXml.obj
 0001:00175ed2       ?GetChildContentSb@ClsXml@@QAEPBVStringBuffer@@PBD@Z 00576ed2 f   ChilkatDbgDll:ClsXml.obj
 0001:00175f5f       ?SetChildVb@ClsXml@@QAEXPBDAAVVertBarList@@@Z 00576f5f f   ChilkatDbgDll:ClsXml.obj
 0001:001760e0       ?HasChildVbItem@ClsXml@@QAE_NPBD0@Z 005770e0 f   ChilkatDbgDll:ClsXml.obj
 0001:00176255       ?GetChildVb@ClsXml@@QAEXPBDAAVVertBarList@@@Z 00577255 f   ChilkatDbgDll:ClsXml.obj
 0001:001762ee       ?QEncodeContent@ClsXml@@QAE_NAAVXString@@ABVDataBuffer@@@Z 005772ee f   ChilkatDbgDll:ClsXml.obj
 0001:00176429       ?BEncodeContent@ClsXml@@QAE_NAAVXString@@ABVDataBuffer@@@Z 00577429 f   ChilkatDbgDll:ClsXml.obj
 0001:00176564       ?DecodeEntities@ClsXml@@QAE_NAAVXString@@0@Z 00577564 f   ChilkatDbgDll:ClsXml.obj
 0001:0017661a       ?DecodeContent@ClsXml@@QAE_NAAVDataBuffer@@@Z 0057761a f   ChilkatDbgDll:ClsXml.obj
 0001:00176782       ?EncryptContent@ClsXml@@QAE_NAAVXString@@@Z 00577782 f   ChilkatDbgDll:ClsXml.obj
 0001:001767b1       ?DecryptContent@ClsXml@@QAE_NAAVXString@@@Z 005777b1 f   ChilkatDbgDll:ClsXml.obj
 0001:001767e0       ?EncryptContent@ClsXml@@QAE_NPBD@Z 005777e0 f   ChilkatDbgDll:ClsXml.obj
 0001:00176a0a       ?DecryptContent@ClsXml@@QAE_NPBD@Z 00577a0a f   ChilkatDbgDll:ClsXml.obj
 0001:00176cb0       ??_EClsXml@@UAEPAXI@Z      00577cb0 f i ChilkatDbgDll:ClsXml.obj
 0001:00176cb0       ??_GClsXml@@UAEPAXI@Z      00577cb0 f i ChilkatDbgDll:ClsXml.obj
 0001:00176cf0       ??_EClsXml@@W7AEPAXI@Z     00577cf0 f i ChilkatDbgDll:ClsXml.obj
 0001:00176d00       ??_EClsXml@@WHA@AEPAXI@Z   00577d00 f i ChilkatDbgDll:ClsXml.obj
 0001:00176d10       ?Pkcs1PublicKeyToDer@CryptoKey@@SA_NAAVStringBuffer@@AAVDataBuffer@@@Z 00577d10 f   ChilkatDbgDll:CryptoKey.obj
 0001:00176e6d       ?PemToDer@CryptoKey@@SA_NAAVStringBuffer@@AAVDataBuffer@@AAVLogBase@@@Z 00577e6d f   ChilkatDbgDll:CryptoKey.obj
 0001:001770c9       ?Pkcs8ToRsaDer@CryptoKey@@SA_NAAVDataBuffer@@0AAVLogBase@@@Z 005780c9 f   ChilkatDbgDll:CryptoKey.obj
 0001:001773b7       ?OpenSslDerToRsaDer@CryptoKey@@SA_NAAVDataBuffer@@0AAVLogBase@@@Z 005783b7 f   ChilkatDbgDll:CryptoKey.obj
 0001:00177648       ?RsaDerToOpenSslDer@CryptoKey@@SA_NAAVDataBuffer@@0AAVLogBase@@@Z 00578648 f   ChilkatDbgDll:CryptoKey.obj
 0001:0017779b       ?DeterimeRsaPublicOrPrivate@CryptoKey@@SA_NAAVDataBuffer@@AA_NAAVLogBase@@@Z 0057879b f   ChilkatDbgDll:CryptoKey.obj
 0001:00177993       ?getRsaModulusBase64@CryptoKey@@SA_NAAVDataBuffer@@AAVStringBuffer@@AAVLogBase@@@Z 00578993 f   ChilkatDbgDll:CryptoKey.obj
 0001:00177c50       ?RsaDerToXml@CryptoKey@@SA_NAAVDataBuffer@@AAVStringBuffer@@AAVLogBase@@@Z 00578c50 f   ChilkatDbgDll:CryptoKey.obj
 0001:00178318       ?RsaDerToKey@CryptoKey@@SA_NAAVDataBuffer@@AAVrsa_key@@AAVLogBase@@@Z 00579318 f   ChilkatDbgDll:CryptoKey.obj
 0001:0017883a       ?XmlToDsaDer@CryptoKey@@SA_NAAVStringBuffer@@AAVDataBuffer@@AAVLogBase@@@Z 0057983a f   ChilkatDbgDll:CryptoKey.obj
 0001:00178d8e       ?DsaDerToKey@CryptoKey@@SA_NAAVDataBuffer@@AAUdsa_key@@AAVLogBase@@@Z 00579d8e f   ChilkatDbgDll:CryptoKey.obj
 0001:0017915c       ?XmlToDsaPubDer@CryptoKey@@SA_NAAVStringBuffer@@AAVDataBuffer@@AAVLogBase@@@Z 0057a15c f   ChilkatDbgDll:CryptoKey.obj
 0001:00179cf4       ?DsaPubDerToKey@CryptoKey@@SA_NAAVDataBuffer@@AAUdsa_key@@AAVLogBase@@@Z 0057acf4 f   ChilkatDbgDll:CryptoKey.obj
 0001:0017a4a1       ?DsaDerToKeyParams@CryptoKey@@SA_NAAVDataBuffer@@AAUdsa_key@@AAVLogBase@@@Z 0057b4a1 f   ChilkatDbgDll:CryptoKey.obj
 0001:0017a746       ?DsaDerToXml@CryptoKey@@SA_NAAVDataBuffer@@AAVStringBuffer@@AAVLogBase@@@Z 0057b746 f   ChilkatDbgDll:CryptoKey.obj
 0001:0017b0d2       ?PubKeyDerToXml@CryptoKey@@SA_NAAVDataBuffer@@AAVStringBuffer@@AAVLogBase@@@Z 0057c0d2 f   ChilkatDbgDll:CryptoKey.obj
 0001:0017b457       ?RsaPubKeyDerToKey@CryptoKey@@SA_NAAVDataBuffer@@AAVrsa_key@@AA_NAAVLogBase@@@Z 0057c457 f   ChilkatDbgDll:CryptoKey.obj
 0001:0017b8a4       ?XmlToRsaDer@CryptoKey@@SA_NAAVStringBuffer@@AAVDataBuffer@@AAVLogBase@@@Z 0057c8a4 f   ChilkatDbgDll:CryptoKey.obj
 0001:0017d242       ?XmlToRsaKey@CryptoKey@@SA_NAAVStringBuffer@@AAVrsa_key@@AAVLogBase@@@Z 0057e242 f   ChilkatDbgDll:CryptoKey.obj
 0001:0017d7e2       ?XmlToRsaPubKeyDer@CryptoKey@@SA_NAAVStringBuffer@@AAVDataBuffer@@AAVLogBase@@@Z 0057e7e2 f   ChilkatDbgDll:CryptoKey.obj
 0001:0017da98       ?RsaDerToPkcs8@CryptoKey@@SA_NAAVDataBuffer@@0AAVLogBase@@@Z 0057ea98 f   ChilkatDbgDll:CryptoKey.obj
 0001:0017dbfa       ?Pkcs8ToPem@CryptoKey@@SA_NAAVDataBuffer@@AAVStringBuffer@@@Z 0057ebfa f   ChilkatDbgDll:CryptoKey.obj
 0001:0017dcf2       ?EncryptedPkcs8ToPem@CryptoKey@@SA_NAAVDataBuffer@@AAVStringBuffer@@@Z 0057ecf2 f   ChilkatDbgDll:CryptoKey.obj
 0001:0017ddea       ?RsaDerToPem@CryptoKey@@SA_NAAVDataBuffer@@AAVStringBuffer@@@Z 0057edea f   ChilkatDbgDll:CryptoKey.obj
 0001:0017dee2       ?PubKeyDerToPem@CryptoKey@@SA_NAAVDataBuffer@@AAVStringBuffer@@@Z 0057eee2 f   ChilkatDbgDll:CryptoKey.obj
 0001:0017dfe0       ??0Pkcs1@@QAE@XZ           0057efe0 f   ChilkatDbgDll:Pkcs1.obj
 0001:0017dffe       ??1Pkcs1@@UAE@XZ           0057effe f   ChilkatDbgDll:Pkcs1.obj
 0001:0017e019       ?v1_5_encode@Pkcs1@@SA_NPBEIHIAAVDataBuffer@@AAVLogBase@@@Z 0057f019 f   ChilkatDbgDll:Pkcs1.obj
 0001:0017e15b       ?v1_5_decode@Pkcs1@@SA_NPBEIHIAAVDataBuffer@@AA_N2AAVLogBase@@@Z 0057f15b f   ChilkatDbgDll:Pkcs1.obj
 0001:0017e1d3       ?v1_5_decodeInner@Pkcs1@@CA_NPBEIHIAAVDataBuffer@@AA_N2AAVLogBase@@@Z 0057f1d3 f   ChilkatDbgDll:Pkcs1.obj
 0001:0017e533       ?i2osp@Pkcs1@@SA_NABVmp_int@@IAAVDataBuffer@@AAVLogBase@@@Z 0057f533 f   ChilkatDbgDll:Pkcs1.obj
 0001:0017e5f3       ?mgf1@Pkcs1@@SA_NHHPBEIIAAVDataBuffer@@AAVLogBase@@@Z 0057f5f3 f   ChilkatDbgDll:Pkcs1.obj
 0001:0017e7dc       ?oaep_encode@Pkcs1@@SA_NPBEI0IIHAAVDataBuffer@@AAVLogBase@@@Z 0057f7dc f   ChilkatDbgDll:Pkcs1.obj
 0001:0017ec63       ?oaep_decode@Pkcs1@@SA_NPBEI0IIHAAVDataBuffer@@AAVLogBase@@@Z 0057fc63 f   ChilkatDbgDll:Pkcs1.obj
 0001:0017f13a       ?pss_encode@Pkcs1@@SA_NPBEIHIAAVDataBuffer@@AAVLogBase@@@Z 0058013a f   ChilkatDbgDll:Pkcs1.obj
 0001:0017f579       ?pss_decode@Pkcs1@@SA_NPBEI0IHIAA_NAAVLogBase@@@Z 00580579 f   ChilkatDbgDll:Pkcs1.obj
 0001:0017fda0       ??_EPkcs1@@UAEPAXI@Z       00580da0 f i ChilkatDbgDll:Pkcs1.obj
 0001:0017fda0       ??_GPkcs1@@UAEPAXI@Z       00580da0 f i ChilkatDbgDll:Pkcs1.obj
 0001:0017fde0       ?generalToXml@AsnItem@@AAEXAAVStringBuffer@@PAVExtPtrArray@@@Z 00580de0 f   ChilkatDbgDll:Der.obj
 0001:0018002c       ?toXmlUtf8@AsnItem@@QAEXAAVStringBuffer@@PAVExtPtrArray@@@Z 0058102c f   ChilkatDbgDll:Der.obj
 0001:0018084a       ?createNewObject@AsnItem@@SAPAV1@XZ 0058184a f   ChilkatDbgDll:Der.obj
 0001:00180905       ??0AsnItem@@QAE@XZ         00581905 f   ChilkatDbgDll:Der.obj
 0001:00180961       ?get_mp@AsnItem@@QBE_NAAVmp_int@@AAVLogBase@@@Z 00581961 f   ChilkatDbgDll:Der.obj
 0001:001809b4       ?isConstructed@AsnItem@@QAE_NXZ 005819b4 f   ChilkatDbgDll:Der.obj
 0001:001809cc       ?getTag@AsnItem@@QAEIXZ    005819cc f   ChilkatDbgDll:Der.obj
 0001:001809e4       ?getClass@AsnItem@@QAEEXZ  005819e4 f   ChilkatDbgDll:Der.obj
 0001:001809fc       ?getDataCount@AsnItem@@QAEIXZ 005819fc f   ChilkatDbgDll:Der.obj
 0001:00180a14       ?get_uc@AsnItem@@QBEPBEXZ  00581a14 f   ChilkatDbgDll:Der.obj
 0001:00180a2c       ?get_boolVal@AsnItem@@QBEEXZ 00581a2c f   ChilkatDbgDll:Der.obj
 0001:00180a44       ?get_pw@AsnItem@@QBEPBGXZ  00581a44 f   ChilkatDbgDll:Der.obj
 0001:00180a5c       ?get_pu@AsnItem@@QBEPBIXZ  00581a5c f   ChilkatDbgDll:Der.obj
 0001:00180a74       ?get_seq@AsnItem@@QBEPAVExtPtrArray@@XZ 00581a74 f   ChilkatDbgDll:Der.obj
 0001:00180a8c       ?getOidDescrip@AsnItem@@SAXABVStringBuffer@@AAV2@@Z 00581a8c f   ChilkatDbgDll:Der.obj
 0001:00180c92       ?getOidStr@AsnItem@@QAEXAAVStringBuffer@@@Z 00581c92 f   ChilkatDbgDll:Der.obj
 0001:00180d1e       ?set_bool@AsnItem@@QAEXE@Z 00581d1e f   ChilkatDbgDll:Der.obj
 0001:00180d65       ?copy_int@AsnItem@@QAEXPBEI@Z 00581d65 f   ChilkatDbgDll:Der.obj
 0001:00180ded       ?getSubItem_doNotDelete@AsnItem@@QAEPAV1@H@Z 00581ded f   ChilkatDbgDll:Der.obj
 0001:00180e37       ?copy_bits@AsnItem@@QAEXPBEI@Z 00581e37 f   ChilkatDbgDll:Der.obj
 0001:00180eae       ?copy_octet@AsnItem@@QAEXPBEI@Z 00581eae f   ChilkatDbgDll:Der.obj
 0001:00180f25       ?copy_oid2@AsnItem@@QAEXPBII@Z 00581f25 f   ChilkatDbgDll:Der.obj
 0001:00180fa7       ?copy_utc@AsnItem@@QAEXPBEI@Z 00581fa7 f   ChilkatDbgDll:Der.obj
 0001:0018101e       ?copy_ia5@AsnItem@@QAEXPBEI@Z 0058201e f   ChilkatDbgDll:Der.obj
 0001:00181095       ?copy_t61@AsnItem@@QAEXPBEI@Z 00582095 f   ChilkatDbgDll:Der.obj
 0001:0018110c       ?copy_printable@AsnItem@@QAEXPBEI@Z 0058210c f   ChilkatDbgDll:Der.obj
 0001:00181183       ?copy_utf8_2@AsnItem@@QAEXPBGI@Z 00582183 f   ChilkatDbgDll:Der.obj
 0001:00181203       ?set_bits@AsnItem@@QAEXPAEI@Z 00582203 f   ChilkatDbgDll:Der.obj
 0001:00181253       ?set_octet@AsnItem@@QAEXPAEI@Z 00582253 f   ChilkatDbgDll:Der.obj
 0001:001812a3       ?set_null@AsnItem@@QAEXXZ  005822a3 f   ChilkatDbgDll:Der.obj
 0001:001812df       ?set_oid2@AsnItem@@QAEXPAII@Z 005822df f   ChilkatDbgDll:Der.obj
 0001:0018132f       ?set_relativeOid2@AsnItem@@QAEXPAII@Z 0058232f f   ChilkatDbgDll:Der.obj
 0001:0018137f       ?set_utc@AsnItem@@QAEXPAEI@Z 0058237f f   ChilkatDbgDll:Der.obj
 0001:001813cf       ?set_ia5@AsnItem@@QAEXPAEI@Z 005823cf f   ChilkatDbgDll:Der.obj
 0001:0018141f       ?set_t61@AsnItem@@QAEXPAEI@Z 0058241f f   ChilkatDbgDll:Der.obj
 0001:0018146f       ?set_printable@AsnItem@@QAEXPAEI@Z 0058246f f   ChilkatDbgDll:Der.obj
 0001:001814bf       ?set_utf8_2@AsnItem@@QAEXPAGI@Z 005824bf f   ChilkatDbgDll:Der.obj
 0001:0018150f       ?set_seq@AsnItem@@QAEXPAVExtPtrArray@@@Z 0058250f f   ChilkatDbgDll:Der.obj
 0001:00181571       ?set_setOf@AsnItem@@QAEXPAVExtPtrArray@@@Z 00582571 f   ChilkatDbgDll:Der.obj
 0001:001815d3       ?newSequence@AsnItem@@QAEXXZ 005825d3 f   ChilkatDbgDll:Der.obj
 0001:00181633       ?newSet@AsnItem@@QAEXXZ    00582633 f   ChilkatDbgDll:Der.obj
 0001:00181693       ?append@AsnItem@@QAE_NPAV1@@Z 00582693 f   ChilkatDbgDll:Der.obj
 0001:001816e9       ?appendOctet@AsnItem@@QAE_NPBEI@Z 005826e9 f   ChilkatDbgDll:Der.obj
 0001:0018175c       ?appendUnsignedInt@AsnItem@@QAE_NAAVmp_int@@AAVLogBase@@@Z 0058275c f   ChilkatDbgDll:Der.obj
 0001:00181875       ?appendOidStr@AsnItem@@QAE_NPBD@Z 00582875 f   ChilkatDbgDll:Der.obj
 0001:00181906       ?appendOid@AsnItem@@QAE_NAAVOid@@@Z 00582906 f   ChilkatDbgDll:Der.obj
 0001:0018199c       ?appendNull@AsnItem@@QAE_NXZ 0058299c f   ChilkatDbgDll:Der.obj
 0001:00181a05       ?set_constructed@AsnItem@@QAEXIE_NPAVExtPtrArray@@@Z 00582a05 f   ChilkatDbgDll:Der.obj
 0001:00181a62       ?copy_primitive@AsnItem@@QAEXIEPBEI@Z 00582a62 f   ChilkatDbgDll:Der.obj
 0001:00181af4       ?clearData@AsnItem@@AAEXXZ 00582af4 f   ChilkatDbgDll:Der.obj
 0001:00181caa       ??1AsnItem@@UAE@XZ         00582caa f   ChilkatDbgDll:Der.obj
 0001:00181d0c       ??0Der@@QAE@XZ             00582d0c f   ChilkatDbgDll:Der.obj
 0001:00181d2a       ??1Der@@UAE@XZ             00582d2a f   ChilkatDbgDll:Der.obj
 0001:00181d45       ?length_constructed@Der@@SAIPAVExtPtrArray@@_N@Z 00582d45 f   ChilkatDbgDll:Der.obj
 0001:00181f6d       ?length_bit_string@Der@@SAII@Z 00582f6d f   ChilkatDbgDll:Der.obj
 0001:00181fd1       ?length_utf8_string@Der@@SAIPBGI@Z 00582fd1 f   ChilkatDbgDll:Der.obj
 0001:001820c0       ?length_integer@Der@@SAIPBVmp_int@@@Z 005830c0 f   ChilkatDbgDll:Der.obj
 0001:0018222a       ?object_identifier_bits@Der@@CAII@Z 0058322a f   ChilkatDbgDll:Der.obj
 0001:00182269       ?length_object_identifier@Der@@SAIPBII@Z 00583269 f   ChilkatDbgDll:Der.obj
 0001:001823b7       ?length_utctime@Der@@SAIPBUck_utctime@@@Z 005833b7 f   ChilkatDbgDll:Der.obj
 0001:001823e4       ?length_asn_encoded@Der@@SAII@Z 005833e4 f   ChilkatDbgDll:Der.obj
 0001:0018242f       ?encode_bit_string@Der@@SAXPBEIAAVDataBuffer@@@Z 0058342f f   ChilkatDbgDll:Der.obj
 0001:00182686       ?encode_boolean@Der@@SAX_NAAVDataBuffer@@@Z 00583686 f   ChilkatDbgDll:Der.obj
 0001:001826c0       ?encode_integer_old@Der@@SA_NPBVmp_int@@AAVDataBuffer@@@Z 005836c0 f   ChilkatDbgDll:Der.obj
 0001:00182acb       ?encode_object_identifier@Der@@SA_NPBIIAAVDataBuffer@@@Z 00583acb f   ChilkatDbgDll:Der.obj
 0001:00182e07       ?encode_to_asn@Der@@SA_NEPBEIAAVDataBuffer@@@Z 00583e07 f   ChilkatDbgDll:Der.obj
 0001:00183030       ?encode_utctime@Der@@SA_NPBUck_utctime@@AAVDataBuffer@@@Z 00584030 f   ChilkatDbgDll:Der.obj
 0001:00183423       ?encode_utf8_string@Der@@SA_NPBGIAAVDataBuffer@@@Z 00584423 f   ChilkatDbgDll:Der.obj
 0001:0018380d       ?EncodeAsn@Der@@SA_NAAVAsnItem@@AAVDataBuffer@@@Z 0058480d f   ChilkatDbgDll:Der.obj
 0001:00183abe       ?encode_sequence@Der@@SA_NPAVExtPtrArray@@AAVDataBuffer@@@Z 00584abe f   ChilkatDbgDll:Der.obj
 0001:00183adc       ?encode_sequence_ex@Der@@SA_NPAVExtPtrArray@@HAAVDataBuffer@@@Z 00584adc f   ChilkatDbgDll:Der.obj
 0001:001841a5       ?encode_set@Der@@SA_NPAVExtPtrArray@@AAVDataBuffer@@@Z 005851a5 f   ChilkatDbgDll:Der.obj
 0001:001841f4       ?encode_setof@Der@@SA_NPAVExtPtrArray@@AAVDataBuffer@@@Z 005851f4 f   ChilkatDbgDll:Der.obj
 0001:00184641       ?unpackBits@Der@@SAPAEPBEI@Z 00585641 f   ChilkatDbgDll:Der.obj
 0001:001846ed       ?packBits@Der@@SAXPBEIAAVDataBuffer@@@Z 005856ed f   ChilkatDbgDll:Der.obj
 0001:001847b2       ?decode_bit_string@Der@@SAPAEPBEIAAI@Z 005857b2 f   ChilkatDbgDll:Der.obj
 0001:001848b5       ?decode_object_identifier@Der@@SAPAIPBEIAAIAAVLogBase@@@Z 005858b5 f   ChilkatDbgDll:Der.obj
 0001:00184a40       ?decode_relative_object_identifier@Der@@SAPAIPBEIAAIAAVLogBase@@@Z 00585a40 f   ChilkatDbgDll:Der.obj
 0001:00184b92       ?xml_to_der@Der@@SA_NAAVClsXml@@AAVDataBuffer@@AAVLogBase@@@Z 00585b92 f   ChilkatDbgDll:Der.obj
 0001:00184cb1       ?logDerAsXml@Der@@SAXABVDataBuffer@@AAVLogBase@@@Z 00585cb1 f   ChilkatDbgDll:Der.obj
 0001:00184dab       ?der_to_xml@Der@@SA_NABVDataBuffer@@_N1AAVStringBuffer@@PAVExtPtrArray@@AAVLogBase@@@Z 00585dab f   ChilkatDbgDll:Der.obj
 0001:0018503a       ?decode_utf8_string@Der@@SAPAGPBEIAAIAA_NAAVLogBase@@@Z 0058603a f   ChilkatDbgDll:Der.obj
 0001:001852b4       ?parseAsnHeader@Der@@SA_NPBEIAAIAAEAA_N11331AAVLogBase@@@Z 005862b4 f   ChilkatDbgDll:Der.obj
 0001:001859f5       ?DecodeAsn@Der@@SAPAVAsnItem@@PBEIAAVLogBase@@@Z 005869f5 f   ChilkatDbgDll:Der.obj
 0001:00185b1b       ?decode_sequence_flexi@Der@@SAPAVExtPtrArray@@PBEI_NH1AA_NAAIAAVLogBase@@@Z 00586b1b f   ChilkatDbgDll:Der.obj
 0001:00186f00       ??_EAsnItem@@UAEPAXI@Z     00587f00 f i ChilkatDbgDll:Der.obj
 0001:00186f00       ??_GAsnItem@@UAEPAXI@Z     00587f00 f i ChilkatDbgDll:Der.obj
 0001:00186f40       ??_EDer@@UAEPAXI@Z         00587f40 f i ChilkatDbgDll:Der.obj
 0001:00186f40       ??_GDer@@UAEPAXI@Z         00587f40 f i ChilkatDbgDll:Der.obj
 0001:00186f80       ?clearMemoryData@MemoryData@@QAEXXZ 00587f80 f   ChilkatDbgDll:MemoryData.obj
 0001:00187026       ??1MemoryData@@UAE@XZ      00588026 f   ChilkatDbgDll:MemoryData.obj
 0001:001870b8       ?reset@MemoryData@@QAEXXZ  005880b8 f   ChilkatDbgDll:MemoryData.obj
 0001:00187162       ?setDataFromMemory2@MemoryData@@QAEXPAEI@Z 00588162 f   ChilkatDbgDll:MemoryData.obj
 0001:0018718f       ?setDataFromFileUtf8@MemoryData@@QAE_NPBDAAVLogBase@@@Z 0058818f f   ChilkatDbgDll:MemoryData.obj
 0001:001871e8       ?setOwnership2@MemoryData@@QAEX_N@Z 005881e8 f   ChilkatDbgDll:MemoryData.obj
 0001:00187205       ?getFilenameUtf8@MemoryData@@QBEPBDXZ 00588205 f   ChilkatDbgDll:MemoryData.obj
 0001:0018722c       ??0MemoryData@@QAE@XZ      0058822c f   ChilkatDbgDll:MemoryData.obj
 0001:001872f2       ?scanForLong_64@MemoryData@@QAEPBEAA_JI@Z 005882f2 f   ChilkatDbgDll:MemoryData.obj
 0001:001874af       ?scanFor2Longs_64@MemoryData@@QAEPBEAA_JII@Z 005884af f   ChilkatDbgDll:MemoryData.obj
 0001:00187679       ?getMemData32@MemoryData@@QAEPBEIIAAVLogBase@@@Z 00588679 f   ChilkatDbgDll:MemoryData.obj
 0001:001876ae       ?getSize64@MemoryData@@QAE_JXZ 005886ae f   ChilkatDbgDll:MemoryData.obj
 0001:001876ee       ?getMemUint32@MemoryData@@QAE_N_JAAIAAVLogBase@@@Z 005886ee f   ChilkatDbgDll:MemoryData.obj
 0001:00187775       ?getMemData64@MemoryData@@QAEPBE_JIAAVLogBase@@@Z 00588775 f   ChilkatDbgDll:MemoryData.obj
 0001:001878fb       ?getMemDataZ64@MemoryData@@QAEPBE_JIAAIAAVLogBase@@@Z 005888fb f   ChilkatDbgDll:MemoryData.obj
 0001:00187a50       ??_EMemoryData@@UAEPAXI@Z  00588a50 f i ChilkatDbgDll:MemoryData.obj
 0001:00187a50       ??_GMemoryData@@UAEPAXI@Z  00588a50 f i ChilkatDbgDll:MemoryData.obj
 0001:00187a90       ?get_UuMode@ClsEncode@@QAEXAAVStringBuffer@@@Z 00588a90 f   ChilkatDbgDll:ClsEncode.obj
 0001:00187abd       ?get_UuMode@ClsEncode@@QAEXAAVXString@@@Z 00588abd f   ChilkatDbgDll:ClsEncode.obj
 0001:00187aef       ?put_UuMode@ClsEncode@@QAEXAAVXString@@@Z 00588aef f   ChilkatDbgDll:ClsEncode.obj
 0001:00187b21       ?put_UuMode@ClsEncode@@QAEXABVStringBuffer@@@Z 00588b21 f   ChilkatDbgDll:ClsEncode.obj
 0001:00187b4e       ?get_UuFilename@ClsEncode@@QAEXAAVXString@@@Z 00588b4e f   ChilkatDbgDll:ClsEncode.obj
 0001:00187b7d       ?put_UuFilename@ClsEncode@@QAEXAAVXString@@@Z 00588b7d f   ChilkatDbgDll:ClsEncode.obj
 0001:00187bad       ?get_QbCharset@ClsEncode@@QAEXAAVXString@@@Z 00588bad f   ChilkatDbgDll:ClsEncode.obj
 0001:00187bdc       ?put_QbCharset@ClsEncode@@QAEXAAVXString@@@Z 00588bdc f   ChilkatDbgDll:ClsEncode.obj
 0001:00187c0c       ??0ClsEncode@@QAE@XZ       00588c0c f   ChilkatDbgDll:ClsEncode.obj
 0001:00187cd0       ??1ClsEncode@@UAE@XZ       00588cd0 f   ChilkatDbgDll:ClsEncode.obj
 0001:00187d4d       ?get_EncodingModeInt@ClsEncode@@QBEHXZ 00588d4d f   ChilkatDbgDll:ClsEncode.obj
 0001:00187d65       ?put_EncodingModeInt@ClsEncode@@QAEXH@Z 00588d65 f   ChilkatDbgDll:ClsEncode.obj
 0001:00187d82       ?get_EncodingMode@ClsEncode@@QBEXAAVXString@@@Z 00588d82 f   ChilkatDbgDll:ClsEncode.obj
 0001:00187f18       ?logEncodingMode@ClsEncode@@QAEXAAVLogBase@@@Z 00588f18 f   ChilkatDbgDll:ClsEncode.obj
 0001:00187fcc       ?put_EncodingMode@ClsEncode@@QAEXAAVXString@@@Z 00588fcc f   ChilkatDbgDll:ClsEncode.obj
 0001:00188337       ?decodeBinary@ClsEncode@@QAEXAAVXString@@AAVDataBuffer@@_N@Z 00589337 f   ChilkatDbgDll:ClsEncode.obj
 0001:001888d4       ?encodeBinary@ClsEncode@@QAEXABVDataBuffer@@AAVXString@@_N@Z 005898d4 f   ChilkatDbgDll:ClsEncode.obj
 0001:00189153       ?EncodeBytes@ClsEncode@@QAE_NABVDataBuffer@@AAVXString@@1_N@Z 0058a153 f   ChilkatDbgDll:ClsEncode.obj
 0001:00189189       ?Encode@ClsEncode@@QAE_NABVDataBuffer@@AAVXString@@1_N@Z 0058a189 f   ChilkatDbgDll:ClsEncode.obj
 0001:0018927b       ?encodeString@ClsEncode@@QAE_NAAVXString@@0_N0@Z 0058a27b f   ChilkatDbgDll:ClsEncode.obj
 0001:00189319       ?decodeString@ClsEncode@@QAE_NAAVXString@@0_N0@Z 0058a319 f   ChilkatDbgDll:ClsEncode.obj
 0001:001893df       ?Decode@ClsEncode@@QAE_NAAVXString@@0AAVDataBuffer@@_N@Z 0058a3df f   ChilkatDbgDll:ClsEncode.obj
 0001:001894e0       ??_EClsEncode@@UAEPAXI@Z   0058a4e0 f i ChilkatDbgDll:ClsEncode.obj
 0001:001894e0       ??_GClsEncode@@UAEPAXI@Z   0058a4e0 f i ChilkatDbgDll:ClsEncode.obj
 0001:00189520       ??0CertRepository@@QAE@XZ  0058a520 f   ChilkatDbgDll:SystemCerts.obj
 0001:001895df       ??1CertRepository@@UAE@XZ  0058a5df f   ChilkatDbgDll:SystemCerts.obj
 0001:00189680       ?getNumCerts@CertRepository@@QAEIXZ 0058a680 f   ChilkatDbgDll:SystemCerts.obj
 0001:001896a7       ?getNthRepositoryCert@CertRepository@@QAEPAVCertificate@@IAAVLogBase@@@Z 0058a6a7 f   ChilkatDbgDll:SystemCerts.obj
 0001:00189766       ?mergeCertRepository@CertRepository@@QAE_NAAV1@AAVLogBase@@@Z 0058a766 f   ChilkatDbgDll:SystemCerts.obj
 0001:00189855       ?crpFindIssuer@CertRepository@@QAEPAVCertificate@@AAV2@AAVLogBase@@@Z 0058a855 f   ChilkatDbgDll:SystemCerts.obj
 0001:00189ad0       ?crpFindBySubjectDN@CertRepository@@QAEPAVCertificate@@PBDAAVLogBase@@@Z 0058aad0 f   ChilkatDbgDll:SystemCerts.obj
 0001:00189c3c       ?crpFindByEmailAddr@CertRepository@@QAEPAVCertificate@@AAVXString@@AAVLogBase@@@Z 0058ac3c f   ChilkatDbgDll:SystemCerts.obj
 0001:00189e41       ?crpFindCert@CertRepository@@QAEPAVCertificate@@PBD0AAVLogBase@@@Z 0058ae41 f   ChilkatDbgDll:SystemCerts.obj
 0001:0018a05f       ?crpFindBySubjectKeyId@CertRepository@@QAEPAVCertificate@@PBDAAVLogBase@@@Z 0058b05f f   ChilkatDbgDll:SystemCerts.obj
 0001:0018a1d9       ??0SystemCerts@@AAE@XZ     0058b1d9 f   ChilkatDbgDll:SystemCerts.obj
 0001:0018a2c2       ?mergeSysCerts@SystemCertsHolder@@QAE_NAAV1@AAVLogBase@@@Z 0058b2c2 f   ChilkatDbgDll:SystemCerts.obj
 0001:0018a32a       ?setSystemCerts@SystemCertsHolder@@QAEXPAVSystemCerts@@@Z 0058b32a f   ChilkatDbgDll:SystemCerts.obj
 0001:0018a394       ?getSystemCertsPtr@SystemCertsHolder@@QAEPAVSystemCerts@@XZ 0058b394 f   ChilkatDbgDll:SystemCerts.obj
 0001:0018a3ac       ??0SystemCertsHolder@@QAE@XZ 0058b3ac f   ChilkatDbgDll:SystemCerts.obj
 0001:0018a42a       ??1SystemCertsHolder@@UAE@XZ 0058b42a f   ChilkatDbgDll:SystemCerts.obj
 0001:0018a4a8       ?createNewRcObject@SystemCerts@@SAPAV1@XZ 0058b4a8 f   ChilkatDbgDll:SystemCerts.obj
 0001:0018a566       ??1SystemCerts@@EAE@XZ     0058b566 f   ChilkatDbgDll:SystemCerts.obj
 0001:0018a8d4       ?mergeSysCerts@SystemCerts@@QAE_NAAV1@AAVLogBase@@@Z 0058b8d4 f   ChilkatDbgDll:SystemCerts.obj
 0001:0018a9a9       ?addCertificate@SystemCerts@@QAE_NPAVCertificate@@AAVLogBase@@@Z 0058b9a9 f   ChilkatDbgDll:SystemCerts.obj
 0001:0018aa6f       ?addCertDer@SystemCerts@@QAE_NAAVDataBuffer@@AAVLogBase@@@Z 0058ba6f f   ChilkatDbgDll:SystemCerts.obj
 0001:0018ab95       ?addPkcs12@SystemCerts@@QAE_NAAVPkcs12@@PAPAVCertificate@@AAVLogBase@@@Z 0058bb95 f   ChilkatDbgDll:SystemCerts.obj
 0001:0018ad58       ?addPfxSource@SystemCerts@@QAE_NABVDataBuffer@@PBDPAPAVCertificate@@AAVLogBase@@@Z 0058bd58 f   ChilkatDbgDll:SystemCerts.obj
 0001:0018af4c       ?openOnDemand@SystemCerts@@AAE_NAAVLogBase@@@Z 0058bf4c f   ChilkatDbgDll:SystemCerts.obj
 0001:0018afb2       ?openRootOnDemand@SystemCerts@@AAE_NAAVLogBase@@@Z 0058bfb2 f   ChilkatDbgDll:SystemCerts.obj
 0001:0018b018       ?openCaOnDemand@SystemCerts@@AAE_NAAVLogBase@@@Z 0058c018 f   ChilkatDbgDll:SystemCerts.obj
 0001:0018b07e       ?openAbOnDemand@SystemCerts@@AAE_NAAVLogBase@@@Z 0058c07e f   ChilkatDbgDll:SystemCerts.obj
 0001:0018b0ee       ?msAddCertBySerialAndIssuerCN@SystemCerts@@QAE_NPBD0_N1AA_NAAVLogBase@@@Z 0058c0ee f   ChilkatDbgDll:SystemCerts.obj
 0001:0018b253       ?msFindMsCertBySerialAndIssuerCN@SystemCerts@@QAEPAVMsCertificate@@PBD0_N1AA_NAAVLogBase@@@Z 0058c253 f   ChilkatDbgDll:SystemCerts.obj
 0001:0018c64d       ?msAddCertBySubjectKeyId@SystemCerts@@QAE_NPBD_N1AA_NAAVLogBase@@@Z 0058d64d f   ChilkatDbgDll:SystemCerts.obj
 0001:0018dafb       ?buildCertChain@SystemCerts@@QAE_NAAVCertificate@@_N1AAVExtPtrArray@@AA_NAAVLogBase@@@Z 0058eafb f   ChilkatDbgDll:SystemCerts.obj
 0001:0018e082       ?msAddIssuer@SystemCerts@@QAE_NAAVCertificate@@_NAAVLogBase@@@Z 0058f082 f   ChilkatDbgDll:SystemCerts.obj
 0001:0018e19c       ?msAddIssuer1@SystemCerts@@QAE_NAAVCertificate@@_NAAVLogBase@@@Z 0058f19c f   ChilkatDbgDll:SystemCerts.obj
 0001:0018ec0f       ?msAddIssuer2@SystemCerts@@QAE_NAAVCertificate@@_NAAVLogBase@@@Z 0058fc0f f   ChilkatDbgDll:SystemCerts.obj
 0001:0018f442       ?msAddByCN@SystemCerts@@QAE_NAAVXString@@_N0AAVLogBase@@@Z 00590442 f   ChilkatDbgDll:SystemCerts.obj
 0001:0018fa12       ?msAddBySubjectPart@SystemCerts@@QAE_NPBDAAVXString@@_NAAVLogBase@@@Z 00590a12 f   ChilkatDbgDll:SystemCerts.obj
 0001:00190145       ?msAddCert@SystemCerts@@QAE_NPAVMsCertificate@@_NAAVXString@@AAVLogBase@@@Z 00591145 f   ChilkatDbgDll:SystemCerts.obj
 0001:001902b6       ?msAddByEmail@SystemCerts@@QAE_NPBD_NAAVLogBase@@@Z 005912b6 f   ChilkatDbgDll:SystemCerts.obj
 0001:00190743       ?checkLoadSystemCaCerts@SystemCerts@@AAEXAAVLogBase@@@Z 00591743 f   ChilkatDbgDll:SystemCerts.obj
 0001:00190757       ?addCertificate@CertRepository@@QAE_NPAVCertificate@@AAVLogBase@@@Z 00591757 f   ChilkatDbgDll:SystemCerts.obj
 0001:00191414       ?addFromTrustedRootsBySubjectDN@SystemCerts@@AAE_NPBDAAVLogBase@@@Z 00592414 f   ChilkatDbgDll:SystemCerts.obj
 0001:001915f3       ?findBySubjectDN_x509@SystemCerts@@QAEPAVChilkatX509@@AAVXString@@_NAAVLogBase@@@Z 005925f3 f   ChilkatDbgDll:SystemCerts.obj
 0001:001916f8       ?findBySubjectDN@SystemCerts@@QAEPAVCertificate@@AAVXString@@_NAAVLogBase@@@Z 005926f8 f   ChilkatDbgDll:SystemCerts.obj
 0001:00191893       ?findByEmailAddr@SystemCerts@@QAEPAVCertificate@@PBD_NAAVLogBase@@@Z 00592893 f   ChilkatDbgDll:SystemCerts.obj
 0001:00191a3c       ?findIssuer@SystemCerts@@QAEPAVCertificate@@AAV2@_NAAVLogBase@@@Z 00592a3c f   ChilkatDbgDll:SystemCerts.obj
 0001:00191c4b       ?findPrivateKeyBySubjectKeyId@SystemCerts@@QAE_NPBDAAVDataBuffer@@PAV2@AA_NAAVLogBase@@@Z 00592c4b f   ChilkatDbgDll:SystemCerts.obj
 0001:00191db5       ?findPrivateKey@SystemCerts@@QAE_NPBD0AAVDataBuffer@@PAV2@AA_NAAVLogBase@@@Z 00592db5 f   ChilkatDbgDll:SystemCerts.obj
 0001:00191f23       ?addCertVault@SystemCerts@@QAE_NAAVCertMgr@@AAVLogBase@@@Z 00592f23 f   ChilkatDbgDll:SystemCerts.obj
 0001:0019206e       ?findCertificate@SystemCerts@@QAEPAVCertificate@@PBD0AAVLogBase@@@Z 0059306e f   ChilkatDbgDll:SystemCerts.obj
 0001:001921ac       ?findBySubjectKeyId@SystemCerts@@QAEPAVCertificate@@PBDAAVLogBase@@@Z 005931ac f   ChilkatDbgDll:SystemCerts.obj
 0001:001922de       ?findX509@SystemCerts@@QAEPAVChilkatX509@@PBD0AAVLogBase@@@Z 005932de f   ChilkatDbgDll:SystemCerts.obj
 0001:001923f0       ??_ECertRepository@@UAEPAXI@Z 005933f0 f i ChilkatDbgDll:SystemCerts.obj
 0001:001923f0       ??_GCertRepository@@UAEPAXI@Z 005933f0 f i ChilkatDbgDll:SystemCerts.obj
 0001:00192430       ??_ESystemCerts@@EAEPAXI@Z 00593430 f i ChilkatDbgDll:SystemCerts.obj
 0001:00192430       ??_GSystemCerts@@EAEPAXI@Z 00593430 f i ChilkatDbgDll:SystemCerts.obj
 0001:00192470       ??_GSystemCertsHolder@@UAEPAXI@Z 00593470 f i ChilkatDbgDll:SystemCerts.obj
